
objs/handler.elf:     file format elf32-littlearm


Disassembly of section .text:

06800010 <_start>:
 6800010:	ea000121 	b	680049c <_loader_cstart>

06800014 <PUT32>:
 6800014:	e5801000 	str	r1, [r0]
 6800018:	e12fff1e 	bx	lr

0680001c <GET32>:
 680001c:	e5900000 	ldr	r0, [r0]
 6800020:	e12fff1e 	bx	lr

06800024 <switchto>:
 6800024:	e52de004 	push	{lr}		; (str lr, [sp, #-4]!)
 6800028:	e24dd00c 	sub	sp, sp, #12, 0
 680002c:	e5903040 	ldr	r3, [r0, #64]	; 0x40
 6800030:	e203301f 	and	r3, r3, #31, 0
 6800034:	e3530012 	cmp	r3, #18, 0
 6800038:	13530010 	cmpne	r3, #16, 0
 680003c:	0a000005 	beq	6800058 <switchto+0x34>
 6800040:	e3530017 	cmp	r3, #23, 0
 6800044:	13530013 	cmpne	r3, #19, 0
 6800048:	0a000002 	beq	6800058 <switchto+0x34>
 680004c:	e353001f 	cmp	r3, #31, 0
 6800050:	1353001b 	cmpne	r3, #27, 0
 6800054:	1a000002 	bne	6800064 <switchto+0x40>
 6800058:	e3530010 	cmp	r3, #16, 0
 680005c:	0a000008 	beq	6800084 <switchto+0x60>
 6800060:	eb001c4e 	bl	68071a0 <switchto_priv_asm>
 6800064:	e58d3004 	str	r3, [sp, #4]
 6800068:	e58d3000 	str	r3, [sp]
 680006c:	e3a03013 	mov	r3, #19, 0
 6800070:	e59f2010 	ldr	r2, [pc, #16]	; 6800088 <switchto+0x64>
 6800074:	e59f1010 	ldr	r1, [pc, #16]	; 680008c <switchto+0x68>
 6800078:	e59f0010 	ldr	r0, [pc, #16]	; 6800090 <switchto+0x6c>
 680007c:	eb001984 	bl	6806694 <printk>
 6800080:	eb001ada 	bl	6806bf0 <clean_reboot>
 6800084:	eb001c33 	bl	6807158 <switchto_user_asm>
 6800088:	0680751c 	.word	0x0680751c
 680008c:	068073e0 	.word	0x068073e0
 6800090:	06807424 	.word	0x06807424

06800094 <cleanup>:
 6800094:	e92d4070 	push	{r4, r5, r6, lr}
 6800098:	e24dd008 	sub	sp, sp, #8, 0
 680009c:	eb000114 	bl	68004f4 <mmu_is_enabled>
 68000a0:	e2504000 	subs	r4, r0, #0, 0
 68000a4:	1a00000f 	bne	68000e8 <cleanup+0x54>
 68000a8:	e59f00b8 	ldr	r0, [pc, #184]	; 6800168 <cleanup+0xd4>
 68000ac:	eb001978 	bl	6806694 <printk>
 68000b0:	e3a03406 	mov	r3, #100663296	; 0x6000000
 68000b4:	e5936000 	ldr	r6, [r3]
 68000b8:	e1a01006 	mov	r1, r6
 68000bc:	e59f00a8 	ldr	r0, [pc, #168]	; 680016c <cleanup+0xd8>
 68000c0:	eb001973 	bl	6806694 <printk>
 68000c4:	e1a05004 	mov	r5, r4
 68000c8:	e1550006 	cmp	r5, r6
 68000cc:	2a00000d 	bcs	6800108 <cleanup+0x74>
 68000d0:	e2853406 	add	r3, r5, #100663296	; 0x6000000
 68000d4:	e5d31004 	ldrb	r1, [r3, #4]
 68000d8:	e59f0090 	ldr	r0, [pc, #144]	; 6800170 <cleanup+0xdc>
 68000dc:	eb00196c 	bl	6806694 <printk>
 68000e0:	e2855001 	add	r5, r5, #1, 0
 68000e4:	eafffff7 	b	68000c8 <cleanup+0x34>
 68000e8:	e59f3084 	ldr	r3, [pc, #132]	; 6800174 <cleanup+0xe0>
 68000ec:	e58d3000 	str	r3, [sp]
 68000f0:	e3a03020 	mov	r3, #32, 0
 68000f4:	e59f207c 	ldr	r2, [pc, #124]	; 6800178 <cleanup+0xe4>
 68000f8:	e59f107c 	ldr	r1, [pc, #124]	; 680017c <cleanup+0xe8>
 68000fc:	e59f007c 	ldr	r0, [pc, #124]	; 6800180 <cleanup+0xec>
 6800100:	eb001963 	bl	6806694 <printk>
 6800104:	eb001ab9 	bl	6806bf0 <clean_reboot>
 6800108:	e59f0074 	ldr	r0, [pc, #116]	; 6800184 <cleanup+0xf0>
 680010c:	eb001960 	bl	6806694 <printk>
 6800110:	e59f0070 	ldr	r0, [pc, #112]	; 6800188 <cleanup+0xf4>
 6800114:	eb00195e 	bl	6806694 <printk>
 6800118:	eb0018aa 	bl	68063c8 <uart_flush_tx>
 680011c:	e3a0000a 	mov	r0, #10, 0
 6800120:	eb001b4d 	bl	6806e5c <delay_ms>
 6800124:	e3a00014 	mov	r0, #20, 0
 6800128:	eb001832 	bl	68061f8 <gpio_set_output>
 680012c:	e3540009 	cmp	r4, #9, 0
 6800130:	ca00000a 	bgt	6800160 <cleanup+0xcc>
 6800134:	e3a00014 	mov	r0, #20, 0
 6800138:	eb0017e0 	bl	68060c0 <gpio_set_on>
 680013c:	e59f5048 	ldr	r5, [pc, #72]	; 680018c <cleanup+0xf8>
 6800140:	e1a00005 	mov	r0, r5
 6800144:	eb001b14 	bl	6806d9c <delay_cycles>
 6800148:	e3a00014 	mov	r0, #20, 0
 680014c:	eb0017e8 	bl	68060f4 <gpio_set_off>
 6800150:	e1a00005 	mov	r0, r5
 6800154:	eb001b10 	bl	6806d9c <delay_cycles>
 6800158:	e2844001 	add	r4, r4, #1, 0
 680015c:	eafffff2 	b	680012c <cleanup+0x98>
 6800160:	e28dd008 	add	sp, sp, #8, 0
 6800164:	e8bd8070 	pop	{r4, r5, r6, pc}
 6800168:	068074a0 	.word	0x068074a0
 680016c:	068074a4 	.word	0x068074a4
 6800170:	068074dc 	.word	0x068074dc
 6800174:	0680748c 	.word	0x0680748c
 6800178:	06807528 	.word	0x06807528
 680017c:	06807450 	.word	0x06807450
 6800180:	0680745c 	.word	0x0680745c
 6800184:	068074e0 	.word	0x068074e0
 6800188:	068074f8 	.word	0x068074f8
 680018c:	002dc6c0 	.word	0x002dc6c0

06800190 <data_abort_handler>:
 6800190:	e92d4070 	push	{r4, r5, r6, lr}
 6800194:	e1a05000 	mov	r5, r0
 6800198:	eb0000f4 	bl	6800570 <mmu_disable>
 680019c:	ee161f10 	mrc	15, 0, r1, cr6, cr0, {0}
 68001a0:	ee153f10 	mrc	15, 0, r3, cr5, cr0, {0}
 68001a4:	e1a035a3 	lsr	r3, r3, #11
 68001a8:	e595203c 	ldr	r2, [r5, #60]	; 0x3c
 68001ac:	e2822004 	add	r2, r2, #4, 0
 68001b0:	e585203c 	str	r2, [r5, #60]	; 0x3c
 68001b4:	e2133001 	ands	r3, r3, #1, 0
 68001b8:	03a02001 	moveq	r2, #1, 0
 68001bc:	13a02000 	movne	r2, #0, 0
 68001c0:	e59f00b0 	ldr	r0, [pc, #176]	; 6800278 <data_abort_handler+0xe8>
 68001c4:	e1510000 	cmp	r1, r0
 68001c8:	13a02000 	movne	r2, #0, 0
 68001cc:	02022001 	andeq	r2, r2, #1, 0
 68001d0:	e3520000 	cmp	r2, #0, 0
 68001d4:	0a00000a 	beq	6800204 <data_abort_handler+0x74>
 68001d8:	e59f4098 	ldr	r4, [pc, #152]	; 6800278 <data_abort_handler+0xe8>
 68001dc:	e1a00004 	mov	r0, r4
 68001e0:	ebffff8d 	bl	680001c <GET32>
 68001e4:	e5850000 	str	r0, [r5]
 68001e8:	e1a00004 	mov	r0, r4
 68001ec:	ebffff8a 	bl	680001c <GET32>
 68001f0:	e3100002 	tst	r0, #2, 0
 68001f4:	0afffff7 	beq	68001d8 <data_abort_handler+0x48>
 68001f8:	eb000104 	bl	6800610 <mmu_enable>
 68001fc:	e1a00005 	mov	r0, r5
 6800200:	ebffff87 	bl	6800024 <switchto>
 6800204:	e59f2070 	ldr	r2, [pc, #112]	; 680027c <data_abort_handler+0xec>
 6800208:	e1510002 	cmp	r1, r2
 680020c:	13a03000 	movne	r3, #0, 0
 6800210:	02033001 	andeq	r3, r3, #1, 0
 6800214:	e3530000 	cmp	r3, #0, 0
 6800218:	0afffff6 	beq	68001f8 <data_abort_handler+0x68>
 680021c:	e5d51004 	ldrb	r1, [r5, #4]
 6800220:	e59f0058 	ldr	r0, [pc, #88]	; 6800280 <data_abort_handler+0xf0>
 6800224:	eb00191a 	bl	6806694 <printk>
 6800228:	e3a03406 	mov	r3, #100663296	; 0x6000000
 680022c:	e5930000 	ldr	r0, [r3]
 6800230:	e0802003 	add	r2, r0, r3
 6800234:	e5d51004 	ldrb	r1, [r5, #4]
 6800238:	e5c21004 	strb	r1, [r2, #4]
 680023c:	e5932000 	ldr	r2, [r3]
 6800240:	e2822001 	add	r2, r2, #1, 0
 6800244:	e5832000 	str	r2, [r3]
 6800248:	e3500005 	cmp	r0, #5, 0
 680024c:	9affffe9 	bls	68001f8 <data_abort_handler+0x68>
 6800250:	e3a02007 	mov	r2, #7, 0
 6800254:	e59f1028 	ldr	r1, [pc, #40]	; 6800284 <data_abort_handler+0xf4>
 6800258:	e0800003 	add	r0, r0, r3
 680025c:	e2400002 	sub	r0, r0, #2, 0
 6800260:	eb001a30 	bl	6806b28 <strncmp>
 6800264:	e3500000 	cmp	r0, #0, 0
 6800268:	1affffe2 	bne	68001f8 <data_abort_handler+0x68>
 680026c:	ebffff88 	bl	6800094 <cleanup>
 6800270:	e1a00005 	mov	r0, r5
 6800274:	ebffff6a 	bl	6800024 <switchto>
 6800278:	20215064 	.word	0x20215064
 680027c:	20215040 	.word	0x20215040
 6800280:	068074dc 	.word	0x068074dc
 6800284:	06807504 	.word	0x06807504

06800288 <notmain>:
 6800288:	e92d4010 	push	{r4, lr}
 680028c:	e59f0014 	ldr	r0, [pc, #20]	; 68002a8 <notmain+0x20>
 6800290:	eb0018ff 	bl	6806694 <printk>
 6800294:	e3a00000 	mov	r0, #0, 0
 6800298:	eb001630 	bl	6805b60 <full_except_install>
 680029c:	e59f0008 	ldr	r0, [pc, #8]	; 68002ac <notmain+0x24>
 68002a0:	eb001622 	bl	6805b30 <full_except_set_data_abort>
 68002a4:	e8bd8010 	pop	{r4, pc}
 68002a8:	0680750c 	.word	0x0680750c
 68002ac:	06800190 	.word	0x06800190

068002b0 <mmu_reset>:
 68002b0:	e3a02000 	mov	r2, #0, 0
 68002b4:	ee072f15 	mcr	15, 0, r2, cr7, cr5, {0}
 68002b8:	ee072f15 	mcr	15, 0, r2, cr7, cr5, {0}
 68002bc:	ee072f15 	mcr	15, 0, r2, cr7, cr5, {0}
 68002c0:	ee072f15 	mcr	15, 0, r2, cr7, cr5, {0}
 68002c4:	e320f000 	nop	{0}
 68002c8:	e320f000 	nop	{0}
 68002cc:	e320f000 	nop	{0}
 68002d0:	e320f000 	nop	{0}
 68002d4:	e320f000 	nop	{0}
 68002d8:	e320f000 	nop	{0}
 68002dc:	e320f000 	nop	{0}
 68002e0:	e320f000 	nop	{0}
 68002e4:	e320f000 	nop	{0}
 68002e8:	e320f000 	nop	{0}
 68002ec:	e320f000 	nop	{0}
 68002f0:	ee072f16 	mcr	15, 0, r2, cr7, cr6, {0}
 68002f4:	ee082f17 	mcr	15, 0, r2, cr8, cr7, {0}
 68002f8:	ee072f9a 	mcr	15, 0, r2, cr7, cr10, {4}
 68002fc:	ee072fd5 	mcr	15, 0, r2, cr7, cr5, {6}
 6800300:	ee072f95 	mcr	15, 0, r2, cr7, cr5, {4}
 6800304:	e12fff1e 	bx	lr

06800308 <cp15_domain_ctrl_wr>:
 6800308:	ee030f10 	mcr	15, 0, r0, cr3, cr0, {0}
 680030c:	e3a02000 	mov	r2, #0, 0
 6800310:	ee072f95 	mcr	15, 0, r2, cr7, cr5, {4}
 6800314:	e12fff1e 	bx	lr

06800318 <cp15_set_procid_ttbr0>:
 6800318:	e3a02000 	mov	r2, #0, 0
 680031c:	ee072f9a 	mcr	15, 0, r2, cr7, cr10, {4}
 6800320:	ee0d2f30 	mcr	15, 0, r2, cr13, cr0, {1}
 6800324:	ee072f95 	mcr	15, 0, r2, cr7, cr5, {4}
 6800328:	ee021f10 	mcr	15, 0, r1, cr2, cr0, {0}
 680032c:	ee022f30 	mcr	15, 0, r2, cr2, cr0, {1}
 6800330:	ee022f50 	mcr	15, 0, r2, cr2, cr0, {2}
 6800334:	ee072fd5 	mcr	15, 0, r2, cr7, cr5, {6}
 6800338:	ee072f95 	mcr	15, 0, r2, cr7, cr5, {4}
 680033c:	ee0d0f30 	mcr	15, 0, r0, cr13, cr0, {1}
 6800340:	ee072fd5 	mcr	15, 0, r2, cr7, cr5, {6}
 6800344:	ee072f95 	mcr	15, 0, r2, cr7, cr5, {4}
 6800348:	e12fff1e 	bx	lr

0680034c <mmu_disable_set_asm>:
 680034c:	e3a02000 	mov	r2, #0, 0
 6800350:	ee072f1e 	mcr	15, 0, r2, cr7, cr14, {0}
 6800354:	ee072f9a 	mcr	15, 0, r2, cr7, cr10, {4}
 6800358:	ee012f10 	mcr	15, 0, r2, cr1, cr0, {0}
 680035c:	ee072f95 	mcr	15, 0, r2, cr7, cr5, {4}
 6800360:	ee072f15 	mcr	15, 0, r2, cr7, cr5, {0}
 6800364:	ee072f15 	mcr	15, 0, r2, cr7, cr5, {0}
 6800368:	ee072f15 	mcr	15, 0, r2, cr7, cr5, {0}
 680036c:	ee072f15 	mcr	15, 0, r2, cr7, cr5, {0}
 6800370:	e320f000 	nop	{0}
 6800374:	e320f000 	nop	{0}
 6800378:	e320f000 	nop	{0}
 680037c:	e320f000 	nop	{0}
 6800380:	e320f000 	nop	{0}
 6800384:	e320f000 	nop	{0}
 6800388:	e320f000 	nop	{0}
 680038c:	e320f000 	nop	{0}
 6800390:	e320f000 	nop	{0}
 6800394:	e320f000 	nop	{0}
 6800398:	e320f000 	nop	{0}
 680039c:	ee072f9a 	mcr	15, 0, r2, cr7, cr10, {4}
 68003a0:	ee072fd5 	mcr	15, 0, r2, cr7, cr5, {6}
 68003a4:	ee072f95 	mcr	15, 0, r2, cr7, cr5, {4}
 68003a8:	e12fff1e 	bx	lr

068003ac <mmu_enable_set_asm>:
 68003ac:	e1a01000 	mov	r1, r0
 68003b0:	e3a02000 	mov	r2, #0, 0
 68003b4:	ee110f10 	mrc	15, 0, r0, cr1, cr0, {0}
 68003b8:	e3c00a01 	bic	r0, r0, #4096	; 0x1000
 68003bc:	ee010f10 	mcr	15, 0, r0, cr1, cr0, {0}
 68003c0:	ee072f95 	mcr	15, 0, r2, cr7, cr5, {4}
 68003c4:	ee072f15 	mcr	15, 0, r2, cr7, cr5, {0}
 68003c8:	ee072f15 	mcr	15, 0, r2, cr7, cr5, {0}
 68003cc:	ee072f15 	mcr	15, 0, r2, cr7, cr5, {0}
 68003d0:	ee072f15 	mcr	15, 0, r2, cr7, cr5, {0}
 68003d4:	e320f000 	nop	{0}
 68003d8:	e320f000 	nop	{0}
 68003dc:	e320f000 	nop	{0}
 68003e0:	e320f000 	nop	{0}
 68003e4:	e320f000 	nop	{0}
 68003e8:	e320f000 	nop	{0}
 68003ec:	e320f000 	nop	{0}
 68003f0:	e320f000 	nop	{0}
 68003f4:	e320f000 	nop	{0}
 68003f8:	e320f000 	nop	{0}
 68003fc:	e320f000 	nop	{0}
 6800400:	ee072f9a 	mcr	15, 0, r2, cr7, cr10, {4}
 6800404:	e1a00001 	mov	r0, r1
 6800408:	ee010f10 	mcr	15, 0, r0, cr1, cr0, {0}
 680040c:	ee072f95 	mcr	15, 0, r2, cr7, cr5, {4}
 6800410:	ee072fd5 	mcr	15, 0, r2, cr7, cr5, {6}
 6800414:	ee072f95 	mcr	15, 0, r2, cr7, cr5, {4}
 6800418:	e12fff1e 	bx	lr

0680041c <mmu_sync_pte_mods>:
 680041c:	e3a02000 	mov	r2, #0, 0
 6800420:	ee072f1e 	mcr	15, 0, r2, cr7, cr14, {0}
 6800424:	ee072f15 	mcr	15, 0, r2, cr7, cr5, {0}
 6800428:	ee072f15 	mcr	15, 0, r2, cr7, cr5, {0}
 680042c:	ee072f15 	mcr	15, 0, r2, cr7, cr5, {0}
 6800430:	ee072f15 	mcr	15, 0, r2, cr7, cr5, {0}
 6800434:	e320f000 	nop	{0}
 6800438:	e320f000 	nop	{0}
 680043c:	e320f000 	nop	{0}
 6800440:	e320f000 	nop	{0}
 6800444:	e320f000 	nop	{0}
 6800448:	e320f000 	nop	{0}
 680044c:	e320f000 	nop	{0}
 6800450:	e320f000 	nop	{0}
 6800454:	e320f000 	nop	{0}
 6800458:	e320f000 	nop	{0}
 680045c:	e320f000 	nop	{0}
 6800460:	ee072f9a 	mcr	15, 0, r2, cr7, cr10, {4}
 6800464:	ee082f17 	mcr	15, 0, r2, cr8, cr7, {0}
 6800468:	ee072fd5 	mcr	15, 0, r2, cr7, cr5, {6}
 680046c:	ee072f9a 	mcr	15, 0, r2, cr7, cr10, {4}
 6800470:	ee072f95 	mcr	15, 0, r2, cr7, cr5, {4}
 6800474:	e12fff1e 	bx	lr

06800478 <cp15_ctrl_reg1_get>:
 6800478:	ee110f10 	mrc	15, 0, r0, cr1, cr0, {0}
 680047c:	e12fff1e 	bx	lr

06800480 <cp15_ctrl_reg1_wr>:
 6800480:	e3a02000 	mov	r2, #0, 0
 6800484:	ee010f10 	mcr	15, 0, r0, cr1, cr0, {0}
 6800488:	ee072f9a 	mcr	15, 0, r2, cr7, cr10, {4}
 680048c:	ee072fd5 	mcr	15, 0, r2, cr7, cr5, {6}
 6800490:	ee072f9a 	mcr	15, 0, r2, cr7, cr10, {4}
 6800494:	ee072f95 	mcr	15, 0, r2, cr7, cr5, {4}
 6800498:	e12fff1e 	bx	lr

0680049c <_loader_cstart>:
 680049c:	e92d4010 	push	{r4, lr}
 68004a0:	e59f3018 	ldr	r3, [pc, #24]	; 68004c0 <_loader_cstart+0x24>
 68004a4:	e59f2018 	ldr	r2, [pc, #24]	; 68004c4 <_loader_cstart+0x28>
 68004a8:	e1530002 	cmp	r3, r2
 68004ac:	33a02000 	movcc	r2, #0, 0
 68004b0:	34832004 	strcc	r2, [r3], #4
 68004b4:	3afffffa 	bcc	68004a4 <_loader_cstart+0x8>
 68004b8:	ebffff72 	bl	6800288 <notmain>
 68004bc:	e8bd8010 	pop	{r4, pc}
 68004c0:	0680a3c0 	.word	0x0680a3c0
 68004c4:	0680a908 	.word	0x0680a908

068004c8 <cp15_ctrl_reg1_rd>:
 68004c8:	e52de004 	push	{lr}		; (str lr, [sp, #-4]!)
 68004cc:	e24dd00c 	sub	sp, sp, #12, 0
 68004d0:	ebffffe8 	bl	6800478 <cp15_ctrl_reg1_get>
 68004d4:	e58d0000 	str	r0, [sp]
 68004d8:	e3a02004 	mov	r2, #4, 0
 68004dc:	e1a0100d 	mov	r1, sp
 68004e0:	e08d0002 	add	r0, sp, r2
 68004e4:	eb00180b 	bl	6806518 <memcpy>
 68004e8:	e59d0004 	ldr	r0, [sp, #4]
 68004ec:	e28dd00c 	add	sp, sp, #12, 0
 68004f0:	e49df004 	pop	{pc}		; (ldr pc, [sp], #4)

068004f4 <mmu_is_enabled>:
 68004f4:	e92d4010 	push	{r4, lr}
 68004f8:	ebfffff2 	bl	68004c8 <cp15_ctrl_reg1_rd>
 68004fc:	e2000001 	and	r0, r0, #1, 0
 6800500:	e8bd8010 	pop	{r4, pc}

06800504 <mmu_disable_set>:
 6800504:	e92d4030 	push	{r4, r5, lr}
 6800508:	e24dd00c 	sub	sp, sp, #12, 0
 680050c:	e3100001 	tst	r0, #1, 0
 6800510:	1a000007 	bne	6800534 <mmu_disable_set+0x30>
 6800514:	e1a04000 	mov	r4, r0
 6800518:	e1a05120 	lsr	r5, r0, #2
 680051c:	e2055001 	and	r5, r5, #1, 0
 6800520:	ebffff89 	bl	680034c <mmu_disable_set_asm>
 6800524:	e3550000 	cmp	r5, #0, 0
 6800528:	1a000009 	bne	6800554 <mmu_disable_set+0x50>
 680052c:	e28dd00c 	add	sp, sp, #12, 0
 6800530:	e8bd8030 	pop	{r4, r5, pc}
 6800534:	e59f3024 	ldr	r3, [pc, #36]	; 6800560 <mmu_disable_set+0x5c>
 6800538:	e58d3000 	str	r3, [sp]
 680053c:	e3a0301f 	mov	r3, #31, 0
 6800540:	e59f201c 	ldr	r2, [pc, #28]	; 6800564 <mmu_disable_set+0x60>
 6800544:	e59f101c 	ldr	r1, [pc, #28]	; 6800568 <mmu_disable_set+0x64>
 6800548:	e59f001c 	ldr	r0, [pc, #28]	; 680056c <mmu_disable_set+0x68>
 680054c:	eb001850 	bl	6806694 <printk>
 6800550:	eb0019a6 	bl	6806bf0 <clean_reboot>
 6800554:	e3840004 	orr	r0, r4, #4, 0
 6800558:	ebffffc8 	bl	6800480 <cp15_ctrl_reg1_wr>
 680055c:	eafffff2 	b	680052c <mmu_disable_set+0x28>
 6800560:	06807538 	.word	0x06807538
 6800564:	06807584 	.word	0x06807584
 6800568:	06807530 	.word	0x06807530
 680056c:	0680745c 	.word	0x0680745c

06800570 <mmu_disable>:
 6800570:	e52de004 	push	{lr}		; (str lr, [sp, #-4]!)
 6800574:	e24dd00c 	sub	sp, sp, #12, 0
 6800578:	ebffffd2 	bl	68004c8 <cp15_ctrl_reg1_rd>
 680057c:	e3100001 	tst	r0, #1, 0
 6800580:	0a000003 	beq	6800594 <mmu_disable+0x24>
 6800584:	e3c00001 	bic	r0, r0, #1, 0
 6800588:	ebffffdd 	bl	6800504 <mmu_disable_set>
 680058c:	e28dd00c 	add	sp, sp, #12, 0
 6800590:	e49df004 	pop	{pc}		; (ldr pc, [sp], #4)
 6800594:	e59f3018 	ldr	r3, [pc, #24]	; 68005b4 <mmu_disable+0x44>
 6800598:	e58d3000 	str	r3, [sp]
 680059c:	e3a03033 	mov	r3, #51, 0	; 0x33
 68005a0:	e59f2010 	ldr	r2, [pc, #16]	; 68005b8 <mmu_disable+0x48>
 68005a4:	e59f1010 	ldr	r1, [pc, #16]	; 68005bc <mmu_disable+0x4c>
 68005a8:	e59f0010 	ldr	r0, [pc, #16]	; 68005c0 <mmu_disable+0x50>
 68005ac:	eb001838 	bl	6806694 <printk>
 68005b0:	eb00198e 	bl	6806bf0 <clean_reboot>
 68005b4:	06807548 	.word	0x06807548
 68005b8:	06807594 	.word	0x06807594
 68005bc:	06807530 	.word	0x06807530
 68005c0:	0680745c 	.word	0x0680745c

068005c4 <mmu_enable_set>:
 68005c4:	e52de004 	push	{lr}		; (str lr, [sp, #-4]!)
 68005c8:	e24dd00c 	sub	sp, sp, #12, 0
 68005cc:	e3100001 	tst	r0, #1, 0
 68005d0:	0a000002 	beq	68005e0 <mmu_enable_set+0x1c>
 68005d4:	ebffff74 	bl	68003ac <mmu_enable_set_asm>
 68005d8:	e28dd00c 	add	sp, sp, #12, 0
 68005dc:	e49df004 	pop	{pc}		; (ldr pc, [sp], #4)
 68005e0:	e59f3018 	ldr	r3, [pc, #24]	; 6800600 <mmu_enable_set+0x3c>
 68005e4:	e58d3000 	str	r3, [sp]
 68005e8:	e3a0303d 	mov	r3, #61, 0	; 0x3d
 68005ec:	e59f2010 	ldr	r2, [pc, #16]	; 6800604 <mmu_enable_set+0x40>
 68005f0:	e59f1010 	ldr	r1, [pc, #16]	; 6800608 <mmu_enable_set+0x44>
 68005f4:	e59f0010 	ldr	r0, [pc, #16]	; 680060c <mmu_enable_set+0x48>
 68005f8:	eb001825 	bl	6806694 <printk>
 68005fc:	eb00197b 	bl	6806bf0 <clean_reboot>
 6800600:	06807548 	.word	0x06807548
 6800604:	068075a0 	.word	0x068075a0
 6800608:	06807530 	.word	0x06807530
 680060c:	0680745c 	.word	0x0680745c

06800610 <mmu_enable>:
 6800610:	e52de004 	push	{lr}		; (str lr, [sp, #-4]!)
 6800614:	e24dd00c 	sub	sp, sp, #12, 0
 6800618:	ebffffaa 	bl	68004c8 <cp15_ctrl_reg1_rd>
 680061c:	e3100001 	tst	r0, #1, 0
 6800620:	1a000003 	bne	6800634 <mmu_enable+0x24>
 6800624:	e3800001 	orr	r0, r0, #1, 0
 6800628:	ebffffe5 	bl	68005c4 <mmu_enable_set>
 680062c:	e28dd00c 	add	sp, sp, #12, 0
 6800630:	e49df004 	pop	{pc}		; (ldr pc, [sp], #4)
 6800634:	e59f3018 	ldr	r3, [pc, #24]	; 6800654 <mmu_enable+0x44>
 6800638:	e58d3000 	str	r3, [sp]
 680063c:	e3a03044 	mov	r3, #68, 0	; 0x44
 6800640:	e59f2010 	ldr	r2, [pc, #16]	; 6800658 <mmu_enable+0x48>
 6800644:	e59f1010 	ldr	r1, [pc, #16]	; 680065c <mmu_enable+0x4c>
 6800648:	e59f0010 	ldr	r0, [pc, #16]	; 6800660 <mmu_enable+0x50>
 680064c:	eb001810 	bl	6806694 <printk>
 6800650:	eb001966 	bl	6806bf0 <clean_reboot>
 6800654:	06807538 	.word	0x06807538
 6800658:	068075b0 	.word	0x068075b0
 680065c:	06807530 	.word	0x06807530
 6800660:	0680745c 	.word	0x0680745c

06800664 <mmu_set_ctx>:
 6800664:	e52de004 	push	{lr}		; (str lr, [sp, #-4]!)
 6800668:	e24dd00c 	sub	sp, sp, #12, 0
 680066c:	e1a03001 	mov	r3, r1
 6800670:	e3530000 	cmp	r3, #0, 0
 6800674:	0a000006 	beq	6800694 <mmu_set_ctx+0x30>
 6800678:	e1a01002 	mov	r1, r2
 680067c:	e353003f 	cmp	r3, #63, 0	; 0x3f
 6800680:	8a00000b 	bhi	68006b4 <mmu_set_ctx+0x50>
 6800684:	e1830400 	orr	r0, r3, r0, lsl #8
 6800688:	ebffff22 	bl	6800318 <cp15_set_procid_ttbr0>
 680068c:	e28dd00c 	add	sp, sp, #12, 0
 6800690:	e49df004 	pop	{pc}		; (ldr pc, [sp], #4)
 6800694:	e59f3038 	ldr	r3, [pc, #56]	; 68006d4 <mmu_set_ctx+0x70>
 6800698:	e58d3000 	str	r3, [sp]
 680069c:	e3a0304b 	mov	r3, #75, 0	; 0x4b
 68006a0:	e59f2030 	ldr	r2, [pc, #48]	; 68006d8 <mmu_set_ctx+0x74>
 68006a4:	e59f1030 	ldr	r1, [pc, #48]	; 68006dc <mmu_set_ctx+0x78>
 68006a8:	e59f0030 	ldr	r0, [pc, #48]	; 68006e0 <mmu_set_ctx+0x7c>
 68006ac:	eb0017f8 	bl	6806694 <printk>
 68006b0:	eb00194e 	bl	6806bf0 <clean_reboot>
 68006b4:	e59f3028 	ldr	r3, [pc, #40]	; 68006e4 <mmu_set_ctx+0x80>
 68006b8:	e58d3000 	str	r3, [sp]
 68006bc:	e3a0304c 	mov	r3, #76, 0	; 0x4c
 68006c0:	e59f2010 	ldr	r2, [pc, #16]	; 68006d8 <mmu_set_ctx+0x74>
 68006c4:	e59f1010 	ldr	r1, [pc, #16]	; 68006dc <mmu_set_ctx+0x78>
 68006c8:	e59f0010 	ldr	r0, [pc, #16]	; 68006e0 <mmu_set_ctx+0x7c>
 68006cc:	eb0017f0 	bl	6806694 <printk>
 68006d0:	eb001946 	bl	6806bf0 <clean_reboot>
 68006d4:	06807558 	.word	0x06807558
 68006d8:	068075bc 	.word	0x068075bc
 68006dc:	06807530 	.word	0x06807530
 68006e0:	0680745c 	.word	0x0680745c
 68006e4:	06807560 	.word	0x06807560

068006e8 <mmu_init>:
 68006e8:	e52de004 	push	{lr}		; (str lr, [sp, #-4]!)
 68006ec:	e24dd00c 	sub	sp, sp, #12, 0
 68006f0:	ebfffeee 	bl	68002b0 <mmu_reset>
 68006f4:	ebffff73 	bl	68004c8 <cp15_ctrl_reg1_rd>
 68006f8:	e3800502 	orr	r0, r0, #8388608	; 0x800000
 68006fc:	ebffff5f 	bl	6800480 <cp15_ctrl_reg1_wr>
 6800700:	ebffff70 	bl	68004c8 <cp15_ctrl_reg1_rd>
 6800704:	e3100502 	tst	r0, #8388608	; 0x800000
 6800708:	0a000003 	beq	680071c <mmu_init+0x34>
 680070c:	e3100001 	tst	r0, #1, 0
 6800710:	1a000009 	bne	680073c <mmu_init+0x54>
 6800714:	e28dd00c 	add	sp, sp, #12, 0
 6800718:	e49df004 	pop	{pc}		; (ldr pc, [sp], #4)
 680071c:	e59f3038 	ldr	r3, [pc, #56]	; 680075c <mmu_init+0x74>
 6800720:	e58d3000 	str	r3, [sp]
 6800724:	e3a03067 	mov	r3, #103, 0	; 0x67
 6800728:	e59f2030 	ldr	r2, [pc, #48]	; 6800760 <mmu_init+0x78>
 680072c:	e59f1030 	ldr	r1, [pc, #48]	; 6800764 <mmu_init+0x7c>
 6800730:	e59f0030 	ldr	r0, [pc, #48]	; 6800768 <mmu_init+0x80>
 6800734:	eb0017d6 	bl	6806694 <printk>
 6800738:	eb00192c 	bl	6806bf0 <clean_reboot>
 680073c:	e59f3028 	ldr	r3, [pc, #40]	; 680076c <mmu_init+0x84>
 6800740:	e58d3000 	str	r3, [sp]
 6800744:	e3a03068 	mov	r3, #104, 0	; 0x68
 6800748:	e59f2010 	ldr	r2, [pc, #16]	; 6800760 <mmu_init+0x78>
 680074c:	e59f1010 	ldr	r1, [pc, #16]	; 6800764 <mmu_init+0x7c>
 6800750:	e59f0010 	ldr	r0, [pc, #16]	; 6800768 <mmu_init+0x80>
 6800754:	eb0017ce 	bl	6806694 <printk>
 6800758:	eb001924 	bl	6806bf0 <clean_reboot>
 680075c:	06807568 	.word	0x06807568
 6800760:	068075c8 	.word	0x068075c8
 6800764:	06807530 	.word	0x06807530
 6800768:	0680745c 	.word	0x0680745c
 680076c:	06807574 	.word	0x06807574

06800770 <domain_access_ctrl_get>:
 6800770:	ee130f10 	mrc	15, 0, r0, cr3, cr0, {0}
 6800774:	e12fff1e 	bx	lr

06800778 <domain_access_ctrl_set>:
 6800778:	e92d4010 	push	{r4, lr}
 680077c:	ebfffee1 	bl	6800308 <cp15_domain_ctrl_wr>
 6800780:	e8bd8010 	pop	{r4, pc}

06800784 <cluster_to_lba>:
 6800784:	e3510001 	cmp	r1, #1, 0
 6800788:	9a000004 	bls	68007a0 <cluster_to_lba+0x1c>
 680078c:	e5903008 	ldr	r3, [r0, #8]
 6800790:	e2411002 	sub	r1, r1, #2, 0
 6800794:	e590000c 	ldr	r0, [r0, #12]
 6800798:	e0203190 	mla	r0, r0, r1, r3
 680079c:	e12fff1e 	bx	lr
 68007a0:	e52de004 	push	{lr}		; (str lr, [sp, #-4]!)
 68007a4:	e24dd00c 	sub	sp, sp, #12, 0
 68007a8:	e59f3018 	ldr	r3, [pc, #24]	; 68007c8 <cluster_to_lba+0x44>
 68007ac:	e58d3000 	str	r3, [sp]
 68007b0:	e3a03052 	mov	r3, #82, 0	; 0x52
 68007b4:	e59f2010 	ldr	r2, [pc, #16]	; 68007cc <cluster_to_lba+0x48>
 68007b8:	e59f1010 	ldr	r1, [pc, #16]	; 68007d0 <cluster_to_lba+0x4c>
 68007bc:	e59f0010 	ldr	r0, [pc, #16]	; 68007d4 <cluster_to_lba+0x50>
 68007c0:	eb0017b3 	bl	6806694 <printk>
 68007c4:	eb001909 	bl	6806bf0 <clean_reboot>
 68007c8:	068075dc 	.word	0x068075dc
 68007cc:	06807b18 	.word	0x06807b18
 68007d0:	068075d4 	.word	0x068075d4
 68007d4:	0680745c 	.word	0x0680745c

068007d8 <get_cluster_chain_length>:
 68007d8:	e92d4070 	push	{r4, r5, r6, lr}
 68007dc:	e2514000 	subs	r4, r1, #0, 0
 68007e0:	0a00000a 	beq	6800810 <get_cluster_chain_length+0x38>
 68007e4:	e1a06000 	mov	r6, r0
 68007e8:	e3a05000 	mov	r5, #0, 0
 68007ec:	e1a00004 	mov	r0, r4
 68007f0:	eb0009bc 	bl	6802ee8 <fat32_fat_entry_type>
 68007f4:	e370028f 	cmn	r0, #-268435448	; 0xf0000008
 68007f8:	0a000005 	beq	6800814 <get_cluster_chain_length+0x3c>
 68007fc:	e3c4420f 	bic	r4, r4, #-268435456	; 0xf0000000
 6800800:	e5963014 	ldr	r3, [r6, #20]
 6800804:	e7934104 	ldr	r4, [r3, r4, lsl #2]
 6800808:	e2855001 	add	r5, r5, #1, 0
 680080c:	eafffff6 	b	68007ec <get_cluster_chain_length+0x14>
 6800810:	e1a05004 	mov	r5, r4
 6800814:	e1a00005 	mov	r0, r5
 6800818:	e8bd8070 	pop	{r4, r5, r6, pc}

0680081c <read_cluster_chain>:
 680081c:	e92d41f0 	push	{r4, r5, r6, r7, r8, lr}
 6800820:	e1a05000 	mov	r5, r0
 6800824:	e1a04001 	mov	r4, r1
 6800828:	e1a06002 	mov	r6, r2
 680082c:	e590700c 	ldr	r7, [r0, #12]
 6800830:	e1a07487 	lsl	r7, r7, #9
 6800834:	e1a00004 	mov	r0, r4
 6800838:	eb0009aa 	bl	6802ee8 <fat32_fat_entry_type>
 680083c:	e370028f 	cmn	r0, #-268435448	; 0xf0000008
 6800840:	08bd81f0 	popeq	{r4, r5, r6, r7, r8, pc}
 6800844:	e3c4420f 	bic	r4, r4, #-268435456	; 0xf0000000
 6800848:	e1a01004 	mov	r1, r4
 680084c:	e1a00005 	mov	r0, r5
 6800850:	ebffffcb 	bl	6800784 <cluster_to_lba>
 6800854:	e1a01000 	mov	r1, r0
 6800858:	e595200c 	ldr	r2, [r5, #12]
 680085c:	e1a00006 	mov	r0, r6
 6800860:	eb0004a3 	bl	6801af4 <pi_sd_read>
 6800864:	e0866007 	add	r6, r6, r7
 6800868:	e5953014 	ldr	r3, [r5, #20]
 680086c:	e7934104 	ldr	r4, [r3, r4, lsl #2]
 6800870:	eaffffef 	b	6800834 <read_cluster_chain+0x18>

06800874 <get_dirents>:
 6800874:	e92d41f0 	push	{r4, r5, r6, r7, r8, lr}
 6800878:	e1a05000 	mov	r5, r0
 680087c:	e1a07001 	mov	r7, r1
 6800880:	e1a08002 	mov	r8, r2
 6800884:	ebffffd3 	bl	68007d8 <get_cluster_chain_length>
 6800888:	e1a04000 	mov	r4, r0
 680088c:	e595000c 	ldr	r0, [r5, #12]
 6800890:	e0000094 	mul	r0, r4, r0
 6800894:	e1a00480 	lsl	r0, r0, #9
 6800898:	eb0015a6 	bl	6805f38 <kmalloc>
 680089c:	e1a06000 	mov	r6, r0
 68008a0:	e595000c 	ldr	r0, [r5, #12]
 68008a4:	e0040094 	mul	r4, r4, r0
 68008a8:	e1a04484 	lsl	r4, r4, #9
 68008ac:	e1a042a4 	lsr	r4, r4, #5
 68008b0:	e5884000 	str	r4, [r8]
 68008b4:	e1a02006 	mov	r2, r6
 68008b8:	e1a01007 	mov	r1, r7
 68008bc:	e1a00005 	mov	r0, r5
 68008c0:	ebffffd5 	bl	680081c <read_cluster_chain>
 68008c4:	e1a00006 	mov	r0, r6
 68008c8:	e8bd81f0 	pop	{r4, r5, r6, r7, r8, pc}

068008cc <find_free_cluster>:
 68008cc:	e92d4070 	push	{r4, r5, r6, lr}
 68008d0:	e1a05000 	mov	r5, r0
 68008d4:	e3510002 	cmp	r1, #2, 0
 68008d8:	9a00000a 	bls	6800908 <find_free_cluster+0x3c>
 68008dc:	e1a04001 	mov	r4, r1
 68008e0:	e5953018 	ldr	r3, [r5, #24]
 68008e4:	e1530004 	cmp	r3, r4
 68008e8:	9a000008 	bls	6800910 <find_free_cluster+0x44>
 68008ec:	e5953014 	ldr	r3, [r5, #20]
 68008f0:	e7930104 	ldr	r0, [r3, r4, lsl #2]
 68008f4:	eb00097b 	bl	6802ee8 <fat32_fat_entry_type>
 68008f8:	e3500000 	cmp	r0, #0, 0
 68008fc:	0a000009 	beq	6800928 <find_free_cluster+0x5c>
 6800900:	e2844001 	add	r4, r4, #1, 0
 6800904:	eafffff5 	b	68008e0 <find_free_cluster+0x14>
 6800908:	e3a04003 	mov	r4, #3, 0
 680090c:	eafffff3 	b	68008e0 <find_free_cluster+0x14>
 6800910:	e59f3018 	ldr	r3, [pc, #24]	; 6800930 <find_free_cluster+0x64>
 6800914:	e59f2018 	ldr	r2, [pc, #24]	; 6800934 <find_free_cluster+0x68>
 6800918:	e59f1018 	ldr	r1, [pc, #24]	; 6800938 <find_free_cluster+0x6c>
 680091c:	e59f0018 	ldr	r0, [pc, #24]	; 680093c <find_free_cluster+0x70>
 6800920:	eb00175b 	bl	6806694 <printk>
 6800924:	eb0018b1 	bl	6806bf0 <clean_reboot>
 6800928:	e1a00004 	mov	r0, r4
 680092c:	e8bd8070 	pop	{r4, r5, r6, pc}
 6800930:	00000133 	.word	0x00000133
 6800934:	06807b28 	.word	0x06807b28
 6800938:	068075d4 	.word	0x068075d4
 680093c:	068075f0 	.word	0x068075f0

06800940 <dirent_convert>:
 6800940:	e92d4030 	push	{r4, r5, lr}
 6800944:	e24dd034 	sub	sp, sp, #52, 0	; 0x34
 6800948:	e1a05000 	mov	r5, r0
 680094c:	e1a04001 	mov	r4, r1
 6800950:	e3a0202c 	mov	r2, #44, 0	; 0x2c
 6800954:	e3a01000 	mov	r1, #0, 0
 6800958:	e28d0004 	add	r0, sp, #4, 0
 680095c:	eb001724 	bl	68065f4 <memset>
 6800960:	e5d43014 	ldrb	r3, [r4, #20]
 6800964:	e5d42015 	ldrb	r2, [r4, #21]
 6800968:	e1832402 	orr	r2, r3, r2, lsl #8
 680096c:	e5d4301a 	ldrb	r3, [r4, #26]
 6800970:	e5d4101b 	ldrb	r1, [r4, #27]
 6800974:	e1833401 	orr	r3, r3, r1, lsl #8
 6800978:	e1833802 	orr	r3, r3, r2, lsl #16
 680097c:	e58d3024 	str	r3, [sp, #36]	; 0x24
 6800980:	e5d4300b 	ldrb	r3, [r4, #11]
 6800984:	e3530010 	cmp	r3, #16, 0
 6800988:	13a03000 	movne	r3, #0, 0
 680098c:	03a03001 	moveq	r3, #1, 0
 6800990:	e58d3028 	str	r3, [sp, #40]	; 0x28
 6800994:	e5d4301c 	ldrb	r3, [r4, #28]
 6800998:	e5d4201d 	ldrb	r2, [r4, #29]
 680099c:	e1833402 	orr	r3, r3, r2, lsl #8
 68009a0:	e5d4201e 	ldrb	r2, [r4, #30]
 68009a4:	e1833802 	orr	r3, r3, r2, lsl #16
 68009a8:	e5d4201f 	ldrb	r2, [r4, #31]
 68009ac:	e1833c02 	orr	r3, r3, r2, lsl #24
 68009b0:	e58d302c 	str	r3, [sp, #44]	; 0x2c
 68009b4:	e3a0200b 	mov	r2, #11, 0
 68009b8:	e1a01004 	mov	r1, r4
 68009bc:	e28d0014 	add	r0, sp, #20, 0
 68009c0:	eb0016d4 	bl	6806518 <memcpy>
 68009c4:	e28d1004 	add	r1, sp, #4, 0
 68009c8:	e1a00004 	mov	r0, r4
 68009cc:	eb0009f0 	bl	6803194 <fat32_dirent_name>
 68009d0:	e1a0e005 	mov	lr, r5
 68009d4:	e28dc004 	add	ip, sp, #4, 0
 68009d8:	e8bc000f 	ldm	ip!, {r0, r1, r2, r3}
 68009dc:	e8ae000f 	stmia	lr!, {r0, r1, r2, r3}
 68009e0:	e8bc000f 	ldm	ip!, {r0, r1, r2, r3}
 68009e4:	e8ae000f 	stmia	lr!, {r0, r1, r2, r3}
 68009e8:	e89c0007 	ldm	ip, {r0, r1, r2}
 68009ec:	e88e0007 	stm	lr, {r0, r1, r2}
 68009f0:	e1a00005 	mov	r0, r5
 68009f4:	e28dd034 	add	sp, sp, #52, 0	; 0x34
 68009f8:	e8bd8030 	pop	{r4, r5, pc}

068009fc <find_dirent_with_name>:
 68009fc:	e92d41f0 	push	{r4, r5, r6, r7, r8, lr}
 6800a00:	e24dd010 	sub	sp, sp, #16, 0
 6800a04:	e1a07000 	mov	r7, r0
 6800a08:	e1a06001 	mov	r6, r1
 6800a0c:	e1a08002 	mov	r8, r2
 6800a10:	e1a00002 	mov	r0, r2
 6800a14:	eb00183c 	bl	6806b0c <strlen>
 6800a18:	e1a05000 	mov	r5, r0
 6800a1c:	e3a04000 	mov	r4, #0, 0
 6800a20:	ea000000 	b	6800a28 <find_dirent_with_name+0x2c>
 6800a24:	e2844001 	add	r4, r4, #1, 0
 6800a28:	e1540006 	cmp	r4, r6
 6800a2c:	aa00000d 	bge	6800a68 <find_dirent_with_name+0x6c>
 6800a30:	e1a0100d 	mov	r1, sp
 6800a34:	e0870284 	add	r0, r7, r4, lsl #5
 6800a38:	eb0009d5 	bl	6803194 <fat32_dirent_name>
 6800a3c:	e1a0000d 	mov	r0, sp
 6800a40:	eb001831 	bl	6806b0c <strlen>
 6800a44:	e1550000 	cmp	r5, r0
 6800a48:	1afffff5 	bne	6800a24 <find_dirent_with_name+0x28>
 6800a4c:	e1a02005 	mov	r2, r5
 6800a50:	e1a01008 	mov	r1, r8
 6800a54:	e1a0000d 	mov	r0, sp
 6800a58:	eb001832 	bl	6806b28 <strncmp>
 6800a5c:	e3500000 	cmp	r0, #0, 0
 6800a60:	1affffef 	bne	6800a24 <find_dirent_with_name+0x28>
 6800a64:	ea000000 	b	6800a6c <find_dirent_with_name+0x70>
 6800a68:	e3e04000 	mvn	r4, #0, 0
 6800a6c:	e1a00004 	mov	r0, r4
 6800a70:	e28dd010 	add	sp, sp, #16, 0
 6800a74:	e8bd81f0 	pop	{r4, r5, r6, r7, r8, pc}

06800a78 <write_cluster_chain>:
 6800a78:	e92d4ff0 	push	{r4, r5, r6, r7, r8, r9, sl, fp, lr}
 6800a7c:	e24dd00c 	sub	sp, sp, #12, 0
 6800a80:	e1a04000 	mov	r4, r0
 6800a84:	e1a06001 	mov	r6, r1
 6800a88:	e1a07002 	mov	r7, r2
 6800a8c:	e1a09003 	mov	r9, r3
 6800a90:	ebffff50 	bl	68007d8 <get_cluster_chain_length>
 6800a94:	e1a08000 	mov	r8, r0
 6800a98:	e1a05009 	mov	r5, r9
 6800a9c:	e59f0230 	ldr	r0, [pc, #560]	; 6800cd4 <write_cluster_chain+0x25c>
 6800aa0:	eb0016fb 	bl	6806694 <printk>
 6800aa4:	e1a03009 	mov	r3, r9
 6800aa8:	e1a02006 	mov	r2, r6
 6800aac:	e1a01008 	mov	r1, r8
 6800ab0:	e59f0220 	ldr	r0, [pc, #544]	; 6800cd8 <write_cluster_chain+0x260>
 6800ab4:	eb0016f6 	bl	6806694 <printk>
 6800ab8:	e3a0a000 	mov	sl, #0, 0
 6800abc:	e3550000 	cmp	r5, #0, 0
 6800ac0:	d3a0b000 	movle	fp, #0, 0
 6800ac4:	c3a0b001 	movgt	fp, #1, 0
 6800ac8:	e2589000 	subs	r9, r8, #0, 0
 6800acc:	13a09001 	movne	r9, #1, 0
 6800ad0:	e11b0009 	tst	fp, r9
 6800ad4:	0a00000f 	beq	6800b18 <write_cluster_chain+0xa0>
 6800ad8:	e1a01006 	mov	r1, r6
 6800adc:	e1a00004 	mov	r0, r4
 6800ae0:	ebffff27 	bl	6800784 <cluster_to_lba>
 6800ae4:	e1a01000 	mov	r1, r0
 6800ae8:	e594200c 	ldr	r2, [r4, #12]
 6800aec:	e1a00007 	mov	r0, r7
 6800af0:	eb000478 	bl	6801cd8 <pi_sd_write>
 6800af4:	e2488001 	sub	r8, r8, #1, 0
 6800af8:	e594300c 	ldr	r3, [r4, #12]
 6800afc:	e0455483 	sub	r5, r5, r3, lsl #9
 6800b00:	e0877483 	add	r7, r7, r3, lsl #9
 6800b04:	e5943014 	ldr	r3, [r4, #20]
 6800b08:	e7933106 	ldr	r3, [r3, r6, lsl #2]
 6800b0c:	e1a0a006 	mov	sl, r6
 6800b10:	e3c3620f 	bic	r6, r3, #-268435456	; 0xf0000000
 6800b14:	eaffffe8 	b	6800abc <write_cluster_chain+0x44>
 6800b18:	e1a0100a 	mov	r1, sl
 6800b1c:	e59f01b8 	ldr	r0, [pc, #440]	; 6800cdc <write_cluster_chain+0x264>
 6800b20:	eb0016db 	bl	6806694 <printk>
 6800b24:	e1a03005 	mov	r3, r5
 6800b28:	e1a02006 	mov	r2, r6
 6800b2c:	e1a01008 	mov	r1, r8
 6800b30:	e59f01a0 	ldr	r0, [pc, #416]	; 6800cd8 <write_cluster_chain+0x260>
 6800b34:	eb0016d6 	bl	6806694 <printk>
 6800b38:	e3580000 	cmp	r8, #0, 0
 6800b3c:	01a0800b 	moveq	r8, fp
 6800b40:	13a08000 	movne	r8, #0, 0
 6800b44:	e3580000 	cmp	r8, #0, 0
 6800b48:	1a000008 	bne	6800b70 <write_cluster_chain+0xf8>
 6800b4c:	e3550000 	cmp	r5, #0, 0
 6800b50:	c3a05000 	movgt	r5, #0, 0
 6800b54:	d2095001 	andle	r5, r9, #1, 0
 6800b58:	e3550000 	cmp	r5, #0, 0
 6800b5c:	1a000024 	bne	6800bf4 <write_cluster_chain+0x17c>
 6800b60:	e35a0000 	cmp	sl, #0, 0
 6800b64:	1a00004d 	bne	6800ca0 <write_cluster_chain+0x228>
 6800b68:	e28dd00c 	add	sp, sp, #12, 0
 6800b6c:	e8bd8ff0 	pop	{r4, r5, r6, r7, r8, r9, sl, fp, pc}
 6800b70:	e59f0168 	ldr	r0, [pc, #360]	; 6800ce0 <write_cluster_chain+0x268>
 6800b74:	eb0016c6 	bl	6806694 <printk>
 6800b78:	ea000017 	b	6800bdc <write_cluster_chain+0x164>
 6800b7c:	e3a01003 	mov	r1, #3, 0
 6800b80:	e1a00004 	mov	r0, r4
 6800b84:	ebffff50 	bl	68008cc <find_free_cluster>
 6800b88:	e1a08000 	mov	r8, r0
 6800b8c:	e1a01000 	mov	r1, r0
 6800b90:	e1a00004 	mov	r0, r4
 6800b94:	ebfffefa 	bl	6800784 <cluster_to_lba>
 6800b98:	e1a01000 	mov	r1, r0
 6800b9c:	e594200c 	ldr	r2, [r4, #12]
 6800ba0:	e1a00007 	mov	r0, r7
 6800ba4:	eb00044b 	bl	6801cd8 <pi_sd_write>
 6800ba8:	e594300c 	ldr	r3, [r4, #12]
 6800bac:	e0455483 	sub	r5, r5, r3, lsl #9
 6800bb0:	e0877483 	add	r7, r7, r3, lsl #9
 6800bb4:	e5943014 	ldr	r3, [r4, #20]
 6800bb8:	e783810a 	str	r8, [r3, sl, lsl #2]
 6800bbc:	e1a02008 	mov	r2, r8
 6800bc0:	e1a0100a 	mov	r1, sl
 6800bc4:	e59f0118 	ldr	r0, [pc, #280]	; 6800ce4 <write_cluster_chain+0x26c>
 6800bc8:	eb0016b1 	bl	6806694 <printk>
 6800bcc:	e1a01005 	mov	r1, r5
 6800bd0:	e59f0110 	ldr	r0, [pc, #272]	; 6800ce8 <write_cluster_chain+0x270>
 6800bd4:	eb0016ae 	bl	6806694 <printk>
 6800bd8:	e1a0a008 	mov	sl, r8
 6800bdc:	e3550000 	cmp	r5, #0, 0
 6800be0:	caffffe5 	bgt	6800b7c <write_cluster_chain+0x104>
 6800be4:	e5943014 	ldr	r3, [r4, #20]
 6800be8:	e3e02000 	mvn	r2, #0, 0
 6800bec:	e783210a 	str	r2, [r3, sl, lsl #2]
 6800bf0:	eaffffd5 	b	6800b4c <write_cluster_chain+0xd4>
 6800bf4:	e59f00f0 	ldr	r0, [pc, #240]	; 6800cec <write_cluster_chain+0x274>
 6800bf8:	eb0016a5 	bl	6806694 <printk>
 6800bfc:	e35a0000 	cmp	sl, #0, 0
 6800c00:	1a000013 	bne	6800c54 <write_cluster_chain+0x1dc>
 6800c04:	e5943014 	ldr	r3, [r4, #20]
 6800c08:	e7936106 	ldr	r6, [r3, r6, lsl #2]
 6800c0c:	e3c6620f 	bic	r6, r6, #-268435456	; 0xf0000000
 6800c10:	e1a00006 	mov	r0, r6
 6800c14:	eb0008b3 	bl	6802ee8 <fat32_fat_entry_type>
 6800c18:	e370028f 	cmn	r0, #-268435448	; 0xf0000008
 6800c1c:	0a000017 	beq	6800c80 <write_cluster_chain+0x208>
 6800c20:	e3c6520f 	bic	r5, r6, #-268435456	; 0xf0000000
 6800c24:	e5943014 	ldr	r3, [r4, #20]
 6800c28:	e7936105 	ldr	r6, [r3, r5, lsl #2]
 6800c2c:	e5943018 	ldr	r3, [r4, #24]
 6800c30:	e1530005 	cmp	r3, r5
 6800c34:	9a000009 	bls	6800c60 <write_cluster_chain+0x1e8>
 6800c38:	e1a01005 	mov	r1, r5
 6800c3c:	e59f00ac 	ldr	r0, [pc, #172]	; 6800cf0 <write_cluster_chain+0x278>
 6800c40:	eb001693 	bl	6806694 <printk>
 6800c44:	e5943014 	ldr	r3, [r4, #20]
 6800c48:	e3a02000 	mov	r2, #0, 0
 6800c4c:	e7832105 	str	r2, [r3, r5, lsl #2]
 6800c50:	eaffffee 	b	6800c10 <write_cluster_chain+0x198>
 6800c54:	e5943014 	ldr	r3, [r4, #20]
 6800c58:	e793610a 	ldr	r6, [r3, sl, lsl #2]
 6800c5c:	eaffffea 	b	6800c0c <write_cluster_chain+0x194>
 6800c60:	e59f308c 	ldr	r3, [pc, #140]	; 6800cf4 <write_cluster_chain+0x27c>
 6800c64:	e58d3000 	str	r3, [sp]
 6800c68:	e59f3088 	ldr	r3, [pc, #136]	; 6800cf8 <write_cluster_chain+0x280>
 6800c6c:	e59f2088 	ldr	r2, [pc, #136]	; 6800cfc <write_cluster_chain+0x284>
 6800c70:	e59f1088 	ldr	r1, [pc, #136]	; 6800d00 <write_cluster_chain+0x288>
 6800c74:	e59f0088 	ldr	r0, [pc, #136]	; 6800d04 <write_cluster_chain+0x28c>
 6800c78:	eb001685 	bl	6806694 <printk>
 6800c7c:	eb0017db 	bl	6806bf0 <clean_reboot>
 6800c80:	e35a0000 	cmp	sl, #0, 0
 6800c84:	15943014 	ldrne	r3, [r4, #20]
 6800c88:	13e02000 	mvnne	r2, #0, 0
 6800c8c:	1783210a 	strne	r2, [r3, sl, lsl #2]
 6800c90:	e1a0100a 	mov	r1, sl
 6800c94:	e59f006c 	ldr	r0, [pc, #108]	; 6800d08 <write_cluster_chain+0x290>
 6800c98:	eb00167d 	bl	6806694 <printk>
 6800c9c:	eaffffaf 	b	6800b60 <write_cluster_chain+0xe8>
 6800ca0:	e5943014 	ldr	r3, [r4, #20]
 6800ca4:	e793010a 	ldr	r0, [r3, sl, lsl #2]
 6800ca8:	eb00088e 	bl	6802ee8 <fat32_fat_entry_type>
 6800cac:	e370028f 	cmn	r0, #-268435448	; 0xf0000008
 6800cb0:	0affffac 	beq	6800b68 <write_cluster_chain+0xf0>
 6800cb4:	e59f3050 	ldr	r3, [pc, #80]	; 6800d0c <write_cluster_chain+0x294>
 6800cb8:	e58d3000 	str	r3, [sp]
 6800cbc:	e59f304c 	ldr	r3, [pc, #76]	; 6800d10 <write_cluster_chain+0x298>
 6800cc0:	e59f2034 	ldr	r2, [pc, #52]	; 6800cfc <write_cluster_chain+0x284>
 6800cc4:	e59f1034 	ldr	r1, [pc, #52]	; 6800d00 <write_cluster_chain+0x288>
 6800cc8:	e59f0034 	ldr	r0, [pc, #52]	; 6800d04 <write_cluster_chain+0x28c>
 6800ccc:	eb001670 	bl	6806694 <printk>
 6800cd0:	eb0017c6 	bl	6806bf0 <clean_reboot>
 6800cd4:	06807620 	.word	0x06807620
 6800cd8:	06807640 	.word	0x06807640
 6800cdc:	06807678 	.word	0x06807678
 6800ce0:	0680768c 	.word	0x0680768c
 6800ce4:	06807698 	.word	0x06807698
 6800ce8:	068076c0 	.word	0x068076c0
 6800cec:	068076d0 	.word	0x068076d0
 6800cf0:	068076f8 	.word	0x068076f8
 6800cf4:	068076dc 	.word	0x068076dc
 6800cf8:	00000192 	.word	0x00000192
 6800cfc:	06807b3c 	.word	0x06807b3c
 6800d00:	068075d4 	.word	0x068075d4
 6800d04:	0680745c 	.word	0x0680745c
 6800d08:	0680770c 	.word	0x0680770c
 6800d0c:	06807720 	.word	0x06807720
 6800d10:	000001a2 	.word	0x000001a2

06800d14 <write_fat_to_disk>:
 6800d14:	e92d4010 	push	{r4, lr}
 6800d18:	e59f1028 	ldr	r1, [pc, #40]	; 6800d48 <write_fat_to_disk+0x34>
 6800d1c:	e5d13024 	ldrb	r3, [r1, #36]	; 0x24
 6800d20:	e5d12025 	ldrb	r2, [r1, #37]	; 0x25
 6800d24:	e1833402 	orr	r3, r3, r2, lsl #8
 6800d28:	e5d12026 	ldrb	r2, [r1, #38]	; 0x26
 6800d2c:	e1833802 	orr	r3, r3, r2, lsl #16
 6800d30:	e5d12027 	ldrb	r2, [r1, #39]	; 0x27
 6800d34:	e1832c02 	orr	r2, r3, r2, lsl #24
 6800d38:	e5901004 	ldr	r1, [r0, #4]
 6800d3c:	e5900014 	ldr	r0, [r0, #20]
 6800d40:	eb0003e4 	bl	6801cd8 <pi_sd_write>
 6800d44:	e8bd8010 	pop	{r4, pc}
 6800d48:	0680a704 	.word	0x0680a704

06800d4c <fat32_mk>:
 6800d4c:	e92d47f0 	push	{r4, r5, r6, r7, r8, r9, sl, lr}
 6800d50:	e24ddf82 	sub	sp, sp, #520	; 0x208
 6800d54:	e59f3190 	ldr	r3, [pc, #400]	; 6800eec <fat32_mk+0x1a0>
 6800d58:	e5933000 	ldr	r3, [r3]
 6800d5c:	e3530000 	cmp	r3, #0, 0
 6800d60:	1a000051 	bne	6800eac <fat32_mk+0x160>
 6800d64:	e1a05000 	mov	r5, r0
 6800d68:	e1a04001 	mov	r4, r1
 6800d6c:	e5d13008 	ldrb	r3, [r1, #8]
 6800d70:	e5d11009 	ldrb	r1, [r1, #9]
 6800d74:	e1833401 	orr	r3, r3, r1, lsl #8
 6800d78:	e5d4100a 	ldrb	r1, [r4, #10]
 6800d7c:	e1833801 	orr	r3, r3, r1, lsl #16
 6800d80:	e5d4100b 	ldrb	r1, [r4, #11]
 6800d84:	e59f6164 	ldr	r6, [pc, #356]	; 6800ef0 <fat32_mk+0x1a4>
 6800d88:	e3a02001 	mov	r2, #1, 0
 6800d8c:	e1831c01 	orr	r1, r3, r1, lsl #24
 6800d90:	e1a00006 	mov	r0, r6
 6800d94:	eb000356 	bl	6801af4 <pi_sd_read>
 6800d98:	e1a00006 	mov	r0, r6
 6800d9c:	eb000683 	bl	68027b0 <fat32_volume_id_check>
 6800da0:	e5d63030 	ldrb	r3, [r6, #48]	; 0x30
 6800da4:	e5d62031 	ldrb	r2, [r6, #49]	; 0x31
 6800da8:	e1833402 	orr	r3, r3, r2, lsl #8
 6800dac:	e3530001 	cmp	r3, #1, 0
 6800db0:	1a000045 	bne	6800ecc <fat32_mk+0x180>
 6800db4:	e5d41008 	ldrb	r1, [r4, #8]
 6800db8:	e5d43009 	ldrb	r3, [r4, #9]
 6800dbc:	e1811403 	orr	r1, r1, r3, lsl #8
 6800dc0:	e5d4300a 	ldrb	r3, [r4, #10]
 6800dc4:	e1811803 	orr	r1, r1, r3, lsl #16
 6800dc8:	e5d4300b 	ldrb	r3, [r4, #11]
 6800dcc:	e1811c03 	orr	r1, r1, r3, lsl #24
 6800dd0:	e3a02001 	mov	r2, #1, 0
 6800dd4:	e0811002 	add	r1, r1, r2
 6800dd8:	e28d0008 	add	r0, sp, #8, 0
 6800ddc:	eb000344 	bl	6801af4 <pi_sd_read>
 6800de0:	e28d0008 	add	r0, sp, #8, 0
 6800de4:	eb0007e8 	bl	6802d8c <fat32_fsinfo_check>
 6800de8:	e5d43008 	ldrb	r3, [r4, #8]
 6800dec:	e5d42009 	ldrb	r2, [r4, #9]
 6800df0:	e1833402 	orr	r3, r3, r2, lsl #8
 6800df4:	e5d4200a 	ldrb	r2, [r4, #10]
 6800df8:	e1833802 	orr	r3, r3, r2, lsl #16
 6800dfc:	e5d4400b 	ldrb	r4, [r4, #11]
 6800e00:	e1834c04 	orr	r4, r3, r4, lsl #24
 6800e04:	e59f30e4 	ldr	r3, [pc, #228]	; 6800ef0 <fat32_mk+0x1a4>
 6800e08:	e5d3700e 	ldrb	r7, [r3, #14]
 6800e0c:	e5d3200f 	ldrb	r2, [r3, #15]
 6800e10:	e1877402 	orr	r7, r7, r2, lsl #8
 6800e14:	e0877004 	add	r7, r7, r4
 6800e18:	e5d38010 	ldrb	r8, [r3, #16]
 6800e1c:	e5d31024 	ldrb	r1, [r3, #36]	; 0x24
 6800e20:	e5d32025 	ldrb	r2, [r3, #37]	; 0x25
 6800e24:	e1811402 	orr	r1, r1, r2, lsl #8
 6800e28:	e5d32026 	ldrb	r2, [r3, #38]	; 0x26
 6800e2c:	e1811802 	orr	r1, r1, r2, lsl #16
 6800e30:	e5d32027 	ldrb	r2, [r3, #39]	; 0x27
 6800e34:	e1811c02 	orr	r1, r1, r2, lsl #24
 6800e38:	e0287891 	mla	r8, r1, r8, r7
 6800e3c:	e5d3900d 	ldrb	r9, [r3, #13]
 6800e40:	e5d3602c 	ldrb	r6, [r3, #44]	; 0x2c
 6800e44:	e5d3202d 	ldrb	r2, [r3, #45]	; 0x2d
 6800e48:	e1866402 	orr	r6, r6, r2, lsl #8
 6800e4c:	e5d3202e 	ldrb	r2, [r3, #46]	; 0x2e
 6800e50:	e1866802 	orr	r6, r6, r2, lsl #16
 6800e54:	e5d3202f 	ldrb	r2, [r3, #47]	; 0x2f
 6800e58:	e1866c02 	orr	r6, r6, r2, lsl #24
 6800e5c:	e5d3a00b 	ldrb	sl, [r3, #11]
 6800e60:	e5d3300c 	ldrb	r3, [r3, #12]
 6800e64:	e18aa403 	orr	sl, sl, r3, lsl #8
 6800e68:	e00a019a 	mul	sl, sl, r1
 6800e6c:	e1a0a12a 	lsr	sl, sl, #2
 6800e70:	e1a00007 	mov	r0, r7
 6800e74:	eb000370 	bl	6801c3c <pi_sec_read>
 6800e78:	e5854000 	str	r4, [r5]
 6800e7c:	e5857004 	str	r7, [r5, #4]
 6800e80:	e5858008 	str	r8, [r5, #8]
 6800e84:	e585900c 	str	r9, [r5, #12]
 6800e88:	e5856010 	str	r6, [r5, #16]
 6800e8c:	e5850014 	str	r0, [r5, #20]
 6800e90:	e585a018 	str	sl, [r5, #24]
 6800e94:	e59f3050 	ldr	r3, [pc, #80]	; 6800eec <fat32_mk+0x1a0>
 6800e98:	e3a02001 	mov	r2, #1, 0
 6800e9c:	e5832000 	str	r2, [r3]
 6800ea0:	e1a00005 	mov	r0, r5
 6800ea4:	e28ddf82 	add	sp, sp, #520	; 0x208
 6800ea8:	e8bd87f0 	pop	{r4, r5, r6, r7, r8, r9, sl, pc}
 6800eac:	e59f3040 	ldr	r3, [pc, #64]	; 6800ef4 <fat32_mk+0x1a8>
 6800eb0:	e58d3000 	str	r3, [sp]
 6800eb4:	e3a0300f 	mov	r3, #15, 0
 6800eb8:	e59f2038 	ldr	r2, [pc, #56]	; 6800ef8 <fat32_mk+0x1ac>
 6800ebc:	e59f1038 	ldr	r1, [pc, #56]	; 6800efc <fat32_mk+0x1b0>
 6800ec0:	e59f0038 	ldr	r0, [pc, #56]	; 6800f00 <fat32_mk+0x1b4>
 6800ec4:	eb0015f2 	bl	6806694 <printk>
 6800ec8:	eb001748 	bl	6806bf0 <clean_reboot>
 6800ecc:	e59f3030 	ldr	r3, [pc, #48]	; 6800f04 <fat32_mk+0x1b8>
 6800ed0:	e58d3000 	str	r3, [sp]
 6800ed4:	e3a03019 	mov	r3, #25, 0
 6800ed8:	e59f2018 	ldr	r2, [pc, #24]	; 6800ef8 <fat32_mk+0x1ac>
 6800edc:	e59f1018 	ldr	r1, [pc, #24]	; 6800efc <fat32_mk+0x1b0>
 6800ee0:	e59f0020 	ldr	r0, [pc, #32]	; 6800f08 <fat32_mk+0x1bc>
 6800ee4:	eb0015ea 	bl	6806694 <printk>
 6800ee8:	eb001740 	bl	6806bf0 <clean_reboot>
 6800eec:	0680a3c0 	.word	0x0680a3c0
 6800ef0:	0680a704 	.word	0x0680a704
 6800ef4:	068077b4 	.word	0x068077b4
 6800ef8:	06807b50 	.word	0x06807b50
 6800efc:	068075d4 	.word	0x068075d4
 6800f00:	06807760 	.word	0x06807760
 6800f04:	068077bc 	.word	0x068077bc
 6800f08:	0680745c 	.word	0x0680745c

06800f0c <fat32_get_root>:
 6800f0c:	e59f3070 	ldr	r3, [pc, #112]	; 6800f84 <fat32_get_root+0x78>
 6800f10:	e5933000 	ldr	r3, [r3]
 6800f14:	e3530000 	cmp	r3, #0, 0
 6800f18:	0a00000f 	beq	6800f5c <fat32_get_root+0x50>
 6800f1c:	e5911010 	ldr	r1, [r1, #16]
 6800f20:	e3a03000 	mov	r3, #0, 0
 6800f24:	e1a02000 	mov	r2, r0
 6800f28:	e4823004 	str	r3, [r2], #4
 6800f2c:	e5803004 	str	r3, [r0, #4]
 6800f30:	e5823004 	str	r3, [r2, #4]
 6800f34:	e5823008 	str	r3, [r2, #8]
 6800f38:	e5803010 	str	r3, [r0, #16]
 6800f3c:	e5803014 	str	r3, [r0, #20]
 6800f40:	e5803018 	str	r3, [r0, #24]
 6800f44:	e580301c 	str	r3, [r0, #28]
 6800f48:	e5801020 	str	r1, [r0, #32]
 6800f4c:	e3a02001 	mov	r2, #1, 0
 6800f50:	e5802024 	str	r2, [r0, #36]	; 0x24
 6800f54:	e5803028 	str	r3, [r0, #40]	; 0x28
 6800f58:	e12fff1e 	bx	lr
 6800f5c:	e52de004 	push	{lr}		; (str lr, [sp, #-4]!)
 6800f60:	e24dd00c 	sub	sp, sp, #12, 0
 6800f64:	e59f301c 	ldr	r3, [pc, #28]	; 6800f88 <fat32_get_root+0x7c>
 6800f68:	e58d3000 	str	r3, [sp]
 6800f6c:	e3a0305b 	mov	r3, #91, 0	; 0x5b
 6800f70:	e59f2014 	ldr	r2, [pc, #20]	; 6800f8c <fat32_get_root+0x80>
 6800f74:	e59f1014 	ldr	r1, [pc, #20]	; 6800f90 <fat32_get_root+0x84>
 6800f78:	e59f0014 	ldr	r0, [pc, #20]	; 6800f94 <fat32_get_root+0x88>
 6800f7c:	eb0015c4 	bl	6806694 <printk>
 6800f80:	eb00171a 	bl	6806bf0 <clean_reboot>
 6800f84:	0680a3c0 	.word	0x0680a3c0
 6800f88:	06807820 	.word	0x06807820
 6800f8c:	06807b5c 	.word	0x06807b5c
 6800f90:	068075d4 	.word	0x068075d4
 6800f94:	068077dc 	.word	0x068077dc

06800f98 <fat32_readdir>:
 6800f98:	e92d47f0 	push	{r4, r5, r6, r7, r8, r9, sl, lr}
 6800f9c:	e24dd040 	sub	sp, sp, #64, 0	; 0x40
 6800fa0:	e1a03002 	mov	r3, r2
 6800fa4:	e59f212c 	ldr	r2, [pc, #300]	; 68010d8 <fat32_readdir+0x140>
 6800fa8:	e5922000 	ldr	r2, [r2]
 6800fac:	e3520000 	cmp	r2, #0, 0
 6800fb0:	0a000011 	beq	6800ffc <fat32_readdir+0x64>
 6800fb4:	e1a09000 	mov	r9, r0
 6800fb8:	e1a00001 	mov	r0, r1
 6800fbc:	e5932024 	ldr	r2, [r3, #36]	; 0x24
 6800fc0:	e3520000 	cmp	r2, #0, 0
 6800fc4:	0a000014 	beq	680101c <fat32_readdir+0x84>
 6800fc8:	e28d203c 	add	r2, sp, #60, 0	; 0x3c
 6800fcc:	e5931020 	ldr	r1, [r3, #32]
 6800fd0:	ebfffe27 	bl	6800874 <get_dirents>
 6800fd4:	e1a06000 	mov	r6, r0
 6800fd8:	e59d003c 	ldr	r0, [sp, #60]	; 0x3c
 6800fdc:	e0803100 	add	r3, r0, r0, lsl #2
 6800fe0:	e0800083 	add	r0, r0, r3, lsl #1
 6800fe4:	e1a00100 	lsl	r0, r0, #2
 6800fe8:	eb0013d2 	bl	6805f38 <kmalloc>
 6800fec:	e1a08000 	mov	r8, r0
 6800ff0:	e3a05000 	mov	r5, #0, 0
 6800ff4:	e1a07005 	mov	r7, r5
 6800ff8:	ea000010 	b	6801040 <fat32_readdir+0xa8>
 6800ffc:	e59f30d8 	ldr	r3, [pc, #216]	; 68010dc <fat32_readdir+0x144>
 6801000:	e58d3000 	str	r3, [sp]
 6801004:	e3a030b0 	mov	r3, #176, 0	; 0xb0
 6801008:	e59f20d0 	ldr	r2, [pc, #208]	; 68010e0 <fat32_readdir+0x148>
 680100c:	e59f10d0 	ldr	r1, [pc, #208]	; 68010e4 <fat32_readdir+0x14c>
 6801010:	e59f00d0 	ldr	r0, [pc, #208]	; 68010e8 <fat32_readdir+0x150>
 6801014:	eb00159e 	bl	6806694 <printk>
 6801018:	eb0016f4 	bl	6806bf0 <clean_reboot>
 680101c:	e59f30c8 	ldr	r3, [pc, #200]	; 68010ec <fat32_readdir+0x154>
 6801020:	e58d3000 	str	r3, [sp]
 6801024:	e3a030b1 	mov	r3, #177, 0	; 0xb1
 6801028:	e59f20b0 	ldr	r2, [pc, #176]	; 68010e0 <fat32_readdir+0x148>
 680102c:	e59f10b0 	ldr	r1, [pc, #176]	; 68010e4 <fat32_readdir+0x14c>
 6801030:	e59f00b8 	ldr	r0, [pc, #184]	; 68010f0 <fat32_readdir+0x158>
 6801034:	eb001596 	bl	6806694 <printk>
 6801038:	eb0016ec 	bl	6806bf0 <clean_reboot>
 680103c:	e2855001 	add	r5, r5, #1, 0
 6801040:	e59d303c 	ldr	r3, [sp, #60]	; 0x3c
 6801044:	e1530005 	cmp	r3, r5
 6801048:	9a00001d 	bls	68010c4 <fat32_readdir+0x12c>
 680104c:	e1a04285 	lsl	r4, r5, #5
 6801050:	e086a285 	add	sl, r6, r5, lsl #5
 6801054:	e5da300b 	ldrb	r3, [sl, #11]
 6801058:	e353000f 	cmp	r3, #15, 0
 680105c:	0afffff6 	beq	680103c <fat32_readdir+0xa4>
 6801060:	e3130008 	tst	r3, #8, 0
 6801064:	1afffff4 	bne	680103c <fat32_readdir+0xa4>
 6801068:	e1a0000a 	mov	r0, sl
 680106c:	eb0007c7 	bl	6802f90 <fat32_dirent_free>
 6801070:	e3500000 	cmp	r0, #0, 0
 6801074:	1afffff0 	bne	680103c <fat32_readdir+0xa4>
 6801078:	e7d63004 	ldrb	r3, [r6, r4]
 680107c:	e3530000 	cmp	r3, #0, 0
 6801080:	0a00000f 	beq	68010c4 <fat32_readdir+0x12c>
 6801084:	e087c107 	add	ip, r7, r7, lsl #2
 6801088:	e087c08c 	add	ip, r7, ip, lsl #1
 680108c:	e088410c 	add	r4, r8, ip, lsl #2
 6801090:	e1a0100a 	mov	r1, sl
 6801094:	e28d0008 	add	r0, sp, #8, 0
 6801098:	ebfffe28 	bl	6800940 <dirent_convert>
 680109c:	e1a0c004 	mov	ip, r4
 68010a0:	e28de008 	add	lr, sp, #8, 0
 68010a4:	e8be000f 	ldm	lr!, {r0, r1, r2, r3}
 68010a8:	e8ac000f 	stmia	ip!, {r0, r1, r2, r3}
 68010ac:	e8be000f 	ldm	lr!, {r0, r1, r2, r3}
 68010b0:	e8ac000f 	stmia	ip!, {r0, r1, r2, r3}
 68010b4:	e89e0007 	ldm	lr, {r0, r1, r2}
 68010b8:	e88c0007 	stm	ip, {r0, r1, r2}
 68010bc:	e2877001 	add	r7, r7, #1, 0
 68010c0:	eaffffdd 	b	680103c <fat32_readdir+0xa4>
 68010c4:	e5898000 	str	r8, [r9]
 68010c8:	e5897004 	str	r7, [r9, #4]
 68010cc:	e1a00009 	mov	r0, r9
 68010d0:	e28dd040 	add	sp, sp, #64, 0	; 0x40
 68010d4:	e8bd87f0 	pop	{r4, r5, r6, r7, r8, r9, sl, pc}
 68010d8:	0680a3c0 	.word	0x0680a3c0
 68010dc:	06807820 	.word	0x06807820
 68010e0:	06807b6c 	.word	0x06807b6c
 68010e4:	068075d4 	.word	0x068075d4
 68010e8:	068077dc 	.word	0x068077dc
 68010ec:	06807870 	.word	0x06807870
 68010f0:	06807828 	.word	0x06807828

068010f4 <fat32_stat>:
 68010f4:	e92d4070 	push	{r4, r5, r6, lr}
 68010f8:	e24dd040 	sub	sp, sp, #64, 0	; 0x40
 68010fc:	e59f30cc 	ldr	r3, [pc, #204]	; 68011d0 <fat32_stat+0xdc>
 6801100:	e5933000 	ldr	r3, [r3]
 6801104:	e3530000 	cmp	r3, #0, 0
 6801108:	0a00001e 	beq	6801188 <fat32_stat+0x94>
 680110c:	e1a04002 	mov	r4, r2
 6801110:	e5913024 	ldr	r3, [r1, #36]	; 0x24
 6801114:	e3530000 	cmp	r3, #0, 0
 6801118:	0a000022 	beq	68011a8 <fat32_stat+0xb4>
 680111c:	e28d203c 	add	r2, sp, #60, 0	; 0x3c
 6801120:	e5911020 	ldr	r1, [r1, #32]
 6801124:	ebfffdd2 	bl	6800874 <get_dirents>
 6801128:	e1a06000 	mov	r6, r0
 680112c:	e1a02004 	mov	r2, r4
 6801130:	e59d103c 	ldr	r1, [sp, #60]	; 0x3c
 6801134:	ebfffe30 	bl	68009fc <find_dirent_with_name>
 6801138:	e1a04000 	mov	r4, r0
 680113c:	e3700001 	cmn	r0, #1, 0
 6801140:	0a000020 	beq	68011c8 <fat32_stat+0xd4>
 6801144:	e3a0002c 	mov	r0, #44, 0	; 0x2c
 6801148:	eb00137a 	bl	6805f38 <kmalloc>
 680114c:	e1a05000 	mov	r5, r0
 6801150:	e0861284 	add	r1, r6, r4, lsl #5
 6801154:	e28d0008 	add	r0, sp, #8, 0
 6801158:	ebfffdf8 	bl	6800940 <dirent_convert>
 680115c:	e1a0e005 	mov	lr, r5
 6801160:	e28dc008 	add	ip, sp, #8, 0
 6801164:	e8bc000f 	ldm	ip!, {r0, r1, r2, r3}
 6801168:	e8ae000f 	stmia	lr!, {r0, r1, r2, r3}
 680116c:	e8bc000f 	ldm	ip!, {r0, r1, r2, r3}
 6801170:	e8ae000f 	stmia	lr!, {r0, r1, r2, r3}
 6801174:	e89c0007 	ldm	ip, {r0, r1, r2}
 6801178:	e88e0007 	stm	lr, {r0, r1, r2}
 680117c:	e1a00005 	mov	r0, r5
 6801180:	e28dd040 	add	sp, sp, #64, 0	; 0x40
 6801184:	e8bd8070 	pop	{r4, r5, r6, pc}
 6801188:	e59f3044 	ldr	r3, [pc, #68]	; 68011d4 <fat32_stat+0xe0>
 680118c:	e58d3000 	str	r3, [sp]
 6801190:	e3a030ed 	mov	r3, #237, 0	; 0xed
 6801194:	e59f203c 	ldr	r2, [pc, #60]	; 68011d8 <fat32_stat+0xe4>
 6801198:	e59f103c 	ldr	r1, [pc, #60]	; 68011dc <fat32_stat+0xe8>
 680119c:	e59f003c 	ldr	r0, [pc, #60]	; 68011e0 <fat32_stat+0xec>
 68011a0:	eb00153b 	bl	6806694 <printk>
 68011a4:	eb001691 	bl	6806bf0 <clean_reboot>
 68011a8:	e59f3034 	ldr	r3, [pc, #52]	; 68011e4 <fat32_stat+0xf0>
 68011ac:	e58d3000 	str	r3, [sp]
 68011b0:	e3a030ee 	mov	r3, #238, 0	; 0xee
 68011b4:	e59f201c 	ldr	r2, [pc, #28]	; 68011d8 <fat32_stat+0xe4>
 68011b8:	e59f101c 	ldr	r1, [pc, #28]	; 68011dc <fat32_stat+0xe8>
 68011bc:	e59f0024 	ldr	r0, [pc, #36]	; 68011e8 <fat32_stat+0xf4>
 68011c0:	eb001533 	bl	6806694 <printk>
 68011c4:	eb001689 	bl	6806bf0 <clean_reboot>
 68011c8:	e3a05000 	mov	r5, #0, 0
 68011cc:	eaffffea 	b	680117c <fat32_stat+0x88>
 68011d0:	0680a3c0 	.word	0x0680a3c0
 68011d4:	06807820 	.word	0x06807820
 68011d8:	06807b7c 	.word	0x06807b7c
 68011dc:	068075d4 	.word	0x068075d4
 68011e0:	068077dc 	.word	0x068077dc
 68011e4:	068078d4 	.word	0x068078d4
 68011e8:	06807884 	.word	0x06807884

068011ec <fat32_read>:
 68011ec:	e92d40f0 	push	{r4, r5, r6, r7, lr}
 68011f0:	e24dd00c 	sub	sp, sp, #12, 0
 68011f4:	e59f30b4 	ldr	r3, [pc, #180]	; 68012b0 <fat32_read+0xc4>
 68011f8:	e5933000 	ldr	r3, [r3]
 68011fc:	e3530000 	cmp	r3, #0, 0
 6801200:	0a00001a 	beq	6801270 <fat32_read+0x84>
 6801204:	e1a04000 	mov	r4, r0
 6801208:	e5913024 	ldr	r3, [r1, #36]	; 0x24
 680120c:	e3530000 	cmp	r3, #0, 0
 6801210:	0a00001e 	beq	6801290 <fat32_read+0xa4>
 6801214:	ebffffb6 	bl	68010f4 <fat32_stat>
 6801218:	e1a06000 	mov	r6, r0
 680121c:	e5901020 	ldr	r1, [r0, #32]
 6801220:	e1a00004 	mov	r0, r4
 6801224:	ebfffd6b 	bl	68007d8 <get_cluster_chain_length>
 6801228:	e594500c 	ldr	r5, [r4, #12]
 680122c:	e0050590 	mul	r5, r0, r5
 6801230:	e1a05485 	lsl	r5, r5, #9
 6801234:	e1a00005 	mov	r0, r5
 6801238:	eb00133e 	bl	6805f38 <kmalloc>
 680123c:	e1a07000 	mov	r7, r0
 6801240:	e1a02000 	mov	r2, r0
 6801244:	e5961020 	ldr	r1, [r6, #32]
 6801248:	e1a00004 	mov	r0, r4
 680124c:	ebfffd72 	bl	680081c <read_cluster_chain>
 6801250:	e3a0000c 	mov	r0, #12, 0
 6801254:	eb001337 	bl	6805f38 <kmalloc>
 6801258:	e5962028 	ldr	r2, [r6, #40]	; 0x28
 680125c:	e5807000 	str	r7, [r0]
 6801260:	e5805004 	str	r5, [r0, #4]
 6801264:	e5802008 	str	r2, [r0, #8]
 6801268:	e28dd00c 	add	sp, sp, #12, 0
 680126c:	e8bd80f0 	pop	{r4, r5, r6, r7, pc}
 6801270:	e59f303c 	ldr	r3, [pc, #60]	; 68012b4 <fat32_read+0xc8>
 6801274:	e58d3000 	str	r3, [sp]
 6801278:	e59f3038 	ldr	r3, [pc, #56]	; 68012b8 <fat32_read+0xcc>
 680127c:	e59f2038 	ldr	r2, [pc, #56]	; 68012bc <fat32_read+0xd0>
 6801280:	e59f1038 	ldr	r1, [pc, #56]	; 68012c0 <fat32_read+0xd4>
 6801284:	e59f0038 	ldr	r0, [pc, #56]	; 68012c4 <fat32_read+0xd8>
 6801288:	eb001501 	bl	6806694 <printk>
 680128c:	eb001657 	bl	6806bf0 <clean_reboot>
 6801290:	e59f3030 	ldr	r3, [pc, #48]	; 68012c8 <fat32_read+0xdc>
 6801294:	e58d3000 	str	r3, [sp]
 6801298:	e3a03f42 	mov	r3, #264	; 0x108
 680129c:	e59f2018 	ldr	r2, [pc, #24]	; 68012bc <fat32_read+0xd0>
 68012a0:	e59f1018 	ldr	r1, [pc, #24]	; 68012c0 <fat32_read+0xd4>
 68012a4:	e59f0020 	ldr	r0, [pc, #32]	; 68012cc <fat32_read+0xe0>
 68012a8:	eb0014f9 	bl	6806694 <printk>
 68012ac:	eb00164f 	bl	6806bf0 <clean_reboot>
 68012b0:	0680a3c0 	.word	0x0680a3c0
 68012b4:	06807820 	.word	0x06807820
 68012b8:	00000107 	.word	0x00000107
 68012bc:	06807b88 	.word	0x06807b88
 68012c0:	068075d4 	.word	0x068075d4
 68012c4:	068077dc 	.word	0x068077dc
 68012c8:	068078d4 	.word	0x068078d4
 68012cc:	068078e8 	.word	0x068078e8

068012d0 <fat32_rename>:
 68012d0:	e92d41f0 	push	{r4, r5, r6, r7, r8, lr}
 68012d4:	e24dd010 	sub	sp, sp, #16, 0
 68012d8:	e1a04003 	mov	r4, r3
 68012dc:	e59f30bc 	ldr	r3, [pc, #188]	; 68013a0 <fat32_rename+0xd0>
 68012e0:	e5933000 	ldr	r3, [r3]
 68012e4:	e3530000 	cmp	r3, #0, 0
 68012e8:	0a000008 	beq	6801310 <fat32_rename+0x40>
 68012ec:	e1a05000 	mov	r5, r0
 68012f0:	e1a06001 	mov	r6, r1
 68012f4:	e1a07002 	mov	r7, r2
 68012f8:	e1a00004 	mov	r0, r4
 68012fc:	eb0007ab 	bl	68031b0 <fat32_is_valid_name>
 6801300:	e3500000 	cmp	r0, #0, 0
 6801304:	1a000009 	bne	6801330 <fat32_rename+0x60>
 6801308:	e28dd010 	add	sp, sp, #16, 0
 680130c:	e8bd81f0 	pop	{r4, r5, r6, r7, r8, pc}
 6801310:	e59f308c 	ldr	r3, [pc, #140]	; 68013a4 <fat32_rename+0xd4>
 6801314:	e58d3000 	str	r3, [sp]
 6801318:	e59f3088 	ldr	r3, [pc, #136]	; 68013a8 <fat32_rename+0xd8>
 680131c:	e59f2088 	ldr	r2, [pc, #136]	; 68013ac <fat32_rename+0xdc>
 6801320:	e59f1088 	ldr	r1, [pc, #136]	; 68013b0 <fat32_rename+0xe0>
 6801324:	e59f0088 	ldr	r0, [pc, #136]	; 68013b4 <fat32_rename+0xe4>
 6801328:	eb0014d9 	bl	6806694 <printk>
 680132c:	eb00162f 	bl	6806bf0 <clean_reboot>
 6801330:	e28d200c 	add	r2, sp, #12, 0
 6801334:	e5961020 	ldr	r1, [r6, #32]
 6801338:	e1a00005 	mov	r0, r5
 680133c:	ebfffd4c 	bl	6800874 <get_dirents>
 6801340:	e1a08000 	mov	r8, r0
 6801344:	e1a02007 	mov	r2, r7
 6801348:	e59d100c 	ldr	r1, [sp, #12]
 680134c:	ebfffdaa 	bl	68009fc <find_dirent_with_name>
 6801350:	e3700001 	cmn	r0, #1, 0
 6801354:	0a00000a 	beq	6801384 <fat32_rename+0xb4>
 6801358:	e1a01004 	mov	r1, r4
 680135c:	e0880280 	add	r0, r8, r0, lsl #5
 6801360:	eb0007d6 	bl	68032c0 <fat32_dirent_set_name>
 6801364:	e59d300c 	ldr	r3, [sp, #12]
 6801368:	e1a03283 	lsl	r3, r3, #5
 680136c:	e1a02008 	mov	r2, r8
 6801370:	e5961020 	ldr	r1, [r6, #32]
 6801374:	e1a00005 	mov	r0, r5
 6801378:	ebfffdbe 	bl	6800a78 <write_cluster_chain>
 680137c:	e3a00001 	mov	r0, #1, 0
 6801380:	eaffffe0 	b	6801308 <fat32_rename+0x38>
 6801384:	e59f1020 	ldr	r1, [pc, #32]	; 68013ac <fat32_rename+0xdc>
 6801388:	e59f0028 	ldr	r0, [pc, #40]	; 68013b8 <fat32_rename+0xe8>
 680138c:	eb0014c0 	bl	6806694 <printk>
 6801390:	e59f0024 	ldr	r0, [pc, #36]	; 68013bc <fat32_rename+0xec>
 6801394:	eb0014be 	bl	6806694 <printk>
 6801398:	e3a00000 	mov	r0, #0, 0
 680139c:	eaffffd9 	b	6801308 <fat32_rename+0x38>
 68013a0:	0680a3c0 	.word	0x0680a3c0
 68013a4:	06807820 	.word	0x06807820
 68013a8:	000001ad 	.word	0x000001ad
 68013ac:	06807b94 	.word	0x06807b94
 68013b0:	068075d4 	.word	0x068075d4
 68013b4:	068077dc 	.word	0x068077dc
 68013b8:	06807938 	.word	0x06807938
 68013bc:	06807944 	.word	0x06807944

068013c0 <fat32_create>:
 68013c0:	e92d43f0 	push	{r4, r5, r6, r7, r8, r9, lr}
 68013c4:	e24dd044 	sub	sp, sp, #68, 0	; 0x44
 68013c8:	e1a09003 	mov	r9, r3
 68013cc:	e59f3190 	ldr	r3, [pc, #400]	; 6801564 <fat32_create+0x1a4>
 68013d0:	e5933000 	ldr	r3, [r3]
 68013d4:	e3530000 	cmp	r3, #0, 0
 68013d8:	0a00001a 	beq	6801448 <fat32_create+0x88>
 68013dc:	e1a07000 	mov	r7, r0
 68013e0:	e1a08001 	mov	r8, r1
 68013e4:	e1a06002 	mov	r6, r2
 68013e8:	e1a00002 	mov	r0, r2
 68013ec:	eb00076f 	bl	68031b0 <fat32_is_valid_name>
 68013f0:	e3500000 	cmp	r0, #0, 0
 68013f4:	0a000058 	beq	680155c <fat32_create+0x19c>
 68013f8:	e28d203c 	add	r2, sp, #60, 0	; 0x3c
 68013fc:	e5981020 	ldr	r1, [r8, #32]
 6801400:	e1a00007 	mov	r0, r7
 6801404:	ebfffd1a 	bl	6800874 <get_dirents>
 6801408:	e1a05000 	mov	r5, r0
 680140c:	e1a02006 	mov	r2, r6
 6801410:	e59d103c 	ldr	r1, [sp, #60]	; 0x3c
 6801414:	ebfffd78 	bl	68009fc <find_dirent_with_name>
 6801418:	e3700001 	cmn	r0, #1, 0
 680141c:	1a000011 	bne	6801468 <fat32_create+0xa8>
 6801420:	e3a04000 	mov	r4, #0, 0
 6801424:	e59dc03c 	ldr	ip, [sp, #60]	; 0x3c
 6801428:	e15c0004 	cmp	ip, r4
 680142c:	9a000014 	bls	6801484 <fat32_create+0xc4>
 6801430:	e0850284 	add	r0, r5, r4, lsl #5
 6801434:	eb0006d5 	bl	6802f90 <fat32_dirent_free>
 6801438:	e3500000 	cmp	r0, #0, 0
 680143c:	1a00003b 	bne	6801530 <fat32_create+0x170>
 6801440:	e2844001 	add	r4, r4, #1, 0
 6801444:	eafffff6 	b	6801424 <fat32_create+0x64>
 6801448:	e59f3118 	ldr	r3, [pc, #280]	; 6801568 <fat32_create+0x1a8>
 680144c:	e58d3000 	str	r3, [sp]
 6801450:	e3a03f72 	mov	r3, #456	; 0x1c8
 6801454:	e59f2110 	ldr	r2, [pc, #272]	; 680156c <fat32_create+0x1ac>
 6801458:	e59f1110 	ldr	r1, [pc, #272]	; 6801570 <fat32_create+0x1b0>
 680145c:	e59f0110 	ldr	r0, [pc, #272]	; 6801574 <fat32_create+0x1b4>
 6801460:	eb00148b 	bl	6806694 <printk>
 6801464:	eb0015e1 	bl	6806bf0 <clean_reboot>
 6801468:	e59f10fc 	ldr	r1, [pc, #252]	; 680156c <fat32_create+0x1ac>
 680146c:	e59f0104 	ldr	r0, [pc, #260]	; 6801578 <fat32_create+0x1b8>
 6801470:	eb001487 	bl	6806694 <printk>
 6801474:	e59f0100 	ldr	r0, [pc, #256]	; 680157c <fat32_create+0x1bc>
 6801478:	eb001485 	bl	6806694 <printk>
 680147c:	e3a05000 	mov	r5, #0, 0
 6801480:	ea000027 	b	6801524 <fat32_create+0x164>
 6801484:	e3a03000 	mov	r3, #0, 0
 6801488:	e3530000 	cmp	r3, #0, 0
 680148c:	0a00002c 	beq	6801544 <fat32_create+0x184>
 6801490:	e0854284 	add	r4, r5, r4, lsl #5
 6801494:	e1a01006 	mov	r1, r6
 6801498:	e1a00004 	mov	r0, r4
 680149c:	eb000787 	bl	68032c0 <fat32_dirent_set_name>
 68014a0:	e3a03000 	mov	r3, #0, 0
 68014a4:	e5c43014 	strb	r3, [r4, #20]
 68014a8:	e5c43015 	strb	r3, [r4, #21]
 68014ac:	e5c4301a 	strb	r3, [r4, #26]
 68014b0:	e5c4301b 	strb	r3, [r4, #27]
 68014b4:	e5c4301c 	strb	r3, [r4, #28]
 68014b8:	e5c4301d 	strb	r3, [r4, #29]
 68014bc:	e5c4301e 	strb	r3, [r4, #30]
 68014c0:	e5c4301f 	strb	r3, [r4, #31]
 68014c4:	e1590003 	cmp	r9, r3
 68014c8:	0a00001a 	beq	6801538 <fat32_create+0x178>
 68014cc:	e3a03010 	mov	r3, #16, 0
 68014d0:	e5c4300b 	strb	r3, [r4, #11]
 68014d4:	e59d303c 	ldr	r3, [sp, #60]	; 0x3c
 68014d8:	e1a03283 	lsl	r3, r3, #5
 68014dc:	e1a02005 	mov	r2, r5
 68014e0:	e5981020 	ldr	r1, [r8, #32]
 68014e4:	e1a00007 	mov	r0, r7
 68014e8:	ebfffd62 	bl	6800a78 <write_cluster_chain>
 68014ec:	e3a0002c 	mov	r0, #44, 0	; 0x2c
 68014f0:	eb001290 	bl	6805f38 <kmalloc>
 68014f4:	e1a05000 	mov	r5, r0
 68014f8:	e1a01004 	mov	r1, r4
 68014fc:	e28d0008 	add	r0, sp, #8, 0
 6801500:	ebfffd0e 	bl	6800940 <dirent_convert>
 6801504:	e1a0e005 	mov	lr, r5
 6801508:	e28dc008 	add	ip, sp, #8, 0
 680150c:	e8bc000f 	ldm	ip!, {r0, r1, r2, r3}
 6801510:	e8ae000f 	stmia	lr!, {r0, r1, r2, r3}
 6801514:	e8bc000f 	ldm	ip!, {r0, r1, r2, r3}
 6801518:	e8ae000f 	stmia	lr!, {r0, r1, r2, r3}
 680151c:	e89c0007 	ldm	ip, {r0, r1, r2}
 6801520:	e88e0007 	stm	lr, {r0, r1, r2}
 6801524:	e1a00005 	mov	r0, r5
 6801528:	e28dd044 	add	sp, sp, #68, 0	; 0x44
 680152c:	e8bd83f0 	pop	{r4, r5, r6, r7, r8, r9, pc}
 6801530:	e3a03001 	mov	r3, #1, 0
 6801534:	eaffffd3 	b	6801488 <fat32_create+0xc8>
 6801538:	e3a03000 	mov	r3, #0, 0
 680153c:	e5c4300b 	strb	r3, [r4, #11]
 6801540:	eaffffe3 	b	68014d4 <fat32_create+0x114>
 6801544:	e59f3034 	ldr	r3, [pc, #52]	; 6801580 <fat32_create+0x1c0>
 6801548:	e59f201c 	ldr	r2, [pc, #28]	; 680156c <fat32_create+0x1ac>
 680154c:	e59f101c 	ldr	r1, [pc, #28]	; 6801570 <fat32_create+0x1b0>
 6801550:	e59f002c 	ldr	r0, [pc, #44]	; 6801584 <fat32_create+0x1c4>
 6801554:	eb00144e 	bl	6806694 <printk>
 6801558:	eb0015a4 	bl	6806bf0 <clean_reboot>
 680155c:	e3a05000 	mov	r5, #0, 0
 6801560:	eaffffef 	b	6801524 <fat32_create+0x164>
 6801564:	0680a3c0 	.word	0x0680a3c0
 6801568:	06807820 	.word	0x06807820
 680156c:	06807ba4 	.word	0x06807ba4
 6801570:	068075d4 	.word	0x068075d4
 6801574:	068077dc 	.word	0x068077dc
 6801578:	06807938 	.word	0x06807938
 680157c:	0680795c 	.word	0x0680795c
 6801580:	000001fa 	.word	0x000001fa
 6801584:	06807980 	.word	0x06807980

06801588 <fat32_delete>:
 6801588:	e92d43f0 	push	{r4, r5, r6, r7, r8, r9, lr}
 680158c:	e24dd014 	sub	sp, sp, #20, 0
 6801590:	e59f3198 	ldr	r3, [pc, #408]	; 6801730 <fat32_delete+0x1a8>
 6801594:	e5933000 	ldr	r3, [r3]
 6801598:	e3530000 	cmp	r3, #0, 0
 680159c:	0a000008 	beq	68015c4 <fat32_delete+0x3c>
 68015a0:	e1a05000 	mov	r5, r0
 68015a4:	e1a06001 	mov	r6, r1
 68015a8:	e1a04002 	mov	r4, r2
 68015ac:	e1a00002 	mov	r0, r2
 68015b0:	eb0006fe 	bl	68031b0 <fat32_is_valid_name>
 68015b4:	e3500000 	cmp	r0, #0, 0
 68015b8:	1a000009 	bne	68015e4 <fat32_delete+0x5c>
 68015bc:	e28dd014 	add	sp, sp, #20, 0
 68015c0:	e8bd83f0 	pop	{r4, r5, r6, r7, r8, r9, pc}
 68015c4:	e59f3168 	ldr	r3, [pc, #360]	; 6801734 <fat32_delete+0x1ac>
 68015c8:	e58d3000 	str	r3, [sp]
 68015cc:	e59f3164 	ldr	r3, [pc, #356]	; 6801738 <fat32_delete+0x1b0>
 68015d0:	e59f2164 	ldr	r2, [pc, #356]	; 680173c <fat32_delete+0x1b4>
 68015d4:	e59f1164 	ldr	r1, [pc, #356]	; 6801740 <fat32_delete+0x1b8>
 68015d8:	e59f0164 	ldr	r0, [pc, #356]	; 6801744 <fat32_delete+0x1bc>
 68015dc:	eb00142c 	bl	6806694 <printk>
 68015e0:	eb001582 	bl	6806bf0 <clean_reboot>
 68015e4:	e28d200c 	add	r2, sp, #12, 0
 68015e8:	e5961020 	ldr	r1, [r6, #32]
 68015ec:	e1a00005 	mov	r0, r5
 68015f0:	ebfffc9f 	bl	6800874 <get_dirents>
 68015f4:	e1a07000 	mov	r7, r0
 68015f8:	e1a02004 	mov	r2, r4
 68015fc:	e59d100c 	ldr	r1, [sp, #12]
 6801600:	ebfffcfd 	bl	68009fc <find_dirent_with_name>
 6801604:	e1a08000 	mov	r8, r0
 6801608:	e3700001 	cmn	r0, #1, 0
 680160c:	0a000024 	beq	68016a4 <fat32_delete+0x11c>
 6801610:	e59f1124 	ldr	r1, [pc, #292]	; 680173c <fat32_delete+0x1b4>
 6801614:	e59f012c 	ldr	r0, [pc, #300]	; 6801748 <fat32_delete+0x1c0>
 6801618:	eb00141d 	bl	6806694 <printk>
 680161c:	e59f0128 	ldr	r0, [pc, #296]	; 680174c <fat32_delete+0x1c4>
 6801620:	eb00141b 	bl	6806694 <printk>
 6801624:	e0879288 	add	r9, r7, r8, lsl #5
 6801628:	e5d94014 	ldrb	r4, [r9, #20]
 680162c:	e5d93015 	ldrb	r3, [r9, #21]
 6801630:	e1843403 	orr	r3, r4, r3, lsl #8
 6801634:	e5d9401a 	ldrb	r4, [r9, #26]
 6801638:	e5d9201b 	ldrb	r2, [r9, #27]
 680163c:	e1844402 	orr	r4, r4, r2, lsl #8
 6801640:	e1844803 	orr	r4, r4, r3, lsl #16
 6801644:	e1a01004 	mov	r1, r4
 6801648:	e59f0100 	ldr	r0, [pc, #256]	; 6801750 <fat32_delete+0x1c8>
 680164c:	eb001410 	bl	6806694 <printk>
 6801650:	e3e0301a 	mvn	r3, #26, 0
 6801654:	e7c73288 	strb	r3, [r7, r8, lsl #5]
 6801658:	e1a00009 	mov	r0, r9
 680165c:	eb00064b 	bl	6802f90 <fat32_dirent_free>
 6801660:	e3500000 	cmp	r0, #0, 0
 6801664:	0a000015 	beq	68016c0 <fat32_delete+0x138>
 6801668:	e3540000 	cmp	r4, #0, 0
 680166c:	0a000023 	beq	6801700 <fat32_delete+0x178>
 6801670:	e1a00004 	mov	r0, r4
 6801674:	eb00061b 	bl	6802ee8 <fat32_fat_entry_type>
 6801678:	e370028f 	cmn	r0, #-268435448	; 0xf0000008
 680167c:	0a000021 	beq	6801708 <fat32_delete+0x180>
 6801680:	e3c4320f 	bic	r3, r4, #-268435456	; 0xf0000000
 6801684:	e5952014 	ldr	r2, [r5, #20]
 6801688:	e7924103 	ldr	r4, [r2, r3, lsl #2]
 680168c:	e595c018 	ldr	ip, [r5, #24]
 6801690:	e15c0003 	cmp	ip, r3
 6801694:	9a000011 	bls	68016e0 <fat32_delete+0x158>
 6801698:	e3a01000 	mov	r1, #0, 0
 680169c:	e7821103 	str	r1, [r2, r3, lsl #2]
 68016a0:	eafffff2 	b	6801670 <fat32_delete+0xe8>
 68016a4:	e59f1090 	ldr	r1, [pc, #144]	; 680173c <fat32_delete+0x1b4>
 68016a8:	e59f0098 	ldr	r0, [pc, #152]	; 6801748 <fat32_delete+0x1c0>
 68016ac:	eb0013f8 	bl	6806694 <printk>
 68016b0:	e59f009c 	ldr	r0, [pc, #156]	; 6801754 <fat32_delete+0x1cc>
 68016b4:	eb0013f6 	bl	6806694 <printk>
 68016b8:	e3a00000 	mov	r0, #0, 0
 68016bc:	eaffffbe 	b	68015bc <fat32_delete+0x34>
 68016c0:	e59f3090 	ldr	r3, [pc, #144]	; 6801758 <fat32_delete+0x1d0>
 68016c4:	e58d3000 	str	r3, [sp]
 68016c8:	e59f308c 	ldr	r3, [pc, #140]	; 680175c <fat32_delete+0x1d4>
 68016cc:	e59f2068 	ldr	r2, [pc, #104]	; 680173c <fat32_delete+0x1b4>
 68016d0:	e59f1068 	ldr	r1, [pc, #104]	; 6801740 <fat32_delete+0x1b8>
 68016d4:	e59f0084 	ldr	r0, [pc, #132]	; 6801760 <fat32_delete+0x1d8>
 68016d8:	eb0013ed 	bl	6806694 <printk>
 68016dc:	eb001543 	bl	6806bf0 <clean_reboot>
 68016e0:	e59f307c 	ldr	r3, [pc, #124]	; 6801764 <fat32_delete+0x1dc>
 68016e4:	e58d3000 	str	r3, [sp]
 68016e8:	e59f3078 	ldr	r3, [pc, #120]	; 6801768 <fat32_delete+0x1e0>
 68016ec:	e59f2048 	ldr	r2, [pc, #72]	; 680173c <fat32_delete+0x1b4>
 68016f0:	e59f1048 	ldr	r1, [pc, #72]	; 6801740 <fat32_delete+0x1b8>
 68016f4:	e59f0064 	ldr	r0, [pc, #100]	; 6801760 <fat32_delete+0x1d8>
 68016f8:	eb0013e5 	bl	6806694 <printk>
 68016fc:	eb00153b 	bl	6806bf0 <clean_reboot>
 6801700:	e59f0064 	ldr	r0, [pc, #100]	; 680176c <fat32_delete+0x1e4>
 6801704:	eb0013e2 	bl	6806694 <printk>
 6801708:	e1a00005 	mov	r0, r5
 680170c:	ebfffd80 	bl	6800d14 <write_fat_to_disk>
 6801710:	e59d300c 	ldr	r3, [sp, #12]
 6801714:	e1a03283 	lsl	r3, r3, #5
 6801718:	e1a02007 	mov	r2, r7
 680171c:	e5961020 	ldr	r1, [r6, #32]
 6801720:	e1a00005 	mov	r0, r5
 6801724:	ebfffcd3 	bl	6800a78 <write_cluster_chain>
 6801728:	e3a00001 	mov	r0, #1, 0
 680172c:	eaffffa2 	b	68015bc <fat32_delete+0x34>
 6801730:	0680a3c0 	.word	0x0680a3c0
 6801734:	06807820 	.word	0x06807820
 6801738:	0000020a 	.word	0x0000020a
 680173c:	06807bb4 	.word	0x06807bb4
 6801740:	068075d4 	.word	0x068075d4
 6801744:	068077dc 	.word	0x068077dc
 6801748:	06807938 	.word	0x06807938
 680174c:	068079ec 	.word	0x068079ec
 6801750:	068079fc 	.word	0x068079fc
 6801754:	068079c8 	.word	0x068079c8
 6801758:	06807a10 	.word	0x06807a10
 680175c:	0000021f 	.word	0x0000021f
 6801760:	0680745c 	.word	0x0680745c
 6801764:	068076dc 	.word	0x068076dc
 6801768:	00000227 	.word	0x00000227
 680176c:	06807a38 	.word	0x06807a38

06801770 <fat32_truncate>:
 6801770:	e52de004 	push	{lr}		; (str lr, [sp, #-4]!)
 6801774:	e24dd00c 	sub	sp, sp, #12, 0
 6801778:	e59f3040 	ldr	r3, [pc, #64]	; 68017c0 <fat32_truncate+0x50>
 680177c:	e5933000 	ldr	r3, [r3]
 6801780:	e3530000 	cmp	r3, #0, 0
 6801784:	0a000005 	beq	68017a0 <fat32_truncate+0x30>
 6801788:	e3a03d09 	mov	r3, #576	; 0x240
 680178c:	e59f2030 	ldr	r2, [pc, #48]	; 68017c4 <fat32_truncate+0x54>
 6801790:	e59f1030 	ldr	r1, [pc, #48]	; 68017c8 <fat32_truncate+0x58>
 6801794:	e59f0030 	ldr	r0, [pc, #48]	; 68017cc <fat32_truncate+0x5c>
 6801798:	eb0013bd 	bl	6806694 <printk>
 680179c:	eb001513 	bl	6806bf0 <clean_reboot>
 68017a0:	e59f3028 	ldr	r3, [pc, #40]	; 68017d0 <fat32_truncate+0x60>
 68017a4:	e58d3000 	str	r3, [sp]
 68017a8:	e59f3024 	ldr	r3, [pc, #36]	; 68017d4 <fat32_truncate+0x64>
 68017ac:	e59f2010 	ldr	r2, [pc, #16]	; 68017c4 <fat32_truncate+0x54>
 68017b0:	e59f1010 	ldr	r1, [pc, #16]	; 68017c8 <fat32_truncate+0x58>
 68017b4:	e59f001c 	ldr	r0, [pc, #28]	; 68017d8 <fat32_truncate+0x68>
 68017b8:	eb0013b5 	bl	6806694 <printk>
 68017bc:	eb00150b 	bl	6806bf0 <clean_reboot>
 68017c0:	0680a3c0 	.word	0x0680a3c0
 68017c4:	06807bc4 	.word	0x06807bc4
 68017c8:	068075d4 	.word	0x068075d4
 68017cc:	06807a58 	.word	0x06807a58
 68017d0:	06807820 	.word	0x06807820
 68017d4:	00000237 	.word	0x00000237
 68017d8:	068077dc 	.word	0x068077dc

068017dc <fat32_write>:
 68017dc:	e92d43f0 	push	{r4, r5, r6, r7, r8, r9, lr}
 68017e0:	e24dd014 	sub	sp, sp, #20, 0
 68017e4:	e1a07003 	mov	r7, r3
 68017e8:	e59f31ec 	ldr	r3, [pc, #492]	; 68019dc <fat32_write+0x200>
 68017ec:	e5933000 	ldr	r3, [r3]
 68017f0:	e3530000 	cmp	r3, #0, 0
 68017f4:	0a000045 	beq	6801910 <fat32_write+0x134>
 68017f8:	e1a06000 	mov	r6, r0
 68017fc:	e1a08001 	mov	r8, r1
 6801800:	e1a05002 	mov	r5, r2
 6801804:	e5913024 	ldr	r3, [r1, #36]	; 0x24
 6801808:	e3530000 	cmp	r3, #0, 0
 680180c:	0a000047 	beq	6801930 <fat32_write+0x154>
 6801810:	e59f11c8 	ldr	r1, [pc, #456]	; 68019e0 <fat32_write+0x204>
 6801814:	e59f01c8 	ldr	r0, [pc, #456]	; 68019e4 <fat32_write+0x208>
 6801818:	eb00139d 	bl	6806694 <printk>
 680181c:	e59f01c4 	ldr	r0, [pc, #452]	; 68019e8 <fat32_write+0x20c>
 6801820:	eb00139b 	bl	6806694 <printk>
 6801824:	e28d200c 	add	r2, sp, #12, 0
 6801828:	e5981020 	ldr	r1, [r8, #32]
 680182c:	e1a00006 	mov	r0, r6
 6801830:	ebfffc0f 	bl	6800874 <get_dirents>
 6801834:	e1a09000 	mov	r9, r0
 6801838:	e1a02005 	mov	r2, r5
 680183c:	e59d100c 	ldr	r1, [sp, #12]
 6801840:	ebfffc6d 	bl	68009fc <find_dirent_with_name>
 6801844:	e1a04000 	mov	r4, r0
 6801848:	e3700001 	cmn	r0, #1, 0
 680184c:	0a00003f 	beq	6801950 <fat32_write+0x174>
 6801850:	e59f1188 	ldr	r1, [pc, #392]	; 68019e0 <fat32_write+0x204>
 6801854:	e59f0188 	ldr	r0, [pc, #392]	; 68019e4 <fat32_write+0x208>
 6801858:	eb00138d 	bl	6806694 <printk>
 680185c:	e1a01005 	mov	r1, r5
 6801860:	e59f0184 	ldr	r0, [pc, #388]	; 68019ec <fat32_write+0x210>
 6801864:	eb00138a 	bl	6806694 <printk>
 6801868:	e0894284 	add	r4, r9, r4, lsl #5
 680186c:	e5973008 	ldr	r3, [r7, #8]
 6801870:	e5c4301c 	strb	r3, [r4, #28]
 6801874:	e1a02423 	lsr	r2, r3, #8
 6801878:	e5c4201d 	strb	r2, [r4, #29]
 680187c:	e1a02823 	lsr	r2, r3, #16
 6801880:	e5c4201e 	strb	r2, [r4, #30]
 6801884:	e1a03c23 	lsr	r3, r3, #24
 6801888:	e5c4301f 	strb	r3, [r4, #31]
 680188c:	e5d45014 	ldrb	r5, [r4, #20]
 6801890:	e5d40015 	ldrb	r0, [r4, #21]
 6801894:	e1850400 	orr	r0, r5, r0, lsl #8
 6801898:	e5d4501a 	ldrb	r5, [r4, #26]
 680189c:	e5d4301b 	ldrb	r3, [r4, #27]
 68018a0:	e1855403 	orr	r5, r5, r3, lsl #8
 68018a4:	e1955800 	orrs	r5, r5, r0, lsl #16
 68018a8:	0a00002f 	beq	680196c <fat32_write+0x190>
 68018ac:	e5973008 	ldr	r3, [r7, #8]
 68018b0:	e3530000 	cmp	r3, #0, 0
 68018b4:	1a000005 	bne	68018d0 <fat32_write+0xf4>
 68018b8:	e5c43014 	strb	r3, [r4, #20]
 68018bc:	e5c43015 	strb	r3, [r4, #21]
 68018c0:	e5c4301a 	strb	r3, [r4, #26]
 68018c4:	e5c4301b 	strb	r3, [r4, #27]
 68018c8:	e5962014 	ldr	r2, [r6, #20]
 68018cc:	e7823105 	str	r3, [r2, r5, lsl #2]
 68018d0:	e5973008 	ldr	r3, [r7, #8]
 68018d4:	e5972000 	ldr	r2, [r7]
 68018d8:	e1a01005 	mov	r1, r5
 68018dc:	e1a00006 	mov	r0, r6
 68018e0:	ebfffc64 	bl	6800a78 <write_cluster_chain>
 68018e4:	e1a00006 	mov	r0, r6
 68018e8:	ebfffd09 	bl	6800d14 <write_fat_to_disk>
 68018ec:	e59d300c 	ldr	r3, [sp, #12]
 68018f0:	e1a03283 	lsl	r3, r3, #5
 68018f4:	e1a02009 	mov	r2, r9
 68018f8:	e5981020 	ldr	r1, [r8, #32]
 68018fc:	e1a00006 	mov	r0, r6
 6801900:	ebfffc5c 	bl	6800a78 <write_cluster_chain>
 6801904:	e3a00001 	mov	r0, #1, 0
 6801908:	e28dd014 	add	sp, sp, #20, 0
 680190c:	e8bd83f0 	pop	{r4, r5, r6, r7, r8, r9, pc}
 6801910:	e59f30d8 	ldr	r3, [pc, #216]	; 68019f0 <fat32_write+0x214>
 6801914:	e58d3000 	str	r3, [sp]
 6801918:	e3a03f92 	mov	r3, #584	; 0x248
 680191c:	e59f20bc 	ldr	r2, [pc, #188]	; 68019e0 <fat32_write+0x204>
 6801920:	e59f10cc 	ldr	r1, [pc, #204]	; 68019f4 <fat32_write+0x218>
 6801924:	e59f00cc 	ldr	r0, [pc, #204]	; 68019f8 <fat32_write+0x21c>
 6801928:	eb001359 	bl	6806694 <printk>
 680192c:	eb0014af 	bl	6806bf0 <clean_reboot>
 6801930:	e59f30c4 	ldr	r3, [pc, #196]	; 68019fc <fat32_write+0x220>
 6801934:	e58d3000 	str	r3, [sp]
 6801938:	e59f30c0 	ldr	r3, [pc, #192]	; 6801a00 <fat32_write+0x224>
 680193c:	e59f209c 	ldr	r2, [pc, #156]	; 68019e0 <fat32_write+0x204>
 6801940:	e59f10ac 	ldr	r1, [pc, #172]	; 68019f4 <fat32_write+0x218>
 6801944:	e59f00b8 	ldr	r0, [pc, #184]	; 6801a04 <fat32_write+0x228>
 6801948:	eb001351 	bl	6806694 <printk>
 680194c:	eb0014a7 	bl	6806bf0 <clean_reboot>
 6801950:	e59f1088 	ldr	r1, [pc, #136]	; 68019e0 <fat32_write+0x204>
 6801954:	e59f0088 	ldr	r0, [pc, #136]	; 68019e4 <fat32_write+0x208>
 6801958:	eb00134d 	bl	6806694 <printk>
 680195c:	e59f00a4 	ldr	r0, [pc, #164]	; 6801a08 <fat32_write+0x22c>
 6801960:	eb00134b 	bl	6806694 <printk>
 6801964:	e3a00000 	mov	r0, #0, 0
 6801968:	eaffffe6 	b	6801908 <fat32_write+0x12c>
 680196c:	e3a01003 	mov	r1, #3, 0
 6801970:	e1a00006 	mov	r0, r6
 6801974:	ebfffbd4 	bl	68008cc <find_free_cluster>
 6801978:	e1a05000 	mov	r5, r0
 680197c:	e5963014 	ldr	r3, [r6, #20]
 6801980:	e3e02000 	mvn	r2, #0, 0
 6801984:	e7832100 	str	r2, [r3, r0, lsl #2]
 6801988:	e1a03820 	lsr	r3, r0, #16
 680198c:	e5c43014 	strb	r3, [r4, #20]
 6801990:	e1a03423 	lsr	r3, r3, #8
 6801994:	e5c43015 	strb	r3, [r4, #21]
 6801998:	e6ff3070 	uxth	r3, r0
 680199c:	e5c4001a 	strb	r0, [r4, #26]
 68019a0:	e1a03423 	lsr	r3, r3, #8
 68019a4:	e5c4301b 	strb	r3, [r4, #27]
 68019a8:	e1a01000 	mov	r1, r0
 68019ac:	e1a00006 	mov	r0, r6
 68019b0:	ebfffb88 	bl	68007d8 <get_cluster_chain_length>
 68019b4:	e3500001 	cmp	r0, #1, 0
 68019b8:	0affffbb 	beq	68018ac <fat32_write+0xd0>
 68019bc:	e59f3048 	ldr	r3, [pc, #72]	; 6801a0c <fat32_write+0x230>
 68019c0:	e58d3000 	str	r3, [sp]
 68019c4:	e59f3044 	ldr	r3, [pc, #68]	; 6801a10 <fat32_write+0x234>
 68019c8:	e59f2010 	ldr	r2, [pc, #16]	; 68019e0 <fat32_write+0x204>
 68019cc:	e59f1020 	ldr	r1, [pc, #32]	; 68019f4 <fat32_write+0x218>
 68019d0:	e59f003c 	ldr	r0, [pc, #60]	; 6801a14 <fat32_write+0x238>
 68019d4:	eb00132e 	bl	6806694 <printk>
 68019d8:	eb001484 	bl	6806bf0 <clean_reboot>
 68019dc:	0680a3c0 	.word	0x0680a3c0
 68019e0:	06807bd4 	.word	0x06807bd4
 68019e4:	06807938 	.word	0x06807938
 68019e8:	06807a84 	.word	0x06807a84
 68019ec:	06807ac8 	.word	0x06807ac8
 68019f0:	06807820 	.word	0x06807820
 68019f4:	068075d4 	.word	0x068075d4
 68019f8:	068077dc 	.word	0x068077dc
 68019fc:	068078d4 	.word	0x068078d4
 6801a00:	00000249 	.word	0x00000249
 6801a04:	068078e8 	.word	0x068078e8
 6801a08:	06807aa0 	.word	0x06807aa0
 6801a0c:	06807ae4 	.word	0x06807ae4
 6801a10:	0000026e 	.word	0x0000026e
 6801a14:	0680745c 	.word	0x0680745c

06801a18 <fat32_flush>:
 6801a18:	e59f3038 	ldr	r3, [pc, #56]	; 6801a58 <fat32_flush+0x40>
 6801a1c:	e5933000 	ldr	r3, [r3]
 6801a20:	e3530000 	cmp	r3, #0, 0
 6801a24:	0a000001 	beq	6801a30 <fat32_flush+0x18>
 6801a28:	e3a00000 	mov	r0, #0, 0
 6801a2c:	e12fff1e 	bx	lr
 6801a30:	e52de004 	push	{lr}		; (str lr, [sp, #-4]!)
 6801a34:	e24dd00c 	sub	sp, sp, #12, 0
 6801a38:	e59f301c 	ldr	r3, [pc, #28]	; 6801a5c <fat32_flush+0x44>
 6801a3c:	e58d3000 	str	r3, [sp]
 6801a40:	e59f3018 	ldr	r3, [pc, #24]	; 6801a60 <fat32_flush+0x48>
 6801a44:	e59f2018 	ldr	r2, [pc, #24]	; 6801a64 <fat32_flush+0x4c>
 6801a48:	e59f1018 	ldr	r1, [pc, #24]	; 6801a68 <fat32_flush+0x50>
 6801a4c:	e59f0018 	ldr	r0, [pc, #24]	; 6801a6c <fat32_flush+0x54>
 6801a50:	eb00130f 	bl	6806694 <printk>
 6801a54:	eb001465 	bl	6806bf0 <clean_reboot>
 6801a58:	0680a3c0 	.word	0x0680a3c0
 6801a5c:	06807820 	.word	0x06807820
 6801a60:	00000286 	.word	0x00000286
 6801a64:	06807be0 	.word	0x06807be0
 6801a68:	068075d4 	.word	0x068075d4
 6801a6c:	068077dc 	.word	0x068077dc

06801a70 <mbr_read>:
 6801a70:	e92d4010 	push	{r4, lr}
 6801a74:	e3a00c02 	mov	r0, #512	; 0x200
 6801a78:	eb00112e 	bl	6805f38 <kmalloc>
 6801a7c:	e1a04000 	mov	r4, r0
 6801a80:	e3a02001 	mov	r2, #1, 0
 6801a84:	e3a01000 	mov	r1, #0, 0
 6801a88:	eb000019 	bl	6801af4 <pi_sd_read>
 6801a8c:	e1a00004 	mov	r0, r4
 6801a90:	eb000264 	bl	6802428 <mbr_check>
 6801a94:	e1a00004 	mov	r0, r4
 6801a98:	e8bd8010 	pop	{r4, pc}

06801a9c <pi_sd_trace>:
 6801a9c:	e59f3004 	ldr	r3, [pc, #4]	; 6801aa8 <pi_sd_trace+0xc>
 6801aa0:	e5830000 	str	r0, [r3]
 6801aa4:	e12fff1e 	bx	lr
 6801aa8:	0680a3c4 	.word	0x0680a3c4

06801aac <pi_sd_init>:
 6801aac:	e92d4010 	push	{r4, lr}
 6801ab0:	eb000d95 	bl	680510c <emmc_init>
 6801ab4:	e3500000 	cmp	r0, #0, 0
 6801ab8:	0a000003 	beq	6801acc <pi_sd_init+0x20>
 6801abc:	e3a00001 	mov	r0, #1, 0
 6801ac0:	e59f301c 	ldr	r3, [pc, #28]	; 6801ae4 <pi_sd_init+0x38>
 6801ac4:	e5830004 	str	r0, [r3, #4]
 6801ac8:	e8bd8010 	pop	{r4, pc}
 6801acc:	e3a0301d 	mov	r3, #29, 0
 6801ad0:	e59f2010 	ldr	r2, [pc, #16]	; 6801ae8 <pi_sd_init+0x3c>
 6801ad4:	e59f1010 	ldr	r1, [pc, #16]	; 6801aec <pi_sd_init+0x40>
 6801ad8:	e59f0010 	ldr	r0, [pc, #16]	; 6801af0 <pi_sd_init+0x44>
 6801adc:	eb0012ec 	bl	6806694 <printk>
 6801ae0:	eb001442 	bl	6806bf0 <clean_reboot>
 6801ae4:	0680a3c4 	.word	0x0680a3c4
 6801ae8:	06807d44 	.word	0x06807d44
 6801aec:	06807bec 	.word	0x06807bec
 6801af0:	06807bf4 	.word	0x06807bf4

06801af4 <pi_sd_read>:
 6801af4:	e92d4070 	push	{r4, r5, r6, lr}
 6801af8:	e24dd008 	sub	sp, sp, #8, 0
 6801afc:	e59f3118 	ldr	r3, [pc, #280]	; 6801c1c <pi_sd_read+0x128>
 6801b00:	e5933004 	ldr	r3, [r3, #4]
 6801b04:	e3530000 	cmp	r3, #0, 0
 6801b08:	0a00000f 	beq	6801b4c <pi_sd_read+0x58>
 6801b0c:	e1a06000 	mov	r6, r0
 6801b10:	e1a05001 	mov	r5, r1
 6801b14:	e1a04482 	lsl	r4, r2, #9
 6801b18:	e1a02004 	mov	r2, r4
 6801b1c:	e1a01000 	mov	r1, r0
 6801b20:	e1a00005 	mov	r0, r5
 6801b24:	eb000d32 	bl	6804ff4 <emmc_read>
 6801b28:	e1500004 	cmp	r0, r4
 6801b2c:	1a00000e 	bne	6801b6c <pi_sd_read+0x78>
 6801b30:	e59f30e4 	ldr	r3, [pc, #228]	; 6801c1c <pi_sd_read+0x128>
 6801b34:	e5933000 	ldr	r3, [r3]
 6801b38:	e3530000 	cmp	r3, #0, 0
 6801b3c:	1a000011 	bne	6801b88 <pi_sd_read+0x94>
 6801b40:	e3a00001 	mov	r0, #1, 0
 6801b44:	e28dd008 	add	sp, sp, #8, 0
 6801b48:	e8bd8070 	pop	{r4, r5, r6, pc}
 6801b4c:	e59f30cc 	ldr	r3, [pc, #204]	; 6801c20 <pi_sd_read+0x12c>
 6801b50:	e58d3000 	str	r3, [sp]
 6801b54:	e3a03023 	mov	r3, #35, 0	; 0x23
 6801b58:	e59f20c4 	ldr	r2, [pc, #196]	; 6801c24 <pi_sd_read+0x130>
 6801b5c:	e59f10c4 	ldr	r1, [pc, #196]	; 6801c28 <pi_sd_read+0x134>
 6801b60:	e59f00c4 	ldr	r0, [pc, #196]	; 6801c2c <pi_sd_read+0x138>
 6801b64:	eb0012ca 	bl	6806694 <printk>
 6801b68:	eb001420 	bl	6806bf0 <clean_reboot>
 6801b6c:	e58d0000 	str	r0, [sp]
 6801b70:	e3a03026 	mov	r3, #38, 0	; 0x26
 6801b74:	e59f20a8 	ldr	r2, [pc, #168]	; 6801c24 <pi_sd_read+0x130>
 6801b78:	e59f10a8 	ldr	r1, [pc, #168]	; 6801c28 <pi_sd_read+0x134>
 6801b7c:	e59f00ac 	ldr	r0, [pc, #172]	; 6801c30 <pi_sd_read+0x13c>
 6801b80:	eb0012c3 	bl	6806694 <printk>
 6801b84:	eb001419 	bl	6806bf0 <clean_reboot>
 6801b88:	e59f1094 	ldr	r1, [pc, #148]	; 6801c24 <pi_sd_read+0x130>
 6801b8c:	e59f00a0 	ldr	r0, [pc, #160]	; 6801c34 <pi_sd_read+0x140>
 6801b90:	eb0012bf 	bl	6806694 <printk>
 6801b94:	e16f3f16 	clz	r3, r6
 6801b98:	e1a032a3 	lsr	r3, r3, #5
 6801b9c:	e3540000 	cmp	r4, #0, 0
 6801ba0:	03a03001 	moveq	r3, #1, 0
 6801ba4:	e3530000 	cmp	r3, #0, 0
 6801ba8:	1a000019 	bne	6801c14 <pi_sd_read+0x120>
 6801bac:	e1a03124 	lsr	r3, r4, #2
 6801bb0:	e3530000 	cmp	r3, #0, 0
 6801bb4:	0a00000c 	beq	6801bec <pi_sd_read+0xf8>
 6801bb8:	e5d61001 	ldrb	r1, [r6, #1]
 6801bbc:	e5d62000 	ldrb	r2, [r6]
 6801bc0:	e1822401 	orr	r2, r2, r1, lsl #8
 6801bc4:	e0822004 	add	r2, r2, r4
 6801bc8:	e5d61003 	ldrb	r1, [r6, #3]
 6801bcc:	e5d64002 	ldrb	r4, [r6, #2]
 6801bd0:	e1844401 	orr	r4, r4, r1, lsl #8
 6801bd4:	e0224584 	eor	r4, r2, r4, lsl #11
 6801bd8:	e0244802 	eor	r4, r4, r2, lsl #16
 6801bdc:	e2866004 	add	r6, r6, #4, 0
 6801be0:	e08445a4 	add	r4, r4, r4, lsr #11
 6801be4:	e2433001 	sub	r3, r3, #1, 0
 6801be8:	eafffff0 	b	6801bb0 <pi_sd_read+0xbc>
 6801bec:	e0242184 	eor	r2, r4, r4, lsl #3
 6801bf0:	e08222a2 	add	r2, r2, r2, lsr #5
 6801bf4:	e0222202 	eor	r2, r2, r2, lsl #4
 6801bf8:	e08228a2 	add	r2, r2, r2, lsr #17
 6801bfc:	e0222c82 	eor	r2, r2, r2, lsl #25
 6801c00:	e0822322 	add	r2, r2, r2, lsr #6
 6801c04:	e1a01005 	mov	r1, r5
 6801c08:	e59f0028 	ldr	r0, [pc, #40]	; 6801c38 <pi_sd_read+0x144>
 6801c0c:	eb0012a0 	bl	6806694 <printk>
 6801c10:	eaffffca 	b	6801b40 <pi_sd_read+0x4c>
 6801c14:	e3a02000 	mov	r2, #0, 0
 6801c18:	eafffff9 	b	6801c04 <pi_sd_read+0x110>
 6801c1c:	0680a3c4 	.word	0x0680a3c4
 6801c20:	06807820 	.word	0x06807820
 6801c24:	06807d50 	.word	0x06807d50
 6801c28:	06807bec 	.word	0x06807bec
 6801c2c:	06807c14 	.word	0x06807c14
 6801c30:	06807c5c 	.word	0x06807c5c
 6801c34:	06807938 	.word	0x06807938
 6801c38:	06807c98 	.word	0x06807c98

06801c3c <pi_sec_read>:
 6801c3c:	e92d4070 	push	{r4, r5, r6, lr}
 6801c40:	e24dd008 	sub	sp, sp, #8, 0
 6801c44:	e59f3074 	ldr	r3, [pc, #116]	; 6801cc0 <pi_sec_read+0x84>
 6801c48:	e5933004 	ldr	r3, [r3, #4]
 6801c4c:	e3530000 	cmp	r3, #0, 0
 6801c50:	0a00000c 	beq	6801c88 <pi_sec_read+0x4c>
 6801c54:	e1a05000 	mov	r5, r0
 6801c58:	e1a04001 	mov	r4, r1
 6801c5c:	e1a00481 	lsl	r0, r1, #9
 6801c60:	eb0010b4 	bl	6805f38 <kmalloc>
 6801c64:	e1a06000 	mov	r6, r0
 6801c68:	e1a02004 	mov	r2, r4
 6801c6c:	e1a01005 	mov	r1, r5
 6801c70:	ebffff9f 	bl	6801af4 <pi_sd_read>
 6801c74:	e3500000 	cmp	r0, #0, 0
 6801c78:	0a00000a 	beq	6801ca8 <pi_sec_read+0x6c>
 6801c7c:	e1a00006 	mov	r0, r6
 6801c80:	e28dd008 	add	sp, sp, #8, 0
 6801c84:	e8bd8070 	pop	{r4, r5, r6, pc}
 6801c88:	e59f3034 	ldr	r3, [pc, #52]	; 6801cc4 <pi_sec_read+0x88>
 6801c8c:	e58d3000 	str	r3, [sp]
 6801c90:	e3a03030 	mov	r3, #48, 0	; 0x30
 6801c94:	e59f202c 	ldr	r2, [pc, #44]	; 6801cc8 <pi_sec_read+0x8c>
 6801c98:	e59f102c 	ldr	r1, [pc, #44]	; 6801ccc <pi_sec_read+0x90>
 6801c9c:	e59f002c 	ldr	r0, [pc, #44]	; 6801cd0 <pi_sec_read+0x94>
 6801ca0:	eb00127b 	bl	6806694 <printk>
 6801ca4:	eb0013d1 	bl	6806bf0 <clean_reboot>
 6801ca8:	e3a03034 	mov	r3, #52, 0	; 0x34
 6801cac:	e59f2014 	ldr	r2, [pc, #20]	; 6801cc8 <pi_sec_read+0x8c>
 6801cb0:	e59f1014 	ldr	r1, [pc, #20]	; 6801ccc <pi_sec_read+0x90>
 6801cb4:	e59f0018 	ldr	r0, [pc, #24]	; 6801cd4 <pi_sec_read+0x98>
 6801cb8:	eb001275 	bl	6806694 <printk>
 6801cbc:	eb0013cb 	bl	6806bf0 <clean_reboot>
 6801cc0:	0680a3c4 	.word	0x0680a3c4
 6801cc4:	06807820 	.word	0x06807820
 6801cc8:	06807d5c 	.word	0x06807d5c
 6801ccc:	06807bec 	.word	0x06807bec
 6801cd0:	06807c14 	.word	0x06807c14
 6801cd4:	06807cb8 	.word	0x06807cb8

06801cd8 <pi_sd_write>:
 6801cd8:	e92d4070 	push	{r4, r5, r6, lr}
 6801cdc:	e24dd008 	sub	sp, sp, #8, 0
 6801ce0:	e59f30b0 	ldr	r3, [pc, #176]	; 6801d98 <pi_sd_write+0xc0>
 6801ce4:	e5933004 	ldr	r3, [r3, #4]
 6801ce8:	e3530000 	cmp	r3, #0, 0
 6801cec:	0a00000f 	beq	6801d30 <pi_sd_write+0x58>
 6801cf0:	e1a06000 	mov	r6, r0
 6801cf4:	e1a05001 	mov	r5, r1
 6801cf8:	e1a04482 	lsl	r4, r2, #9
 6801cfc:	e1a02004 	mov	r2, r4
 6801d00:	e1a01000 	mov	r1, r0
 6801d04:	e1a00005 	mov	r0, r5
 6801d08:	eb000cdd 	bl	6805084 <emmc_write>
 6801d0c:	e1500004 	cmp	r0, r4
 6801d10:	1a00000e 	bne	6801d50 <pi_sd_write+0x78>
 6801d14:	e59f307c 	ldr	r3, [pc, #124]	; 6801d98 <pi_sd_write+0xc0>
 6801d18:	e5933000 	ldr	r3, [r3]
 6801d1c:	e3530000 	cmp	r3, #0, 0
 6801d20:	1a000011 	bne	6801d6c <pi_sd_write+0x94>
 6801d24:	e3a00001 	mov	r0, #1, 0
 6801d28:	e28dd008 	add	sp, sp, #8, 0
 6801d2c:	e8bd8070 	pop	{r4, r5, r6, pc}
 6801d30:	e59f3064 	ldr	r3, [pc, #100]	; 6801d9c <pi_sd_write+0xc4>
 6801d34:	e58d3000 	str	r3, [sp]
 6801d38:	e3a0303b 	mov	r3, #59, 0	; 0x3b
 6801d3c:	e59f205c 	ldr	r2, [pc, #92]	; 6801da0 <pi_sd_write+0xc8>
 6801d40:	e59f105c 	ldr	r1, [pc, #92]	; 6801da4 <pi_sd_write+0xcc>
 6801d44:	e59f005c 	ldr	r0, [pc, #92]	; 6801da8 <pi_sd_write+0xd0>
 6801d48:	eb001251 	bl	6806694 <printk>
 6801d4c:	eb0013a7 	bl	6806bf0 <clean_reboot>
 6801d50:	e58d0000 	str	r0, [sp]
 6801d54:	e3a0303e 	mov	r3, #62, 0	; 0x3e
 6801d58:	e59f2040 	ldr	r2, [pc, #64]	; 6801da0 <pi_sd_write+0xc8>
 6801d5c:	e59f1040 	ldr	r1, [pc, #64]	; 6801da4 <pi_sd_write+0xcc>
 6801d60:	e59f0044 	ldr	r0, [pc, #68]	; 6801dac <pi_sd_write+0xd4>
 6801d64:	eb00124a 	bl	6806694 <printk>
 6801d68:	eb0013a0 	bl	6806bf0 <clean_reboot>
 6801d6c:	e59f102c 	ldr	r1, [pc, #44]	; 6801da0 <pi_sd_write+0xc8>
 6801d70:	e59f0038 	ldr	r0, [pc, #56]	; 6801db0 <pi_sd_write+0xd8>
 6801d74:	eb001246 	bl	6806694 <printk>
 6801d78:	e1a01004 	mov	r1, r4
 6801d7c:	e1a00006 	mov	r0, r6
 6801d80:	eb0011b5 	bl	680645c <our_crc32>
 6801d84:	e1a02000 	mov	r2, r0
 6801d88:	e1a01005 	mov	r1, r5
 6801d8c:	e59f0020 	ldr	r0, [pc, #32]	; 6801db4 <pi_sd_write+0xdc>
 6801d90:	eb00123f 	bl	6806694 <printk>
 6801d94:	eaffffe2 	b	6801d24 <pi_sd_write+0x4c>
 6801d98:	0680a3c4 	.word	0x0680a3c4
 6801d9c:	06807820 	.word	0x06807820
 6801da0:	06807d68 	.word	0x06807d68
 6801da4:	06807bec 	.word	0x06807bec
 6801da8:	06807c14 	.word	0x06807c14
 6801dac:	06807ce8 	.word	0x06807ce8
 6801db0:	06807938 	.word	0x06807938
 6801db4:	06807d24 	.word	0x06807d24

06801db8 <mbr_get_partition>:
 6801db8:	e92d4010 	push	{r4, lr}
 6801dbc:	e24dd018 	sub	sp, sp, #24, 0
 6801dc0:	e3520003 	cmp	r2, #3, 0
 6801dc4:	8a00000e 	bhi	6801e04 <mbr_get_partition+0x4c>
 6801dc8:	e1a04000 	mov	r4, r0
 6801dcc:	e1a03002 	mov	r3, r2
 6801dd0:	e2811f6f 	add	r1, r1, #444	; 0x1bc
 6801dd4:	e2811002 	add	r1, r1, #2, 0
 6801dd8:	e3a02010 	mov	r2, #16, 0
 6801ddc:	e0811203 	add	r1, r1, r3, lsl #4
 6801de0:	e28d0008 	add	r0, sp, #8, 0
 6801de4:	eb0011cb 	bl	6806518 <memcpy>
 6801de8:	e3a02010 	mov	r2, #16, 0
 6801dec:	e28d1008 	add	r1, sp, #8, 0
 6801df0:	e1a00004 	mov	r0, r4
 6801df4:	eb0011c7 	bl	6806518 <memcpy>
 6801df8:	e1a00004 	mov	r0, r4
 6801dfc:	e28dd018 	add	sp, sp, #24, 0
 6801e00:	e8bd8010 	pop	{r4, pc}
 6801e04:	e59f3018 	ldr	r3, [pc, #24]	; 6801e24 <mbr_get_partition+0x6c>
 6801e08:	e58d3000 	str	r3, [sp]
 6801e0c:	e3a0301c 	mov	r3, #28, 0
 6801e10:	e59f2010 	ldr	r2, [pc, #16]	; 6801e28 <mbr_get_partition+0x70>
 6801e14:	e59f1010 	ldr	r1, [pc, #16]	; 6801e2c <mbr_get_partition+0x74>
 6801e18:	e59f0010 	ldr	r0, [pc, #16]	; 6801e30 <mbr_get_partition+0x78>
 6801e1c:	eb00121c 	bl	6806694 <printk>
 6801e20:	eb001372 	bl	6806bf0 <clean_reboot>
 6801e24:	06807d84 	.word	0x06807d84
 6801e28:	068081a8 	.word	0x068081a8
 6801e2c:	06807d74 	.word	0x06807d74
 6801e30:	0680745c 	.word	0x0680745c

06801e34 <mbr_part_str>:
 6801e34:	e35000fc 	cmp	r0, #252, 0	; 0xfc
 6801e38:	979ff100 	ldrls	pc, [pc, r0, lsl #2]
 6801e3c:	ea000140 	b	6802344 <mbr_part_str+0x510>
 6801e40:	06802368 	.word	0x06802368
 6801e44:	06802370 	.word	0x06802370
 6801e48:	06802344 	.word	0x06802344
 6801e4c:	06802344 	.word	0x06802344
 6801e50:	06802234 	.word	0x06802234
 6801e54:	0680223c 	.word	0x0680223c
 6801e58:	06802244 	.word	0x06802244
 6801e5c:	0680224c 	.word	0x0680224c
 6801e60:	06802344 	.word	0x06802344
 6801e64:	06802344 	.word	0x06802344
 6801e68:	06802344 	.word	0x06802344
 6801e6c:	06802254 	.word	0x06802254
 6801e70:	0680225c 	.word	0x0680225c
 6801e74:	06802344 	.word	0x06802344
 6801e78:	06802264 	.word	0x06802264
 6801e7c:	0680226c 	.word	0x0680226c
 6801e80:	06802344 	.word	0x06802344
 6801e84:	06802274 	.word	0x06802274
 6801e88:	06802344 	.word	0x06802344
 6801e8c:	06802344 	.word	0x06802344
 6801e90:	0680227c 	.word	0x0680227c
 6801e94:	06802344 	.word	0x06802344
 6801e98:	06802284 	.word	0x06802284
 6801e9c:	06802344 	.word	0x06802344
 6801ea0:	06802344 	.word	0x06802344
 6801ea4:	06802344 	.word	0x06802344
 6801ea8:	06802344 	.word	0x06802344
 6801eac:	0680228c 	.word	0x0680228c
 6801eb0:	06802294 	.word	0x06802294
 6801eb4:	06802344 	.word	0x06802344
 6801eb8:	0680229c 	.word	0x0680229c
 6801ebc:	06802344 	.word	0x06802344
 6801ec0:	06802344 	.word	0x06802344
 6801ec4:	06802344 	.word	0x06802344
 6801ec8:	06802344 	.word	0x06802344
 6801ecc:	06802344 	.word	0x06802344
 6801ed0:	06802344 	.word	0x06802344
 6801ed4:	06802344 	.word	0x06802344
 6801ed8:	06802344 	.word	0x06802344
 6801edc:	06802344 	.word	0x06802344
 6801ee0:	06802344 	.word	0x06802344
 6801ee4:	06802344 	.word	0x06802344
 6801ee8:	06802344 	.word	0x06802344
 6801eec:	06802344 	.word	0x06802344
 6801ef0:	06802344 	.word	0x06802344
 6801ef4:	06802344 	.word	0x06802344
 6801ef8:	06802344 	.word	0x06802344
 6801efc:	06802344 	.word	0x06802344
 6801f00:	06802344 	.word	0x06802344
 6801f04:	06802344 	.word	0x06802344
 6801f08:	06802344 	.word	0x06802344
 6801f0c:	06802344 	.word	0x06802344
 6801f10:	06802344 	.word	0x06802344
 6801f14:	06802344 	.word	0x06802344
 6801f18:	06802344 	.word	0x06802344
 6801f1c:	06802344 	.word	0x06802344
 6801f20:	06802344 	.word	0x06802344
 6801f24:	06802344 	.word	0x06802344
 6801f28:	06802344 	.word	0x06802344
 6801f2c:	06802344 	.word	0x06802344
 6801f30:	06802344 	.word	0x06802344
 6801f34:	06802344 	.word	0x06802344
 6801f38:	06802344 	.word	0x06802344
 6801f3c:	06802344 	.word	0x06802344
 6801f40:	06802344 	.word	0x06802344
 6801f44:	06802344 	.word	0x06802344
 6801f48:	068022a4 	.word	0x068022a4
 6801f4c:	06802344 	.word	0x06802344
 6801f50:	06802344 	.word	0x06802344
 6801f54:	06802344 	.word	0x06802344
 6801f58:	06802344 	.word	0x06802344
 6801f5c:	06802344 	.word	0x06802344
 6801f60:	06802344 	.word	0x06802344
 6801f64:	06802344 	.word	0x06802344
 6801f68:	06802344 	.word	0x06802344
 6801f6c:	06802344 	.word	0x06802344
 6801f70:	06802344 	.word	0x06802344
 6801f74:	06802344 	.word	0x06802344
 6801f78:	06802344 	.word	0x06802344
 6801f7c:	06802344 	.word	0x06802344
 6801f80:	06802344 	.word	0x06802344
 6801f84:	06802344 	.word	0x06802344
 6801f88:	06802344 	.word	0x06802344
 6801f8c:	06802344 	.word	0x06802344
 6801f90:	06802344 	.word	0x06802344
 6801f94:	06802344 	.word	0x06802344
 6801f98:	06802344 	.word	0x06802344
 6801f9c:	06802344 	.word	0x06802344
 6801fa0:	06802344 	.word	0x06802344
 6801fa4:	06802344 	.word	0x06802344
 6801fa8:	06802344 	.word	0x06802344
 6801fac:	06802344 	.word	0x06802344
 6801fb0:	06802344 	.word	0x06802344
 6801fb4:	06802344 	.word	0x06802344
 6801fb8:	06802344 	.word	0x06802344
 6801fbc:	06802344 	.word	0x06802344
 6801fc0:	06802344 	.word	0x06802344
 6801fc4:	06802344 	.word	0x06802344
 6801fc8:	06802344 	.word	0x06802344
 6801fcc:	06802344 	.word	0x06802344
 6801fd0:	06802344 	.word	0x06802344
 6801fd4:	06802344 	.word	0x06802344
 6801fd8:	06802344 	.word	0x06802344
 6801fdc:	06802344 	.word	0x06802344
 6801fe0:	06802344 	.word	0x06802344
 6801fe4:	06802344 	.word	0x06802344
 6801fe8:	06802344 	.word	0x06802344
 6801fec:	06802344 	.word	0x06802344
 6801ff0:	06802344 	.word	0x06802344
 6801ff4:	06802344 	.word	0x06802344
 6801ff8:	06802344 	.word	0x06802344
 6801ffc:	06802344 	.word	0x06802344
 6802000:	06802344 	.word	0x06802344
 6802004:	06802344 	.word	0x06802344
 6802008:	06802344 	.word	0x06802344
 680200c:	06802344 	.word	0x06802344
 6802010:	06802344 	.word	0x06802344
 6802014:	06802344 	.word	0x06802344
 6802018:	06802344 	.word	0x06802344
 680201c:	06802344 	.word	0x06802344
 6802020:	06802344 	.word	0x06802344
 6802024:	06802344 	.word	0x06802344
 6802028:	06802344 	.word	0x06802344
 680202c:	06802344 	.word	0x06802344
 6802030:	06802344 	.word	0x06802344
 6802034:	06802344 	.word	0x06802344
 6802038:	06802344 	.word	0x06802344
 680203c:	06802344 	.word	0x06802344
 6802040:	06802344 	.word	0x06802344
 6802044:	06802344 	.word	0x06802344
 6802048:	068022ac 	.word	0x068022ac
 680204c:	068022b4 	.word	0x068022b4
 6802050:	068022bc 	.word	0x068022bc
 6802054:	068022c4 	.word	0x068022c4
 6802058:	068022cc 	.word	0x068022cc
 680205c:	068022d4 	.word	0x068022d4
 6802060:	06802344 	.word	0x06802344
 6802064:	06802344 	.word	0x06802344
 6802068:	06802344 	.word	0x06802344
 680206c:	06802344 	.word	0x06802344
 6802070:	06802344 	.word	0x06802344
 6802074:	06802344 	.word	0x06802344
 6802078:	06802344 	.word	0x06802344
 680207c:	06802344 	.word	0x06802344
 6802080:	06802344 	.word	0x06802344
 6802084:	06802344 	.word	0x06802344
 6802088:	06802344 	.word	0x06802344
 680208c:	06802344 	.word	0x06802344
 6802090:	06802344 	.word	0x06802344
 6802094:	06802344 	.word	0x06802344
 6802098:	06802344 	.word	0x06802344
 680209c:	06802344 	.word	0x06802344
 68020a0:	06802344 	.word	0x06802344
 68020a4:	06802344 	.word	0x06802344
 68020a8:	06802344 	.word	0x06802344
 68020ac:	06802344 	.word	0x06802344
 68020b0:	06802344 	.word	0x06802344
 68020b4:	06802344 	.word	0x06802344
 68020b8:	06802344 	.word	0x06802344
 68020bc:	06802344 	.word	0x06802344
 68020c0:	068022dc 	.word	0x068022dc
 68020c4:	068022e4 	.word	0x068022e4
 68020c8:	06802344 	.word	0x06802344
 68020cc:	06802344 	.word	0x06802344
 68020d0:	06802344 	.word	0x06802344
 68020d4:	068022ec 	.word	0x068022ec
 68020d8:	068022f4 	.word	0x068022f4
 68020dc:	06802344 	.word	0x06802344
 68020e0:	068022fc 	.word	0x068022fc
 68020e4:	06802304 	.word	0x06802304
 68020e8:	06802344 	.word	0x06802344
 68020ec:	0680230c 	.word	0x0680230c
 68020f0:	06802344 	.word	0x06802344
 68020f4:	06802344 	.word	0x06802344
 68020f8:	06802344 	.word	0x06802344
 68020fc:	06802344 	.word	0x06802344
 6802100:	06802344 	.word	0x06802344
 6802104:	06802344 	.word	0x06802344
 6802108:	06802344 	.word	0x06802344
 680210c:	06802344 	.word	0x06802344
 6802110:	06802344 	.word	0x06802344
 6802114:	06802344 	.word	0x06802344
 6802118:	06802344 	.word	0x06802344
 680211c:	06802314 	.word	0x06802314
 6802120:	0680231c 	.word	0x0680231c
 6802124:	06802344 	.word	0x06802344
 6802128:	06802344 	.word	0x06802344
 680212c:	06802344 	.word	0x06802344
 6802130:	06802344 	.word	0x06802344
 6802134:	06802344 	.word	0x06802344
 6802138:	06802344 	.word	0x06802344
 680213c:	06802344 	.word	0x06802344
 6802140:	06802344 	.word	0x06802344
 6802144:	06802344 	.word	0x06802344
 6802148:	06802344 	.word	0x06802344
 680214c:	06802344 	.word	0x06802344
 6802150:	06802344 	.word	0x06802344
 6802154:	06802344 	.word	0x06802344
 6802158:	06802344 	.word	0x06802344
 680215c:	06802344 	.word	0x06802344
 6802160:	06802344 	.word	0x06802344
 6802164:	06802344 	.word	0x06802344
 6802168:	06802344 	.word	0x06802344
 680216c:	06802344 	.word	0x06802344
 6802170:	06802344 	.word	0x06802344
 6802174:	06802344 	.word	0x06802344
 6802178:	06802344 	.word	0x06802344
 680217c:	06802344 	.word	0x06802344
 6802180:	06802344 	.word	0x06802344
 6802184:	06802344 	.word	0x06802344
 6802188:	06802344 	.word	0x06802344
 680218c:	06802344 	.word	0x06802344
 6802190:	06802344 	.word	0x06802344
 6802194:	06802344 	.word	0x06802344
 6802198:	06802344 	.word	0x06802344
 680219c:	06802344 	.word	0x06802344
 68021a0:	06802344 	.word	0x06802344
 68021a4:	06802344 	.word	0x06802344
 68021a8:	06802344 	.word	0x06802344
 68021ac:	06802344 	.word	0x06802344
 68021b0:	06802344 	.word	0x06802344
 68021b4:	06802344 	.word	0x06802344
 68021b8:	06802344 	.word	0x06802344
 68021bc:	06802344 	.word	0x06802344
 68021c0:	06802344 	.word	0x06802344
 68021c4:	06802344 	.word	0x06802344
 68021c8:	06802344 	.word	0x06802344
 68021cc:	06802344 	.word	0x06802344
 68021d0:	06802344 	.word	0x06802344
 68021d4:	06802344 	.word	0x06802344
 68021d8:	06802344 	.word	0x06802344
 68021dc:	06802344 	.word	0x06802344
 68021e0:	06802344 	.word	0x06802344
 68021e4:	06802344 	.word	0x06802344
 68021e8:	06802344 	.word	0x06802344
 68021ec:	06802344 	.word	0x06802344
 68021f0:	06802344 	.word	0x06802344
 68021f4:	06802344 	.word	0x06802344
 68021f8:	06802324 	.word	0x06802324
 68021fc:	0680232c 	.word	0x0680232c
 6802200:	06802344 	.word	0x06802344
 6802204:	06802344 	.word	0x06802344
 6802208:	06802344 	.word	0x06802344
 680220c:	06802344 	.word	0x06802344
 6802210:	06802344 	.word	0x06802344
 6802214:	06802344 	.word	0x06802344
 6802218:	06802344 	.word	0x06802344
 680221c:	06802344 	.word	0x06802344
 6802220:	06802344 	.word	0x06802344
 6802224:	06802344 	.word	0x06802344
 6802228:	06802344 	.word	0x06802344
 680222c:	06802334 	.word	0x06802334
 6802230:	0680233c 	.word	0x0680233c
 6802234:	e59f013c 	ldr	r0, [pc, #316]	; 6802378 <mbr_part_str+0x544>
 6802238:	e12fff1e 	bx	lr
 680223c:	e59f0138 	ldr	r0, [pc, #312]	; 680237c <mbr_part_str+0x548>
 6802240:	e12fff1e 	bx	lr
 6802244:	e59f0134 	ldr	r0, [pc, #308]	; 6802380 <mbr_part_str+0x54c>
 6802248:	e12fff1e 	bx	lr
 680224c:	e59f0130 	ldr	r0, [pc, #304]	; 6802384 <mbr_part_str+0x550>
 6802250:	e12fff1e 	bx	lr
 6802254:	e59f012c 	ldr	r0, [pc, #300]	; 6802388 <mbr_part_str+0x554>
 6802258:	e12fff1e 	bx	lr
 680225c:	e59f0128 	ldr	r0, [pc, #296]	; 680238c <mbr_part_str+0x558>
 6802260:	e12fff1e 	bx	lr
 6802264:	e59f0124 	ldr	r0, [pc, #292]	; 6802390 <mbr_part_str+0x55c>
 6802268:	e12fff1e 	bx	lr
 680226c:	e59f0120 	ldr	r0, [pc, #288]	; 6802394 <mbr_part_str+0x560>
 6802270:	e12fff1e 	bx	lr
 6802274:	e59f011c 	ldr	r0, [pc, #284]	; 6802398 <mbr_part_str+0x564>
 6802278:	e12fff1e 	bx	lr
 680227c:	e59f0118 	ldr	r0, [pc, #280]	; 680239c <mbr_part_str+0x568>
 6802280:	e12fff1e 	bx	lr
 6802284:	e59f0114 	ldr	r0, [pc, #276]	; 68023a0 <mbr_part_str+0x56c>
 6802288:	e12fff1e 	bx	lr
 680228c:	e59f0110 	ldr	r0, [pc, #272]	; 68023a4 <mbr_part_str+0x570>
 6802290:	e12fff1e 	bx	lr
 6802294:	e59f010c 	ldr	r0, [pc, #268]	; 68023a8 <mbr_part_str+0x574>
 6802298:	e12fff1e 	bx	lr
 680229c:	e59f0108 	ldr	r0, [pc, #264]	; 68023ac <mbr_part_str+0x578>
 68022a0:	e12fff1e 	bx	lr
 68022a4:	e59f0104 	ldr	r0, [pc, #260]	; 68023b0 <mbr_part_str+0x57c>
 68022a8:	e12fff1e 	bx	lr
 68022ac:	e59f0100 	ldr	r0, [pc, #256]	; 68023b4 <mbr_part_str+0x580>
 68022b0:	e12fff1e 	bx	lr
 68022b4:	e59f00fc 	ldr	r0, [pc, #252]	; 68023b8 <mbr_part_str+0x584>
 68022b8:	e12fff1e 	bx	lr
 68022bc:	e59f00f8 	ldr	r0, [pc, #248]	; 68023bc <mbr_part_str+0x588>
 68022c0:	e12fff1e 	bx	lr
 68022c4:	e59f00f4 	ldr	r0, [pc, #244]	; 68023c0 <mbr_part_str+0x58c>
 68022c8:	e12fff1e 	bx	lr
 68022cc:	e59f00f0 	ldr	r0, [pc, #240]	; 68023c4 <mbr_part_str+0x590>
 68022d0:	e12fff1e 	bx	lr
 68022d4:	e59f00e8 	ldr	r0, [pc, #232]	; 68023c4 <mbr_part_str+0x590>
 68022d8:	e12fff1e 	bx	lr
 68022dc:	e59f00d8 	ldr	r0, [pc, #216]	; 68023bc <mbr_part_str+0x588>
 68022e0:	e12fff1e 	bx	lr
 68022e4:	e59f00d0 	ldr	r0, [pc, #208]	; 68023bc <mbr_part_str+0x588>
 68022e8:	e12fff1e 	bx	lr
 68022ec:	e59f00d4 	ldr	r0, [pc, #212]	; 68023c8 <mbr_part_str+0x594>
 68022f0:	e12fff1e 	bx	lr
 68022f4:	e59f00d0 	ldr	r0, [pc, #208]	; 68023cc <mbr_part_str+0x598>
 68022f8:	e12fff1e 	bx	lr
 68022fc:	e59f00cc 	ldr	r0, [pc, #204]	; 68023d0 <mbr_part_str+0x59c>
 6802300:	e12fff1e 	bx	lr
 6802304:	e59f00c8 	ldr	r0, [pc, #200]	; 68023d4 <mbr_part_str+0x5a0>
 6802308:	e12fff1e 	bx	lr
 680230c:	e59f00c4 	ldr	r0, [pc, #196]	; 68023d8 <mbr_part_str+0x5a4>
 6802310:	e12fff1e 	bx	lr
 6802314:	e59f00c0 	ldr	r0, [pc, #192]	; 68023dc <mbr_part_str+0x5a8>
 6802318:	e12fff1e 	bx	lr
 680231c:	e59f00bc 	ldr	r0, [pc, #188]	; 68023e0 <mbr_part_str+0x5ac>
 6802320:	e12fff1e 	bx	lr
 6802324:	e59f00b8 	ldr	r0, [pc, #184]	; 68023e4 <mbr_part_str+0x5b0>
 6802328:	e12fff1e 	bx	lr
 680232c:	e59f00b4 	ldr	r0, [pc, #180]	; 68023e8 <mbr_part_str+0x5b4>
 6802330:	e12fff1e 	bx	lr
 6802334:	e59f00b0 	ldr	r0, [pc, #176]	; 68023ec <mbr_part_str+0x5b8>
 6802338:	e12fff1e 	bx	lr
 680233c:	e59f00ac 	ldr	r0, [pc, #172]	; 68023f0 <mbr_part_str+0x5bc>
 6802340:	e12fff1e 	bx	lr
 6802344:	e52de004 	push	{lr}		; (str lr, [sp, #-4]!)
 6802348:	e24dd00c 	sub	sp, sp, #12, 0
 680234c:	e58d0000 	str	r0, [sp]
 6802350:	e3a0304d 	mov	r3, #77, 0	; 0x4d
 6802354:	e59f2098 	ldr	r2, [pc, #152]	; 68023f4 <mbr_part_str+0x5c0>
 6802358:	e59f1098 	ldr	r1, [pc, #152]	; 68023f8 <mbr_part_str+0x5c4>
 680235c:	e59f0098 	ldr	r0, [pc, #152]	; 68023fc <mbr_part_str+0x5c8>
 6802360:	eb0010cb 	bl	6806694 <printk>
 6802364:	eb001221 	bl	6806bf0 <clean_reboot>
 6802368:	e59f0090 	ldr	r0, [pc, #144]	; 6802400 <mbr_part_str+0x5cc>
 680236c:	e12fff1e 	bx	lr
 6802370:	e59f008c 	ldr	r0, [pc, #140]	; 6802404 <mbr_part_str+0x5d0>
 6802374:	e12fff1e 	bx	lr
 6802378:	06807da8 	.word	0x06807da8
 680237c:	06807dc0 	.word	0x06807dc0
 6802380:	06807ddc 	.word	0x06807ddc
 6802384:	06807df8 	.word	0x06807df8
 6802388:	06807e00 	.word	0x06807e00
 680238c:	06807e0c 	.word	0x06807e0c
 6802390:	06807e18 	.word	0x06807e18
 6802394:	06807e34 	.word	0x06807e34
 6802398:	06807e50 	.word	0x06807e50
 680239c:	06807e64 	.word	0x06807e64
 68023a0:	06807e84 	.word	0x06807e84
 68023a4:	06807ea4 	.word	0x06807ea4
 68023a8:	06807eb8 	.word	0x06807eb8
 68023ac:	06807ecc 	.word	0x06807ecc
 68023b0:	06807eec 	.word	0x06807eec
 68023b4:	06807f0c 	.word	0x06807f0c
 68023b8:	06807f28 	.word	0x06807f28
 68023bc:	06807f30 	.word	0x06807f30
 68023c0:	06807f3c 	.word	0x06807f3c
 68023c4:	06807f4c 	.word	0x06807f4c
 68023c8:	06807f5c 	.word	0x06807f5c
 68023cc:	06807f64 	.word	0x06807f64
 68023d0:	06807f6c 	.word	0x06807f6c
 68023d4:	06807f74 	.word	0x06807f74
 68023d8:	06807f7c 	.word	0x06807f7c
 68023dc:	06807f8c 	.word	0x06807f8c
 68023e0:	06807f94 	.word	0x06807f94
 68023e4:	06807fa0 	.word	0x06807fa0
 68023e8:	06807fb0 	.word	0x06807fb0
 68023ec:	06807fc8 	.word	0x06807fc8
 68023f0:	06807d90 	.word	0x06807d90
 68023f4:	068081bc 	.word	0x068081bc
 68023f8:	06807d74 	.word	0x06807d74
 68023fc:	06807fe4 	.word	0x06807fe4
 6802400:	06807fdc 	.word	0x06807fdc
 6802404:	06807d9c 	.word	0x06807d9c

06802408 <mbr_partition_empty>:
 6802408:	e92d4010 	push	{r4, lr}
 680240c:	e3a01010 	mov	r1, #16, 0
 6802410:	eb00106b 	bl	68065c4 <memiszero>
 6802414:	e8bd8010 	pop	{r4, pc}

06802418 <mbr_partition_empty_raw>:
 6802418:	e92d4010 	push	{r4, lr}
 680241c:	e3a01010 	mov	r1, #16, 0
 6802420:	eb001067 	bl	68065c4 <memiszero>
 6802424:	e8bd8010 	pop	{r4, pc}

06802428 <mbr_check>:
 6802428:	e92d4030 	push	{r4, r5, lr}
 680242c:	e24dd01c 	sub	sp, sp, #28, 0
 6802430:	e2803f7f 	add	r3, r0, #508	; 0x1fc
 6802434:	e1d320b2 	ldrh	r2, [r3, #2]
 6802438:	e59f3144 	ldr	r3, [pc, #324]	; 6802584 <mbr_check+0x15c>
 680243c:	e1520003 	cmp	r2, r3
 6802440:	1a00001f 	bne	68024c4 <mbr_check+0x9c>
 6802444:	e1a04000 	mov	r4, r0
 6802448:	e2805f6f 	add	r5, r0, #444	; 0x1bc
 680244c:	e2855002 	add	r5, r5, #2, 0
 6802450:	e3a02010 	mov	r2, #16, 0
 6802454:	e1a01005 	mov	r1, r5
 6802458:	e28d0008 	add	r0, sp, #8, 0
 680245c:	eb00102d 	bl	6806518 <memcpy>
 6802460:	e5dd300c 	ldrb	r3, [sp, #12]
 6802464:	e243300b 	sub	r3, r3, #11, 0
 6802468:	e3530001 	cmp	r3, #1, 0
 680246c:	8a00001c 	bhi	68024e4 <mbr_check+0xbc>
 6802470:	e1a00005 	mov	r0, r5
 6802474:	ebffffe7 	bl	6802418 <mbr_partition_empty_raw>
 6802478:	e3500000 	cmp	r0, #0, 0
 680247c:	1a000020 	bne	6802504 <mbr_check+0xdc>
 6802480:	e2840f73 	add	r0, r4, #460	; 0x1cc
 6802484:	e2800002 	add	r0, r0, #2, 0
 6802488:	ebffffe2 	bl	6802418 <mbr_partition_empty_raw>
 680248c:	e3500000 	cmp	r0, #0, 0
 6802490:	0a000023 	beq	6802524 <mbr_check+0xfc>
 6802494:	e2840f77 	add	r0, r4, #476	; 0x1dc
 6802498:	e2800002 	add	r0, r0, #2, 0
 680249c:	ebffffdd 	bl	6802418 <mbr_partition_empty_raw>
 68024a0:	e3500000 	cmp	r0, #0, 0
 68024a4:	0a000026 	beq	6802544 <mbr_check+0x11c>
 68024a8:	e2840f7b 	add	r0, r4, #492	; 0x1ec
 68024ac:	e2800002 	add	r0, r0, #2, 0
 68024b0:	ebffffd8 	bl	6802418 <mbr_partition_empty_raw>
 68024b4:	e3500000 	cmp	r0, #0, 0
 68024b8:	0a000029 	beq	6802564 <mbr_check+0x13c>
 68024bc:	e28dd01c 	add	sp, sp, #28, 0
 68024c0:	e8bd8030 	pop	{r4, r5, pc}
 68024c4:	e59f30bc 	ldr	r3, [pc, #188]	; 6802588 <mbr_check+0x160>
 68024c8:	e58d3000 	str	r3, [sp]
 68024cc:	e3a03009 	mov	r3, #9, 0
 68024d0:	e59f20b4 	ldr	r2, [pc, #180]	; 680258c <mbr_check+0x164>
 68024d4:	e59f10b4 	ldr	r1, [pc, #180]	; 6802590 <mbr_check+0x168>
 68024d8:	e59f00b4 	ldr	r0, [pc, #180]	; 6802594 <mbr_check+0x16c>
 68024dc:	eb00106c 	bl	6806694 <printk>
 68024e0:	eb0011c2 	bl	6806bf0 <clean_reboot>
 68024e4:	e59f30ac 	ldr	r3, [pc, #172]	; 6802598 <mbr_check+0x170>
 68024e8:	e58d3000 	str	r3, [sp]
 68024ec:	e3a0300f 	mov	r3, #15, 0
 68024f0:	e59f2094 	ldr	r2, [pc, #148]	; 680258c <mbr_check+0x164>
 68024f4:	e59f1094 	ldr	r1, [pc, #148]	; 6802590 <mbr_check+0x168>
 68024f8:	e59f0094 	ldr	r0, [pc, #148]	; 6802594 <mbr_check+0x16c>
 68024fc:	eb001064 	bl	6806694 <printk>
 6802500:	eb0011ba 	bl	6806bf0 <clean_reboot>
 6802504:	e59f3090 	ldr	r3, [pc, #144]	; 680259c <mbr_check+0x174>
 6802508:	e58d3000 	str	r3, [sp]
 680250c:	e3a03015 	mov	r3, #21, 0
 6802510:	e59f2074 	ldr	r2, [pc, #116]	; 680258c <mbr_check+0x164>
 6802514:	e59f1074 	ldr	r1, [pc, #116]	; 6802590 <mbr_check+0x168>
 6802518:	e59f0074 	ldr	r0, [pc, #116]	; 6802594 <mbr_check+0x16c>
 680251c:	eb00105c 	bl	6806694 <printk>
 6802520:	eb0011b2 	bl	6806bf0 <clean_reboot>
 6802524:	e59f3074 	ldr	r3, [pc, #116]	; 68025a0 <mbr_check+0x178>
 6802528:	e58d3000 	str	r3, [sp]
 680252c:	e3a03016 	mov	r3, #22, 0
 6802530:	e59f2054 	ldr	r2, [pc, #84]	; 680258c <mbr_check+0x164>
 6802534:	e59f1054 	ldr	r1, [pc, #84]	; 6802590 <mbr_check+0x168>
 6802538:	e59f0054 	ldr	r0, [pc, #84]	; 6802594 <mbr_check+0x16c>
 680253c:	eb001054 	bl	6806694 <printk>
 6802540:	eb0011aa 	bl	6806bf0 <clean_reboot>
 6802544:	e59f3058 	ldr	r3, [pc, #88]	; 68025a4 <mbr_check+0x17c>
 6802548:	e58d3000 	str	r3, [sp]
 680254c:	e3a03017 	mov	r3, #23, 0
 6802550:	e59f2034 	ldr	r2, [pc, #52]	; 680258c <mbr_check+0x164>
 6802554:	e59f1034 	ldr	r1, [pc, #52]	; 6802590 <mbr_check+0x168>
 6802558:	e59f0034 	ldr	r0, [pc, #52]	; 6802594 <mbr_check+0x16c>
 680255c:	eb00104c 	bl	6806694 <printk>
 6802560:	eb0011a2 	bl	6806bf0 <clean_reboot>
 6802564:	e59f303c 	ldr	r3, [pc, #60]	; 68025a8 <mbr_check+0x180>
 6802568:	e58d3000 	str	r3, [sp]
 680256c:	e3a03018 	mov	r3, #24, 0
 6802570:	e59f2014 	ldr	r2, [pc, #20]	; 680258c <mbr_check+0x164>
 6802574:	e59f1014 	ldr	r1, [pc, #20]	; 6802590 <mbr_check+0x168>
 6802578:	e59f0014 	ldr	r0, [pc, #20]	; 6802594 <mbr_check+0x16c>
 680257c:	eb001044 	bl	6806694 <printk>
 6802580:	eb00119a 	bl	6806bf0 <clean_reboot>
 6802584:	0000aa55 	.word	0x0000aa55
 6802588:	06808008 	.word	0x06808008
 680258c:	068081cc 	.word	0x068081cc
 6802590:	06807d74 	.word	0x06807d74
 6802594:	0680745c 	.word	0x0680745c
 6802598:	06808020 	.word	0x06808020
 680259c:	06808040 	.word	0x06808040
 68025a0:	0680806c 	.word	0x0680806c
 68025a4:	06808094 	.word	0x06808094
 68025a8:	068080bc 	.word	0x068080bc

068025ac <mbr_partition_print>:
 68025ac:	e92d4030 	push	{r4, r5, lr}
 68025b0:	e24dd00c 	sub	sp, sp, #12, 0
 68025b4:	e1a04001 	mov	r4, r1
 68025b8:	e1a01000 	mov	r1, r0
 68025bc:	e59f00fc 	ldr	r0, [pc, #252]	; 68026c0 <mbr_partition_print+0x114>
 68025c0:	eb001033 	bl	6806694 <printk>
 68025c4:	e5d43000 	ldrb	r3, [r4]
 68025c8:	e3530000 	cmp	r3, #0, 0
 68025cc:	0a000031 	beq	6802698 <mbr_partition_print+0xec>
 68025d0:	e59f10ec 	ldr	r1, [pc, #236]	; 68026c4 <mbr_partition_print+0x118>
 68025d4:	e59f00ec 	ldr	r0, [pc, #236]	; 68026c8 <mbr_partition_print+0x11c>
 68025d8:	eb00102d 	bl	6806694 <printk>
 68025dc:	e5d43001 	ldrb	r3, [r4, #1]
 68025e0:	e5d41002 	ldrb	r1, [r4, #2]
 68025e4:	e1833401 	orr	r3, r3, r1, lsl #8
 68025e8:	e5d41003 	ldrb	r1, [r4, #3]
 68025ec:	e1831801 	orr	r1, r3, r1, lsl #16
 68025f0:	e59f00d4 	ldr	r0, [pc, #212]	; 68026cc <mbr_partition_print+0x120>
 68025f4:	eb001026 	bl	6806694 <printk>
 68025f8:	e5d45004 	ldrb	r5, [r4, #4]
 68025fc:	e1a00005 	mov	r0, r5
 6802600:	ebfffe0b 	bl	6801e34 <mbr_part_str>
 6802604:	e1a02000 	mov	r2, r0
 6802608:	e1a01005 	mov	r1, r5
 680260c:	e59f00bc 	ldr	r0, [pc, #188]	; 68026d0 <mbr_partition_print+0x124>
 6802610:	eb00101f 	bl	6806694 <printk>
 6802614:	e5d43005 	ldrb	r3, [r4, #5]
 6802618:	e5d41006 	ldrb	r1, [r4, #6]
 680261c:	e1833401 	orr	r3, r3, r1, lsl #8
 6802620:	e5d41007 	ldrb	r1, [r4, #7]
 6802624:	e1831801 	orr	r1, r3, r1, lsl #16
 6802628:	e59f00a4 	ldr	r0, [pc, #164]	; 68026d4 <mbr_partition_print+0x128>
 680262c:	eb001018 	bl	6806694 <printk>
 6802630:	e5d43008 	ldrb	r3, [r4, #8]
 6802634:	e5d41009 	ldrb	r1, [r4, #9]
 6802638:	e1833401 	orr	r3, r3, r1, lsl #8
 680263c:	e5d4100a 	ldrb	r1, [r4, #10]
 6802640:	e1833801 	orr	r3, r3, r1, lsl #16
 6802644:	e5d4100b 	ldrb	r1, [r4, #11]
 6802648:	e1831c01 	orr	r1, r3, r1, lsl #24
 680264c:	e59f0084 	ldr	r0, [pc, #132]	; 68026d8 <mbr_partition_print+0x12c>
 6802650:	eb00100f 	bl	6806694 <printk>
 6802654:	e5d4100c 	ldrb	r1, [r4, #12]
 6802658:	e5d4300d 	ldrb	r3, [r4, #13]
 680265c:	e1811403 	orr	r1, r1, r3, lsl #8
 6802660:	e5d4300e 	ldrb	r3, [r4, #14]
 6802664:	e1811803 	orr	r1, r1, r3, lsl #16
 6802668:	e5d4300f 	ldrb	r3, [r4, #15]
 680266c:	e1811c03 	orr	r1, r1, r3, lsl #24
 6802670:	e1a02aa1 	lsr	r2, r1, #21
 6802674:	e59f0060 	ldr	r0, [pc, #96]	; 68026dc <mbr_partition_print+0x130>
 6802678:	eb001005 	bl	6806694 <printk>
 680267c:	e5d43004 	ldrb	r3, [r4, #4]
 6802680:	e243300b 	sub	r3, r3, #11, 0
 6802684:	e6ef3073 	uxtb	r3, r3
 6802688:	e3530001 	cmp	r3, #1, 0
 680268c:	8a000003 	bhi	68026a0 <mbr_partition_print+0xf4>
 6802690:	e28dd00c 	add	sp, sp, #12, 0
 6802694:	e8bd8030 	pop	{r4, r5, pc}
 6802698:	e59f1040 	ldr	r1, [pc, #64]	; 68026e0 <mbr_partition_print+0x134>
 680269c:	eaffffcc 	b	68025d4 <mbr_partition_print+0x28>
 68026a0:	e59f303c 	ldr	r3, [pc, #60]	; 68026e4 <mbr_partition_print+0x138>
 68026a4:	e58d3000 	str	r3, [sp]
 68026a8:	e3a03061 	mov	r3, #97, 0	; 0x61
 68026ac:	e59f2034 	ldr	r2, [pc, #52]	; 68026e8 <mbr_partition_print+0x13c>
 68026b0:	e59f1034 	ldr	r1, [pc, #52]	; 68026ec <mbr_partition_print+0x140>
 68026b4:	e59f0034 	ldr	r0, [pc, #52]	; 68026f0 <mbr_partition_print+0x144>
 68026b8:	eb000ff5 	bl	6806694 <printk>
 68026bc:	eb00114b 	bl	6806bf0 <clean_reboot>
 68026c0:	068080f4 	.word	0x068080f4
 68026c4:	068080ec 	.word	0x068080ec
 68026c8:	068080fc 	.word	0x068080fc
 68026cc:	06808110 	.word	0x06808110
 68026d0:	06808124 	.word	0x06808124
 68026d4:	0680813c 	.word	0x0680813c
 68026d8:	06808150 	.word	0x06808150
 68026dc:	06808164 	.word	0x06808164
 68026e0:	068080e4 	.word	0x068080e4
 68026e4:	0680817c 	.word	0x0680817c
 68026e8:	068081d8 	.word	0x068081d8
 68026ec:	06807d74 	.word	0x06807d74
 68026f0:	0680745c 	.word	0x0680745c

068026f4 <to_8dot3>:
 68026f4:	e92d4010 	push	{r4, lr}
 68026f8:	e1a04000 	mov	r4, r0
 68026fc:	e3a02008 	mov	r2, #8, 0
 6802700:	e1a01000 	mov	r1, r0
 6802704:	e59f0070 	ldr	r0, [pc, #112]	; 680277c <to_8dot3+0x88>
 6802708:	eb000f82 	bl	6806518 <memcpy>
 680270c:	e3a03007 	mov	r3, #7, 0
 6802710:	ea000000 	b	6802718 <to_8dot3+0x24>
 6802714:	e2433001 	sub	r3, r3, #1, 0
 6802718:	e3530000 	cmp	r3, #0, 0
 680271c:	ba000004 	blt	6802734 <to_8dot3+0x40>
 6802720:	e59f2054 	ldr	r2, [pc, #84]	; 680277c <to_8dot3+0x88>
 6802724:	e7d22003 	ldrb	r2, [r2, r3]
 6802728:	e3520020 	cmp	r2, #32, 0
 680272c:	0afffff8 	beq	6802714 <to_8dot3+0x20>
 6802730:	e2833001 	add	r3, r3, #1, 0
 6802734:	e2832001 	add	r2, r3, #1, 0
 6802738:	e59f103c 	ldr	r1, [pc, #60]	; 680277c <to_8dot3+0x88>
 680273c:	e3a0002e 	mov	r0, #46, 0	; 0x2e
 6802740:	e7c10003 	strb	r0, [r1, r3]
 6802744:	e3a03000 	mov	r3, #0, 0
 6802748:	e3530002 	cmp	r3, #2, 0
 680274c:	ca000006 	bgt	680276c <to_8dot3+0x78>
 6802750:	e0841003 	add	r1, r4, r3
 6802754:	e5d10008 	ldrb	r0, [r1, #8]
 6802758:	e59f101c 	ldr	r1, [pc, #28]	; 680277c <to_8dot3+0x88>
 680275c:	e7c10002 	strb	r0, [r1, r2]
 6802760:	e2833001 	add	r3, r3, #1, 0
 6802764:	e2822001 	add	r2, r2, #1, 0
 6802768:	eafffff6 	b	6802748 <to_8dot3+0x54>
 680276c:	e59f0008 	ldr	r0, [pc, #8]	; 680277c <to_8dot3+0x88>
 6802770:	e3a03000 	mov	r3, #0, 0
 6802774:	e7c03002 	strb	r3, [r0, r2]
 6802778:	e8bd8010 	pop	{r4, pc}
 680277c:	0680a3cc 	.word	0x0680a3cc

06802780 <add_nul>:
 6802780:	e92d4070 	push	{r4, r5, r6, lr}
 6802784:	e1a01000 	mov	r1, r0
 6802788:	e59f501c 	ldr	r5, [pc, #28]	; 68027ac <add_nul+0x2c>
 680278c:	e2854010 	add	r4, r5, #16, 0
 6802790:	e3a0200b 	mov	r2, #11, 0
 6802794:	e1a00004 	mov	r0, r4
 6802798:	eb000f5e 	bl	6806518 <memcpy>
 680279c:	e3a03000 	mov	r3, #0, 0
 68027a0:	e5c5301b 	strb	r3, [r5, #27]
 68027a4:	e1a00004 	mov	r0, r4
 68027a8:	e8bd8070 	pop	{r4, r5, r6, pc}
 68027ac:	0680a3cc 	.word	0x0680a3cc

068027b0 <fat32_volume_id_check>:
 68027b0:	e52de004 	push	{lr}		; (str lr, [sp, #-4]!)
 68027b4:	e24dd00c 	sub	sp, sp, #12, 0
 68027b8:	e5d0300b 	ldrb	r3, [r0, #11]
 68027bc:	e5d0200c 	ldrb	r2, [r0, #12]
 68027c0:	e1833402 	orr	r3, r3, r2, lsl #8
 68027c4:	e3530c02 	cmp	r3, #512	; 0x200
 68027c8:	1a000035 	bne	68028a4 <fat32_volume_id_check+0xf4>
 68027cc:	e5d02010 	ldrb	r2, [r0, #16]
 68027d0:	e3520002 	cmp	r2, #2, 0
 68027d4:	1a00003a 	bne	68028c4 <fat32_volume_id_check+0x114>
 68027d8:	e5d021fe 	ldrb	r2, [r0, #510]	; 0x1fe
 68027dc:	e5d011ff 	ldrb	r1, [r0, #511]	; 0x1ff
 68027e0:	e1822401 	orr	r2, r2, r1, lsl #8
 68027e4:	e59f1238 	ldr	r1, [pc, #568]	; 6802a24 <fat32_volume_id_check+0x274>
 68027e8:	e1520001 	cmp	r2, r1
 68027ec:	1a00003c 	bne	68028e4 <fat32_volume_id_check+0x134>
 68027f0:	e5d0200d 	ldrb	r2, [r0, #13]
 68027f4:	e2621000 	rsb	r1, r2, #0, 0
 68027f8:	e1d22001 	bics	r2, r2, r1
 68027fc:	1a000040 	bne	6802904 <fat32_volume_id_check+0x154>
 6802800:	e3530b01 	cmp	r3, #1024	; 0x400
 6802804:	13530c02 	cmpne	r3, #512	; 0x200
 6802808:	0a000002 	beq	6802818 <fat32_volume_id_check+0x68>
 680280c:	e3530a01 	cmp	r3, #4096	; 0x1000
 6802810:	13530b02 	cmpne	r3, #2048	; 0x800
 6802814:	1a000042 	bne	6802924 <fat32_volume_id_check+0x174>
 6802818:	e5d03011 	ldrb	r3, [r0, #17]
 680281c:	e5d02012 	ldrb	r2, [r0, #18]
 6802820:	e1933402 	orrs	r3, r3, r2, lsl #8
 6802824:	1a000046 	bne	6802944 <fat32_volume_id_check+0x194>
 6802828:	e5d03013 	ldrb	r3, [r0, #19]
 680282c:	e5d02014 	ldrb	r2, [r0, #20]
 6802830:	e1933402 	orrs	r3, r3, r2, lsl #8
 6802834:	1a00004a 	bne	6802964 <fat32_volume_id_check+0x1b4>
 6802838:	e5d03016 	ldrb	r3, [r0, #22]
 680283c:	e5d02017 	ldrb	r2, [r0, #23]
 6802840:	e1933402 	orrs	r3, r3, r2, lsl #8
 6802844:	1a00004e 	bne	6802984 <fat32_volume_id_check+0x1d4>
 6802848:	e5d03020 	ldrb	r3, [r0, #32]
 680284c:	e5d02021 	ldrb	r2, [r0, #33]	; 0x21
 6802850:	e1833402 	orr	r3, r3, r2, lsl #8
 6802854:	e5d02022 	ldrb	r2, [r0, #34]	; 0x22
 6802858:	e1833802 	orr	r3, r3, r2, lsl #16
 680285c:	e5d02023 	ldrb	r2, [r0, #35]	; 0x23
 6802860:	e1933c02 	orrs	r3, r3, r2, lsl #24
 6802864:	0a00004e 	beq	68029a4 <fat32_volume_id_check+0x1f4>
 6802868:	e5d03030 	ldrb	r3, [r0, #48]	; 0x30
 680286c:	e5d02031 	ldrb	r2, [r0, #49]	; 0x31
 6802870:	e1833402 	orr	r3, r3, r2, lsl #8
 6802874:	e3530001 	cmp	r3, #1, 0
 6802878:	1a000051 	bne	68029c4 <fat32_volume_id_check+0x214>
 680287c:	e5d03032 	ldrb	r3, [r0, #50]	; 0x32
 6802880:	e5d02033 	ldrb	r2, [r0, #51]	; 0x33
 6802884:	e1833402 	orr	r3, r3, r2, lsl #8
 6802888:	e3530006 	cmp	r3, #6, 0
 680288c:	1a000054 	bne	68029e4 <fat32_volume_id_check+0x234>
 6802890:	e5d03042 	ldrb	r3, [r0, #66]	; 0x42
 6802894:	e3530029 	cmp	r3, #41, 0	; 0x29
 6802898:	1a000059 	bne	6802a04 <fat32_volume_id_check+0x254>
 680289c:	e28dd00c 	add	sp, sp, #12, 0
 68028a0:	e49df004 	pop	{pc}		; (ldr pc, [sp], #4)
 68028a4:	e59f317c 	ldr	r3, [pc, #380]	; 6802a28 <fat32_volume_id_check+0x278>
 68028a8:	e58d3000 	str	r3, [sp]
 68028ac:	e3a0300f 	mov	r3, #15, 0
 68028b0:	e59f2174 	ldr	r2, [pc, #372]	; 6802a2c <fat32_volume_id_check+0x27c>
 68028b4:	e59f1174 	ldr	r1, [pc, #372]	; 6802a30 <fat32_volume_id_check+0x280>
 68028b8:	e59f0174 	ldr	r0, [pc, #372]	; 6802a34 <fat32_volume_id_check+0x284>
 68028bc:	eb000f74 	bl	6806694 <printk>
 68028c0:	eb0010ca 	bl	6806bf0 <clean_reboot>
 68028c4:	e59f316c 	ldr	r3, [pc, #364]	; 6802a38 <fat32_volume_id_check+0x288>
 68028c8:	e58d3000 	str	r3, [sp]
 68028cc:	e3a03010 	mov	r3, #16, 0
 68028d0:	e59f2154 	ldr	r2, [pc, #340]	; 6802a2c <fat32_volume_id_check+0x27c>
 68028d4:	e59f1154 	ldr	r1, [pc, #340]	; 6802a30 <fat32_volume_id_check+0x280>
 68028d8:	e59f0154 	ldr	r0, [pc, #340]	; 6802a34 <fat32_volume_id_check+0x284>
 68028dc:	eb000f6c 	bl	6806694 <printk>
 68028e0:	eb0010c2 	bl	6806bf0 <clean_reboot>
 68028e4:	e59f3150 	ldr	r3, [pc, #336]	; 6802a3c <fat32_volume_id_check+0x28c>
 68028e8:	e58d3000 	str	r3, [sp]
 68028ec:	e3a03011 	mov	r3, #17, 0
 68028f0:	e59f2134 	ldr	r2, [pc, #308]	; 6802a2c <fat32_volume_id_check+0x27c>
 68028f4:	e59f1134 	ldr	r1, [pc, #308]	; 6802a30 <fat32_volume_id_check+0x280>
 68028f8:	e59f0134 	ldr	r0, [pc, #308]	; 6802a34 <fat32_volume_id_check+0x284>
 68028fc:	eb000f64 	bl	6806694 <printk>
 6802900:	eb0010ba 	bl	6806bf0 <clean_reboot>
 6802904:	e59f3134 	ldr	r3, [pc, #308]	; 6802a40 <fat32_volume_id_check+0x290>
 6802908:	e58d3000 	str	r3, [sp]
 680290c:	e3a03013 	mov	r3, #19, 0
 6802910:	e59f2114 	ldr	r2, [pc, #276]	; 6802a2c <fat32_volume_id_check+0x27c>
 6802914:	e59f1114 	ldr	r1, [pc, #276]	; 6802a30 <fat32_volume_id_check+0x280>
 6802918:	e59f0114 	ldr	r0, [pc, #276]	; 6802a34 <fat32_volume_id_check+0x284>
 680291c:	eb000f5c 	bl	6806694 <printk>
 6802920:	eb0010b2 	bl	6806bf0 <clean_reboot>
 6802924:	e59f3118 	ldr	r3, [pc, #280]	; 6802a44 <fat32_volume_id_check+0x294>
 6802928:	e58d3000 	str	r3, [sp]
 680292c:	e3a03015 	mov	r3, #21, 0
 6802930:	e59f20f4 	ldr	r2, [pc, #244]	; 6802a2c <fat32_volume_id_check+0x27c>
 6802934:	e59f10f4 	ldr	r1, [pc, #244]	; 6802a30 <fat32_volume_id_check+0x280>
 6802938:	e59f00f4 	ldr	r0, [pc, #244]	; 6802a34 <fat32_volume_id_check+0x284>
 680293c:	eb000f54 	bl	6806694 <printk>
 6802940:	eb0010aa 	bl	6806bf0 <clean_reboot>
 6802944:	e59f30fc 	ldr	r3, [pc, #252]	; 6802a48 <fat32_volume_id_check+0x298>
 6802948:	e58d3000 	str	r3, [sp]
 680294c:	e3a03016 	mov	r3, #22, 0
 6802950:	e59f20d4 	ldr	r2, [pc, #212]	; 6802a2c <fat32_volume_id_check+0x27c>
 6802954:	e59f10d4 	ldr	r1, [pc, #212]	; 6802a30 <fat32_volume_id_check+0x280>
 6802958:	e59f00d4 	ldr	r0, [pc, #212]	; 6802a34 <fat32_volume_id_check+0x284>
 680295c:	eb000f4c 	bl	6806694 <printk>
 6802960:	eb0010a2 	bl	6806bf0 <clean_reboot>
 6802964:	e59f30e0 	ldr	r3, [pc, #224]	; 6802a4c <fat32_volume_id_check+0x29c>
 6802968:	e58d3000 	str	r3, [sp]
 680296c:	e3a03018 	mov	r3, #24, 0
 6802970:	e59f20b4 	ldr	r2, [pc, #180]	; 6802a2c <fat32_volume_id_check+0x27c>
 6802974:	e59f10b4 	ldr	r1, [pc, #180]	; 6802a30 <fat32_volume_id_check+0x280>
 6802978:	e59f00b4 	ldr	r0, [pc, #180]	; 6802a34 <fat32_volume_id_check+0x284>
 680297c:	eb000f44 	bl	6806694 <printk>
 6802980:	eb00109a 	bl	6806bf0 <clean_reboot>
 6802984:	e59f30c4 	ldr	r3, [pc, #196]	; 6802a50 <fat32_volume_id_check+0x2a0>
 6802988:	e58d3000 	str	r3, [sp]
 680298c:	e3a0301b 	mov	r3, #27, 0
 6802990:	e59f2094 	ldr	r2, [pc, #148]	; 6802a2c <fat32_volume_id_check+0x27c>
 6802994:	e59f1094 	ldr	r1, [pc, #148]	; 6802a30 <fat32_volume_id_check+0x280>
 6802998:	e59f0094 	ldr	r0, [pc, #148]	; 6802a34 <fat32_volume_id_check+0x284>
 680299c:	eb000f3c 	bl	6806694 <printk>
 68029a0:	eb001092 	bl	6806bf0 <clean_reboot>
 68029a4:	e59f30a8 	ldr	r3, [pc, #168]	; 6802a54 <fat32_volume_id_check+0x2a4>
 68029a8:	e58d3000 	str	r3, [sp]
 68029ac:	e3a0301c 	mov	r3, #28, 0
 68029b0:	e59f2074 	ldr	r2, [pc, #116]	; 6802a2c <fat32_volume_id_check+0x27c>
 68029b4:	e59f1074 	ldr	r1, [pc, #116]	; 6802a30 <fat32_volume_id_check+0x280>
 68029b8:	e59f0074 	ldr	r0, [pc, #116]	; 6802a34 <fat32_volume_id_check+0x284>
 68029bc:	eb000f34 	bl	6806694 <printk>
 68029c0:	eb00108a 	bl	6806bf0 <clean_reboot>
 68029c4:	e59f308c 	ldr	r3, [pc, #140]	; 6802a58 <fat32_volume_id_check+0x2a8>
 68029c8:	e58d3000 	str	r3, [sp]
 68029cc:	e3a0301f 	mov	r3, #31, 0
 68029d0:	e59f2054 	ldr	r2, [pc, #84]	; 6802a2c <fat32_volume_id_check+0x27c>
 68029d4:	e59f1054 	ldr	r1, [pc, #84]	; 6802a30 <fat32_volume_id_check+0x280>
 68029d8:	e59f0054 	ldr	r0, [pc, #84]	; 6802a34 <fat32_volume_id_check+0x284>
 68029dc:	eb000f2c 	bl	6806694 <printk>
 68029e0:	eb001082 	bl	6806bf0 <clean_reboot>
 68029e4:	e59f3070 	ldr	r3, [pc, #112]	; 6802a5c <fat32_volume_id_check+0x2ac>
 68029e8:	e58d3000 	str	r3, [sp]
 68029ec:	e3a03020 	mov	r3, #32, 0
 68029f0:	e59f2034 	ldr	r2, [pc, #52]	; 6802a2c <fat32_volume_id_check+0x27c>
 68029f4:	e59f1034 	ldr	r1, [pc, #52]	; 6802a30 <fat32_volume_id_check+0x280>
 68029f8:	e59f0034 	ldr	r0, [pc, #52]	; 6802a34 <fat32_volume_id_check+0x284>
 68029fc:	eb000f24 	bl	6806694 <printk>
 6802a00:	eb00107a 	bl	6806bf0 <clean_reboot>
 6802a04:	e59f3054 	ldr	r3, [pc, #84]	; 6802a60 <fat32_volume_id_check+0x2b0>
 6802a08:	e58d3000 	str	r3, [sp]
 6802a0c:	e3a03021 	mov	r3, #33, 0	; 0x21
 6802a10:	e59f2014 	ldr	r2, [pc, #20]	; 6802a2c <fat32_volume_id_check+0x27c>
 6802a14:	e59f1014 	ldr	r1, [pc, #20]	; 6802a30 <fat32_volume_id_check+0x280>
 6802a18:	e59f0014 	ldr	r0, [pc, #20]	; 6802a34 <fat32_volume_id_check+0x284>
 6802a1c:	eb000f1c 	bl	6806694 <printk>
 6802a20:	eb001072 	bl	6806bf0 <clean_reboot>
 6802a24:	0000aa55 	.word	0x0000aa55
 6802a28:	068081fc 	.word	0x068081fc
 6802a2c:	0680895c 	.word	0x0680895c
 6802a30:	068081ec 	.word	0x068081ec
 6802a34:	0680745c 	.word	0x0680745c
 6802a38:	06808214 	.word	0x06808214
 6802a3c:	06808224 	.word	0x06808224
 6802a40:	06808238 	.word	0x06808238
 6802a44:	06808254 	.word	0x06808254
 6802a48:	06808284 	.word	0x06808284
 6802a4c:	06808294 	.word	0x06808294
 6802a50:	068082a4 	.word	0x068082a4
 6802a54:	068082b4 	.word	0x068082b4
 6802a58:	068082c8 	.word	0x068082c8
 6802a5c:	068082e0 	.word	0x068082e0
 6802a60:	068082f8 	.word	0x068082f8

06802a64 <fat32_volume_id_print>:
 6802a64:	e92d4030 	push	{r4, r5, lr}
 6802a68:	e24dd02c 	sub	sp, sp, #44, 0	; 0x2c
 6802a6c:	e1a04001 	mov	r4, r1
 6802a70:	e1a01000 	mov	r1, r0
 6802a74:	e59f0240 	ldr	r0, [pc, #576]	; 6802cbc <fat32_volume_id_print+0x258>
 6802a78:	eb000f05 	bl	6806694 <printk>
 6802a7c:	e3a02008 	mov	r2, #8, 0
 6802a80:	e2841003 	add	r1, r4, #3, 0
 6802a84:	e28d001c 	add	r0, sp, #28, 0
 6802a88:	eb000ea2 	bl	6806518 <memcpy>
 6802a8c:	e3a05000 	mov	r5, #0, 0
 6802a90:	e5cd5024 	strb	r5, [sp, #36]	; 0x24
 6802a94:	e3a0200b 	mov	r2, #11, 0
 6802a98:	e2841047 	add	r1, r4, #71, 0	; 0x47
 6802a9c:	e28d0010 	add	r0, sp, #16, 0
 6802aa0:	eb000e9c 	bl	6806518 <memcpy>
 6802aa4:	e5cd5027 	strb	r5, [sp, #39]	; 0x27
 6802aa8:	e3a02008 	mov	r2, #8, 0
 6802aac:	e2841052 	add	r1, r4, #82, 0	; 0x52
 6802ab0:	e28d0004 	add	r0, sp, #4, 0
 6802ab4:	eb000e97 	bl	6806518 <memcpy>
 6802ab8:	e5cd500c 	strb	r5, [sp, #12]
 6802abc:	e28d101c 	add	r1, sp, #28, 0
 6802ac0:	e59f01f8 	ldr	r0, [pc, #504]	; 6802cc0 <fat32_volume_id_print+0x25c>
 6802ac4:	eb000ef2 	bl	6806694 <printk>
 6802ac8:	e5d4300b 	ldrb	r3, [r4, #11]
 6802acc:	e5d4100c 	ldrb	r1, [r4, #12]
 6802ad0:	e1831401 	orr	r1, r3, r1, lsl #8
 6802ad4:	e59f01e8 	ldr	r0, [pc, #488]	; 6802cc4 <fat32_volume_id_print+0x260>
 6802ad8:	eb000eed 	bl	6806694 <printk>
 6802adc:	e5d4100d 	ldrb	r1, [r4, #13]
 6802ae0:	e59f01e0 	ldr	r0, [pc, #480]	; 6802cc8 <fat32_volume_id_print+0x264>
 6802ae4:	eb000eea 	bl	6806694 <printk>
 6802ae8:	e5d4300e 	ldrb	r3, [r4, #14]
 6802aec:	e5d4100f 	ldrb	r1, [r4, #15]
 6802af0:	e1831401 	orr	r1, r3, r1, lsl #8
 6802af4:	e59f01d0 	ldr	r0, [pc, #464]	; 6802ccc <fat32_volume_id_print+0x268>
 6802af8:	eb000ee5 	bl	6806694 <printk>
 6802afc:	e5d41010 	ldrb	r1, [r4, #16]
 6802b00:	e59f01c8 	ldr	r0, [pc, #456]	; 6802cd0 <fat32_volume_id_print+0x26c>
 6802b04:	eb000ee2 	bl	6806694 <printk>
 6802b08:	e5d43011 	ldrb	r3, [r4, #17]
 6802b0c:	e5d41012 	ldrb	r1, [r4, #18]
 6802b10:	e1831401 	orr	r1, r3, r1, lsl #8
 6802b14:	e59f01b8 	ldr	r0, [pc, #440]	; 6802cd4 <fat32_volume_id_print+0x270>
 6802b18:	eb000edd 	bl	6806694 <printk>
 6802b1c:	e5d43013 	ldrb	r3, [r4, #19]
 6802b20:	e5d41014 	ldrb	r1, [r4, #20]
 6802b24:	e1831401 	orr	r1, r3, r1, lsl #8
 6802b28:	e59f01a8 	ldr	r0, [pc, #424]	; 6802cd8 <fat32_volume_id_print+0x274>
 6802b2c:	eb000ed8 	bl	6806694 <printk>
 6802b30:	e5d41015 	ldrb	r1, [r4, #21]
 6802b34:	e59f01a0 	ldr	r0, [pc, #416]	; 6802cdc <fat32_volume_id_print+0x278>
 6802b38:	eb000ed5 	bl	6806694 <printk>
 6802b3c:	e5d43018 	ldrb	r3, [r4, #24]
 6802b40:	e5d41019 	ldrb	r1, [r4, #25]
 6802b44:	e1831401 	orr	r1, r3, r1, lsl #8
 6802b48:	e59f0190 	ldr	r0, [pc, #400]	; 6802ce0 <fat32_volume_id_print+0x27c>
 6802b4c:	eb000ed0 	bl	6806694 <printk>
 6802b50:	e5d4301a 	ldrb	r3, [r4, #26]
 6802b54:	e5d4101b 	ldrb	r1, [r4, #27]
 6802b58:	e1831401 	orr	r1, r3, r1, lsl #8
 6802b5c:	e59f0180 	ldr	r0, [pc, #384]	; 6802ce4 <fat32_volume_id_print+0x280>
 6802b60:	eb000ecb 	bl	6806694 <printk>
 6802b64:	e5d4301c 	ldrb	r3, [r4, #28]
 6802b68:	e5d4101d 	ldrb	r1, [r4, #29]
 6802b6c:	e1833401 	orr	r3, r3, r1, lsl #8
 6802b70:	e5d4101e 	ldrb	r1, [r4, #30]
 6802b74:	e1833801 	orr	r3, r3, r1, lsl #16
 6802b78:	e5d4101f 	ldrb	r1, [r4, #31]
 6802b7c:	e1831c01 	orr	r1, r3, r1, lsl #24
 6802b80:	e59f0160 	ldr	r0, [pc, #352]	; 6802ce8 <fat32_volume_id_print+0x284>
 6802b84:	eb000ec2 	bl	6806694 <printk>
 6802b88:	e5d43020 	ldrb	r3, [r4, #32]
 6802b8c:	e5d41021 	ldrb	r1, [r4, #33]	; 0x21
 6802b90:	e1833401 	orr	r3, r3, r1, lsl #8
 6802b94:	e5d41022 	ldrb	r1, [r4, #34]	; 0x22
 6802b98:	e1833801 	orr	r3, r3, r1, lsl #16
 6802b9c:	e5d41023 	ldrb	r1, [r4, #35]	; 0x23
 6802ba0:	e1831c01 	orr	r1, r3, r1, lsl #24
 6802ba4:	e59f0140 	ldr	r0, [pc, #320]	; 6802cec <fat32_volume_id_print+0x288>
 6802ba8:	eb000eb9 	bl	6806694 <printk>
 6802bac:	e5d43024 	ldrb	r3, [r4, #36]	; 0x24
 6802bb0:	e5d41025 	ldrb	r1, [r4, #37]	; 0x25
 6802bb4:	e1833401 	orr	r3, r3, r1, lsl #8
 6802bb8:	e5d41026 	ldrb	r1, [r4, #38]	; 0x26
 6802bbc:	e1833801 	orr	r3, r3, r1, lsl #16
 6802bc0:	e5d41027 	ldrb	r1, [r4, #39]	; 0x27
 6802bc4:	e1831c01 	orr	r1, r3, r1, lsl #24
 6802bc8:	e59f0120 	ldr	r0, [pc, #288]	; 6802cf0 <fat32_volume_id_print+0x28c>
 6802bcc:	eb000eb0 	bl	6806694 <printk>
 6802bd0:	e5d43028 	ldrb	r3, [r4, #40]	; 0x28
 6802bd4:	e5d41029 	ldrb	r1, [r4, #41]	; 0x29
 6802bd8:	e1831401 	orr	r1, r3, r1, lsl #8
 6802bdc:	e59f0110 	ldr	r0, [pc, #272]	; 6802cf4 <fat32_volume_id_print+0x290>
 6802be0:	eb000eab 	bl	6806694 <printk>
 6802be4:	e5d4302a 	ldrb	r3, [r4, #42]	; 0x2a
 6802be8:	e5d4102b 	ldrb	r1, [r4, #43]	; 0x2b
 6802bec:	e1831401 	orr	r1, r3, r1, lsl #8
 6802bf0:	e59f0100 	ldr	r0, [pc, #256]	; 6802cf8 <fat32_volume_id_print+0x294>
 6802bf4:	eb000ea6 	bl	6806694 <printk>
 6802bf8:	e5d4302c 	ldrb	r3, [r4, #44]	; 0x2c
 6802bfc:	e5d4102d 	ldrb	r1, [r4, #45]	; 0x2d
 6802c00:	e1833401 	orr	r3, r3, r1, lsl #8
 6802c04:	e5d4102e 	ldrb	r1, [r4, #46]	; 0x2e
 6802c08:	e1833801 	orr	r3, r3, r1, lsl #16
 6802c0c:	e5d4102f 	ldrb	r1, [r4, #47]	; 0x2f
 6802c10:	e1831c01 	orr	r1, r3, r1, lsl #24
 6802c14:	e59f00e0 	ldr	r0, [pc, #224]	; 6802cfc <fat32_volume_id_print+0x298>
 6802c18:	eb000e9d 	bl	6806694 <printk>
 6802c1c:	e5d43030 	ldrb	r3, [r4, #48]	; 0x30
 6802c20:	e5d41031 	ldrb	r1, [r4, #49]	; 0x31
 6802c24:	e1831401 	orr	r1, r3, r1, lsl #8
 6802c28:	e59f00d0 	ldr	r0, [pc, #208]	; 6802d00 <fat32_volume_id_print+0x29c>
 6802c2c:	eb000e98 	bl	6806694 <printk>
 6802c30:	e5d43032 	ldrb	r3, [r4, #50]	; 0x32
 6802c34:	e5d41033 	ldrb	r1, [r4, #51]	; 0x33
 6802c38:	e1831401 	orr	r1, r3, r1, lsl #8
 6802c3c:	e59f00c0 	ldr	r0, [pc, #192]	; 6802d04 <fat32_volume_id_print+0x2a0>
 6802c40:	eb000e93 	bl	6806694 <printk>
 6802c44:	e5d41040 	ldrb	r1, [r4, #64]	; 0x40
 6802c48:	e59f00b8 	ldr	r0, [pc, #184]	; 6802d08 <fat32_volume_id_print+0x2a4>
 6802c4c:	eb000e90 	bl	6806694 <printk>
 6802c50:	e5d41042 	ldrb	r1, [r4, #66]	; 0x42
 6802c54:	e59f00b0 	ldr	r0, [pc, #176]	; 6802d0c <fat32_volume_id_print+0x2a8>
 6802c58:	eb000e8d 	bl	6806694 <printk>
 6802c5c:	e5d43043 	ldrb	r3, [r4, #67]	; 0x43
 6802c60:	e5d41044 	ldrb	r1, [r4, #68]	; 0x44
 6802c64:	e1833401 	orr	r3, r3, r1, lsl #8
 6802c68:	e5d41045 	ldrb	r1, [r4, #69]	; 0x45
 6802c6c:	e1833801 	orr	r3, r3, r1, lsl #16
 6802c70:	e5d41046 	ldrb	r1, [r4, #70]	; 0x46
 6802c74:	e1831c01 	orr	r1, r3, r1, lsl #24
 6802c78:	e59f0090 	ldr	r0, [pc, #144]	; 6802d10 <fat32_volume_id_print+0x2ac>
 6802c7c:	eb000e84 	bl	6806694 <printk>
 6802c80:	e28d1010 	add	r1, sp, #16, 0
 6802c84:	e59f0088 	ldr	r0, [pc, #136]	; 6802d14 <fat32_volume_id_print+0x2b0>
 6802c88:	eb000e81 	bl	6806694 <printk>
 6802c8c:	e28d1004 	add	r1, sp, #4, 0
 6802c90:	e59f0080 	ldr	r0, [pc, #128]	; 6802d18 <fat32_volume_id_print+0x2b4>
 6802c94:	eb000e7e 	bl	6806694 <printk>
 6802c98:	e5d431fe 	ldrb	r3, [r4, #510]	; 0x1fe
 6802c9c:	e5d411ff 	ldrb	r1, [r4, #511]	; 0x1ff
 6802ca0:	e1831401 	orr	r1, r3, r1, lsl #8
 6802ca4:	e59f0070 	ldr	r0, [pc, #112]	; 6802d1c <fat32_volume_id_print+0x2b8>
 6802ca8:	eb000e79 	bl	6806694 <printk>
 6802cac:	e1a00004 	mov	r0, r4
 6802cb0:	ebfffebe 	bl	68027b0 <fat32_volume_id_check>
 6802cb4:	e28dd02c 	add	sp, sp, #44, 0	; 0x2c
 6802cb8:	e8bd8030 	pop	{r4, r5, pc}
 6802cbc:	068080f4 	.word	0x068080f4
 6802cc0:	06808310 	.word	0x06808310
 6802cc4:	0680832c 	.word	0x0680832c
 6802cc8:	06808348 	.word	0x06808348
 6802ccc:	06808364 	.word	0x06808364
 6802cd0:	06808380 	.word	0x06808380
 6802cd4:	0680839c 	.word	0x0680839c
 6802cd8:	068083b8 	.word	0x068083b8
 6802cdc:	068083d4 	.word	0x068083d4
 6802ce0:	068083f0 	.word	0x068083f0
 6802ce4:	0680840c 	.word	0x0680840c
 6802ce8:	06808428 	.word	0x06808428
 6802cec:	06808444 	.word	0x06808444
 6802cf0:	06808460 	.word	0x06808460
 6802cf4:	0680847c 	.word	0x0680847c
 6802cf8:	06808498 	.word	0x06808498
 6802cfc:	068084b4 	.word	0x068084b4
 6802d00:	068084d0 	.word	0x068084d0
 6802d04:	068084ec 	.word	0x068084ec
 6802d08:	06808508 	.word	0x06808508
 6802d0c:	06808524 	.word	0x06808524
 6802d10:	06808540 	.word	0x06808540
 6802d14:	0680855c 	.word	0x0680855c
 6802d18:	06808578 	.word	0x06808578
 6802d1c:	06808594 	.word	0x06808594

06802d20 <fat32_fsinfo_print>:
 6802d20:	e92d4010 	push	{r4, lr}
 6802d24:	e1a04001 	mov	r4, r1
 6802d28:	e1a01000 	mov	r1, r0
 6802d2c:	e59f0040 	ldr	r0, [pc, #64]	; 6802d74 <fat32_fsinfo_print+0x54>
 6802d30:	eb000e57 	bl	6806694 <printk>
 6802d34:	e5941000 	ldr	r1, [r4]
 6802d38:	e59f0038 	ldr	r0, [pc, #56]	; 6802d78 <fat32_fsinfo_print+0x58>
 6802d3c:	eb000e54 	bl	6806694 <printk>
 6802d40:	e59411e4 	ldr	r1, [r4, #484]	; 0x1e4
 6802d44:	e59f0030 	ldr	r0, [pc, #48]	; 6802d7c <fat32_fsinfo_print+0x5c>
 6802d48:	eb000e51 	bl	6806694 <printk>
 6802d4c:	e59411fc 	ldr	r1, [r4, #508]	; 0x1fc
 6802d50:	e59f0028 	ldr	r0, [pc, #40]	; 6802d80 <fat32_fsinfo_print+0x60>
 6802d54:	eb000e4e 	bl	6806694 <printk>
 6802d58:	e59411e8 	ldr	r1, [r4, #488]	; 0x1e8
 6802d5c:	e59f0020 	ldr	r0, [pc, #32]	; 6802d84 <fat32_fsinfo_print+0x64>
 6802d60:	eb000e4b 	bl	6806694 <printk>
 6802d64:	e59411ec 	ldr	r1, [r4, #492]	; 0x1ec
 6802d68:	e59f0018 	ldr	r0, [pc, #24]	; 6802d88 <fat32_fsinfo_print+0x68>
 6802d6c:	eb000e48 	bl	6806694 <printk>
 6802d70:	e8bd8010 	pop	{r4, pc}
 6802d74:	068080f4 	.word	0x068080f4
 6802d78:	068085b0 	.word	0x068085b0
 6802d7c:	068085cc 	.word	0x068085cc
 6802d80:	068085e8 	.word	0x068085e8
 6802d84:	06808604 	.word	0x06808604
 6802d88:	06808620 	.word	0x06808620

06802d8c <fat32_fsinfo_check>:
 6802d8c:	e52de004 	push	{lr}		; (str lr, [sp, #-4]!)
 6802d90:	e24dd00c 	sub	sp, sp, #12, 0
 6802d94:	e5902000 	ldr	r2, [r0]
 6802d98:	e59f308c 	ldr	r3, [pc, #140]	; 6802e2c <fat32_fsinfo_check+0xa0>
 6802d9c:	e1520003 	cmp	r2, r3
 6802da0:	1a000009 	bne	6802dcc <fat32_fsinfo_check+0x40>
 6802da4:	e59021e4 	ldr	r2, [r0, #484]	; 0x1e4
 6802da8:	e59f3080 	ldr	r3, [pc, #128]	; 6802e30 <fat32_fsinfo_check+0xa4>
 6802dac:	e1520003 	cmp	r2, r3
 6802db0:	1a00000d 	bne	6802dec <fat32_fsinfo_check+0x60>
 6802db4:	e59021fc 	ldr	r2, [r0, #508]	; 0x1fc
 6802db8:	e59f3074 	ldr	r3, [pc, #116]	; 6802e34 <fat32_fsinfo_check+0xa8>
 6802dbc:	e1520003 	cmp	r2, r3
 6802dc0:	1a000011 	bne	6802e0c <fat32_fsinfo_check+0x80>
 6802dc4:	e28dd00c 	add	sp, sp, #12, 0
 6802dc8:	e49df004 	pop	{pc}		; (ldr pc, [sp], #4)
 6802dcc:	e59f3064 	ldr	r3, [pc, #100]	; 6802e38 <fat32_fsinfo_check+0xac>
 6802dd0:	e58d3000 	str	r3, [sp]
 6802dd4:	e3a03057 	mov	r3, #87, 0	; 0x57
 6802dd8:	e59f205c 	ldr	r2, [pc, #92]	; 6802e3c <fat32_fsinfo_check+0xb0>
 6802ddc:	e59f105c 	ldr	r1, [pc, #92]	; 6802e40 <fat32_fsinfo_check+0xb4>
 6802de0:	e59f005c 	ldr	r0, [pc, #92]	; 6802e44 <fat32_fsinfo_check+0xb8>
 6802de4:	eb000e2a 	bl	6806694 <printk>
 6802de8:	eb000f80 	bl	6806bf0 <clean_reboot>
 6802dec:	e59f3054 	ldr	r3, [pc, #84]	; 6802e48 <fat32_fsinfo_check+0xbc>
 6802df0:	e58d3000 	str	r3, [sp]
 6802df4:	e3a03058 	mov	r3, #88, 0	; 0x58
 6802df8:	e59f203c 	ldr	r2, [pc, #60]	; 6802e3c <fat32_fsinfo_check+0xb0>
 6802dfc:	e59f103c 	ldr	r1, [pc, #60]	; 6802e40 <fat32_fsinfo_check+0xb4>
 6802e00:	e59f003c 	ldr	r0, [pc, #60]	; 6802e44 <fat32_fsinfo_check+0xb8>
 6802e04:	eb000e22 	bl	6806694 <printk>
 6802e08:	eb000f78 	bl	6806bf0 <clean_reboot>
 6802e0c:	e59f3038 	ldr	r3, [pc, #56]	; 6802e4c <fat32_fsinfo_check+0xc0>
 6802e10:	e58d3000 	str	r3, [sp]
 6802e14:	e3a03059 	mov	r3, #89, 0	; 0x59
 6802e18:	e59f201c 	ldr	r2, [pc, #28]	; 6802e3c <fat32_fsinfo_check+0xb0>
 6802e1c:	e59f101c 	ldr	r1, [pc, #28]	; 6802e40 <fat32_fsinfo_check+0xb4>
 6802e20:	e59f001c 	ldr	r0, [pc, #28]	; 6802e44 <fat32_fsinfo_check+0xb8>
 6802e24:	eb000e1a 	bl	6806694 <printk>
 6802e28:	eb000f70 	bl	6806bf0 <clean_reboot>
 6802e2c:	41615252 	.word	0x41615252
 6802e30:	61417272 	.word	0x61417272
 6802e34:	aa550000 	.word	0xaa550000
 6802e38:	0680863c 	.word	0x0680863c
 6802e3c:	06808974 	.word	0x06808974
 6802e40:	068081ec 	.word	0x068081ec
 6802e44:	0680745c 	.word	0x0680745c
 6802e48:	06808658 	.word	0x06808658
 6802e4c:	06808674 	.word	0x06808674

06802e50 <fat32_fat_entry_type_str>:
 6802e50:	e370029f 	cmn	r0, #-268435447	; 0xf0000009
 6802e54:	0a000015 	beq	6802eb0 <fat32_fat_entry_type_str+0x60>
 6802e58:	8a000005 	bhi	6802e74 <fat32_fat_entry_type_str+0x24>
 6802e5c:	e3500000 	cmp	r0, #0, 0
 6802e60:	0a000014 	beq	6802eb8 <fat32_fat_entry_type_str+0x68>
 6802e64:	e3500001 	cmp	r0, #1, 0
 6802e68:	1a000007 	bne	6802e8c <fat32_fat_entry_type_str+0x3c>
 6802e6c:	e59f0054 	ldr	r0, [pc, #84]	; 6802ec8 <fat32_fat_entry_type_str+0x78>
 6802e70:	e12fff1e 	bx	lr
 6802e74:	e370028f 	cmn	r0, #-268435448	; 0xf0000008
 6802e78:	0a000010 	beq	6802ec0 <fat32_fat_entry_type_str+0x70>
 6802e7c:	e370027f 	cmn	r0, #-268435449	; 0xf0000007
 6802e80:	1a000001 	bne	6802e8c <fat32_fat_entry_type_str+0x3c>
 6802e84:	e59f0040 	ldr	r0, [pc, #64]	; 6802ecc <fat32_fat_entry_type_str+0x7c>
 6802e88:	e12fff1e 	bx	lr
 6802e8c:	e52de004 	push	{lr}		; (str lr, [sp, #-4]!)
 6802e90:	e24dd00c 	sub	sp, sp, #12, 0
 6802e94:	e58d0000 	str	r0, [sp]
 6802e98:	e3a03067 	mov	r3, #103, 0	; 0x67
 6802e9c:	e59f202c 	ldr	r2, [pc, #44]	; 6802ed0 <fat32_fat_entry_type_str+0x80>
 6802ea0:	e59f102c 	ldr	r1, [pc, #44]	; 6802ed4 <fat32_fat_entry_type_str+0x84>
 6802ea4:	e59f002c 	ldr	r0, [pc, #44]	; 6802ed8 <fat32_fat_entry_type_str+0x88>
 6802ea8:	eb000df9 	bl	6806694 <printk>
 6802eac:	eb000f4f 	bl	6806bf0 <clean_reboot>
 6802eb0:	e59f0024 	ldr	r0, [pc, #36]	; 6802edc <fat32_fat_entry_type_str+0x8c>
 6802eb4:	e12fff1e 	bx	lr
 6802eb8:	e59f0020 	ldr	r0, [pc, #32]	; 6802ee0 <fat32_fat_entry_type_str+0x90>
 6802ebc:	e12fff1e 	bx	lr
 6802ec0:	e59f001c 	ldr	r0, [pc, #28]	; 6802ee4 <fat32_fat_entry_type_str+0x94>
 6802ec4:	e12fff1e 	bx	lr
 6802ec8:	068086bc 	.word	0x068086bc
 6802ecc:	068086d0 	.word	0x068086d0
 6802ed0:	06808988 	.word	0x06808988
 6802ed4:	068081ec 	.word	0x068081ec
 6802ed8:	068086e0 	.word	0x068086e0
 6802edc:	06808690 	.word	0x06808690
 6802ee0:	0680869c 	.word	0x0680869c
 6802ee4:	068086ac 	.word	0x068086ac

06802ee8 <fat32_fat_entry_type>:
 6802ee8:	e3c0020f 	bic	r0, r0, #-268435456	; 0xf0000000
 6802eec:	e3500001 	cmp	r0, #1, 0
 6802ef0:	912fff1e 	bxls	lr
 6802ef4:	e370029f 	cmn	r0, #-268435447	; 0xf0000009
 6802ef8:	012fff1e 	bxeq	lr
 6802efc:	e2402002 	sub	r2, r0, #2, 0
 6802f00:	e59f3074 	ldr	r3, [pc, #116]	; 6802f7c <fat32_fat_entry_type+0x94>
 6802f04:	e1520003 	cmp	r2, r3
 6802f08:	9a000019 	bls	6802f74 <fat32_fat_entry_type+0x8c>
 6802f0c:	e52de004 	push	{lr}		; (str lr, [sp, #-4]!)
 6802f10:	e24dd00c 	sub	sp, sp, #12, 0
 6802f14:	e280320f 	add	r3, r0, #-268435456	; 0xf0000000
 6802f18:	e2833010 	add	r3, r3, #16, 0
 6802f1c:	e3530006 	cmp	r3, #6, 0
 6802f20:	9a000005 	bls	6802f3c <fat32_fat_entry_type+0x54>
 6802f24:	e280328f 	add	r3, r0, #-268435448	; 0xf0000008
 6802f28:	e3530007 	cmp	r3, #7, 0
 6802f2c:	8a000009 	bhi	6802f58 <fat32_fat_entry_type+0x70>
 6802f30:	e3e0027f 	mvn	r0, #-268435449	; 0xf0000007
 6802f34:	e28dd00c 	add	sp, sp, #12, 0
 6802f38:	e49df004 	pop	{pc}		; (ldr pc, [sp], #4)
 6802f3c:	e58d0000 	str	r0, [sp]
 6802f40:	e3a03077 	mov	r3, #119, 0	; 0x77
 6802f44:	e59f2034 	ldr	r2, [pc, #52]	; 6802f80 <fat32_fat_entry_type+0x98>
 6802f48:	e59f1034 	ldr	r1, [pc, #52]	; 6802f84 <fat32_fat_entry_type+0x9c>
 6802f4c:	e59f0034 	ldr	r0, [pc, #52]	; 6802f88 <fat32_fat_entry_type+0xa0>
 6802f50:	eb000dcf 	bl	6806694 <printk>
 6802f54:	eb000f25 	bl	6806bf0 <clean_reboot>
 6802f58:	e58d0000 	str	r0, [sp]
 6802f5c:	e3a0307a 	mov	r3, #122, 0	; 0x7a
 6802f60:	e59f2018 	ldr	r2, [pc, #24]	; 6802f80 <fat32_fat_entry_type+0x98>
 6802f64:	e59f1018 	ldr	r1, [pc, #24]	; 6802f84 <fat32_fat_entry_type+0x9c>
 6802f68:	e59f001c 	ldr	r0, [pc, #28]	; 6802f8c <fat32_fat_entry_type+0xa4>
 6802f6c:	eb000dc8 	bl	6806694 <printk>
 6802f70:	eb000f1e 	bl	6806bf0 <clean_reboot>
 6802f74:	e3e0026f 	mvn	r0, #-268435450	; 0xf0000006
 6802f78:	e12fff1e 	bx	lr
 6802f7c:	0fffffed 	.word	0x0fffffed
 6802f80:	068089a4 	.word	0x068089a4
 6802f84:	068081ec 	.word	0x068081ec
 6802f88:	06808700 	.word	0x06808700
 6802f8c:	06808724 	.word	0x06808724

06802f90 <fat32_dirent_free>:
 6802f90:	e5d03000 	ldrb	r3, [r0]
 6802f94:	e5d0200b 	ldrb	r2, [r0, #11]
 6802f98:	e352000f 	cmp	r2, #15, 0
 6802f9c:	0a000005 	beq	6802fb8 <fat32_dirent_free+0x28>
 6802fa0:	e35300e5 	cmp	r3, #229, 0	; 0xe5
 6802fa4:	13a00000 	movne	r0, #0, 0
 6802fa8:	03a00001 	moveq	r0, #1, 0
 6802fac:	e3530000 	cmp	r3, #0, 0
 6802fb0:	03a00001 	moveq	r0, #1, 0
 6802fb4:	e12fff1e 	bx	lr
 6802fb8:	e92d4010 	push	{r4, lr}
 6802fbc:	eb00024f 	bl	6803900 <fat32_dirent_is_deleted_lfn>
 6802fc0:	e8bd8010 	pop	{r4, pc}

06802fc4 <fat32_dir_attr_str>:
 6802fc4:	e350000f 	cmp	r0, #15, 0
 6802fc8:	0a000063 	beq	680315c <fat32_dir_attr_str+0x198>
 6802fcc:	e92d4010 	push	{r4, lr}
 6802fd0:	e24dd008 	sub	sp, sp, #8, 0
 6802fd4:	e1a04000 	mov	r4, r0
 6802fd8:	e59f3184 	ldr	r3, [pc, #388]	; 6803164 <fat32_dir_attr_str+0x1a0>
 6802fdc:	e3a02000 	mov	r2, #0, 0
 6802fe0:	e5c32020 	strb	r2, [r3, #32]
 6802fe4:	0a00002a 	beq	6803094 <fat32_dir_attr_str+0xd0>
 6802fe8:	e2003001 	and	r3, r0, #1, 0
 6802fec:	e3530000 	cmp	r3, #0, 0
 6802ff0:	1a00002b 	bne	68030a4 <fat32_dir_attr_str+0xe0>
 6802ff4:	e354000f 	cmp	r4, #15, 0
 6802ff8:	0a00002e 	beq	68030b8 <fat32_dir_attr_str+0xf4>
 6802ffc:	e3140002 	tst	r4, #2, 0
 6803000:	13a03001 	movne	r3, #1, 0
 6803004:	03a03000 	moveq	r3, #0, 0
 6803008:	e3530000 	cmp	r3, #0, 0
 680300c:	1a00002d 	bne	68030c8 <fat32_dir_attr_str+0x104>
 6803010:	e2443004 	sub	r3, r4, #4, 0
 6803014:	e353001c 	cmp	r3, #28, 0
 6803018:	979ff103 	ldrls	pc, [pc, r3, lsl #2]
 680301c:	ea000047 	b	6803140 <fat32_dir_attr_str+0x17c>
 6803020:	068030dc 	.word	0x068030dc
 6803024:	06803140 	.word	0x06803140
 6803028:	06803140 	.word	0x06803140
 680302c:	06803140 	.word	0x06803140
 6803030:	068030f8 	.word	0x068030f8
 6803034:	06803140 	.word	0x06803140
 6803038:	06803140 	.word	0x06803140
 680303c:	06803140 	.word	0x06803140
 6803040:	06803140 	.word	0x06803140
 6803044:	06803140 	.word	0x06803140
 6803048:	06803140 	.word	0x06803140
 680304c:	06803140 	.word	0x06803140
 6803050:	06803110 	.word	0x06803110
 6803054:	06803140 	.word	0x06803140
 6803058:	06803140 	.word	0x06803140
 680305c:	06803140 	.word	0x06803140
 6803060:	06803140 	.word	0x06803140
 6803064:	06803140 	.word	0x06803140
 6803068:	06803140 	.word	0x06803140
 680306c:	06803140 	.word	0x06803140
 6803070:	06803140 	.word	0x06803140
 6803074:	06803140 	.word	0x06803140
 6803078:	06803140 	.word	0x06803140
 680307c:	06803140 	.word	0x06803140
 6803080:	06803140 	.word	0x06803140
 6803084:	06803140 	.word	0x06803140
 6803088:	06803140 	.word	0x06803140
 680308c:	06803140 	.word	0x06803140
 6803090:	06803128 	.word	0x06803128
 6803094:	e3500001 	cmp	r0, #1, 0
 6803098:	13a03000 	movne	r3, #0, 0
 680309c:	03a03001 	moveq	r3, #1, 0
 68030a0:	eaffffd1 	b	6802fec <fat32_dir_attr_str+0x28>
 68030a4:	e59f10bc 	ldr	r1, [pc, #188]	; 6803168 <fat32_dir_attr_str+0x1a4>
 68030a8:	e59f00bc 	ldr	r0, [pc, #188]	; 680316c <fat32_dir_attr_str+0x1a8>
 68030ac:	eb000e81 	bl	6806ab8 <strcat>
 68030b0:	e3c44001 	bic	r4, r4, #1, 0
 68030b4:	eaffffce 	b	6802ff4 <fat32_dir_attr_str+0x30>
 68030b8:	e3540002 	cmp	r4, #2, 0
 68030bc:	13a03000 	movne	r3, #0, 0
 68030c0:	03a03001 	moveq	r3, #1, 0
 68030c4:	eaffffcf 	b	6803008 <fat32_dir_attr_str+0x44>
 68030c8:	e59f10a0 	ldr	r1, [pc, #160]	; 6803170 <fat32_dir_attr_str+0x1ac>
 68030cc:	e59f0098 	ldr	r0, [pc, #152]	; 680316c <fat32_dir_attr_str+0x1a8>
 68030d0:	eb000e78 	bl	6806ab8 <strcat>
 68030d4:	e3c44002 	bic	r4, r4, #2, 0
 68030d8:	eaffffcc 	b	6803010 <fat32_dir_attr_str+0x4c>
 68030dc:	e59f4088 	ldr	r4, [pc, #136]	; 680316c <fat32_dir_attr_str+0x1a8>
 68030e0:	e59f108c 	ldr	r1, [pc, #140]	; 6803174 <fat32_dir_attr_str+0x1b0>
 68030e4:	e1a00004 	mov	r0, r4
 68030e8:	eb000e72 	bl	6806ab8 <strcat>
 68030ec:	e1a00004 	mov	r0, r4
 68030f0:	e28dd008 	add	sp, sp, #8, 0
 68030f4:	e8bd8010 	pop	{r4, pc}
 68030f8:	e59f406c 	ldr	r4, [pc, #108]	; 680316c <fat32_dir_attr_str+0x1a8>
 68030fc:	e59f1074 	ldr	r1, [pc, #116]	; 6803178 <fat32_dir_attr_str+0x1b4>
 6803100:	e1a00004 	mov	r0, r4
 6803104:	eb000e6b 	bl	6806ab8 <strcat>
 6803108:	e1a00004 	mov	r0, r4
 680310c:	eafffff7 	b	68030f0 <fat32_dir_attr_str+0x12c>
 6803110:	e59f4054 	ldr	r4, [pc, #84]	; 680316c <fat32_dir_attr_str+0x1a8>
 6803114:	e59f1060 	ldr	r1, [pc, #96]	; 680317c <fat32_dir_attr_str+0x1b8>
 6803118:	e1a00004 	mov	r0, r4
 680311c:	eb000e65 	bl	6806ab8 <strcat>
 6803120:	e1a00004 	mov	r0, r4
 6803124:	eafffff1 	b	68030f0 <fat32_dir_attr_str+0x12c>
 6803128:	e59f403c 	ldr	r4, [pc, #60]	; 680316c <fat32_dir_attr_str+0x1a8>
 680312c:	e59f104c 	ldr	r1, [pc, #76]	; 6803180 <fat32_dir_attr_str+0x1bc>
 6803130:	e1a00004 	mov	r0, r4
 6803134:	eb000e5f 	bl	6806ab8 <strcat>
 6803138:	e1a00004 	mov	r0, r4
 680313c:	eaffffeb 	b	68030f0 <fat32_dir_attr_str+0x12c>
 6803140:	e58d4000 	str	r4, [sp]
 6803144:	e3a0309d 	mov	r3, #157, 0	; 0x9d
 6803148:	e59f2034 	ldr	r2, [pc, #52]	; 6803184 <fat32_dir_attr_str+0x1c0>
 680314c:	e59f1034 	ldr	r1, [pc, #52]	; 6803188 <fat32_dir_attr_str+0x1c4>
 6803150:	e59f0034 	ldr	r0, [pc, #52]	; 680318c <fat32_dir_attr_str+0x1c8>
 6803154:	eb000d4e 	bl	6806694 <printk>
 6803158:	eb000ea4 	bl	6806bf0 <clean_reboot>
 680315c:	e59f002c 	ldr	r0, [pc, #44]	; 6803190 <fat32_dir_attr_str+0x1cc>
 6803160:	e12fff1e 	bx	lr
 6803164:	0680a3cc 	.word	0x0680a3cc
 6803168:	06808760 	.word	0x06808760
 680316c:	0680a3ec 	.word	0x0680a3ec
 6803170:	06808764 	.word	0x06808764
 6803174:	0680876c 	.word	0x0680876c
 6803178:	0680877c 	.word	0x0680877c
 680317c:	0680878c 	.word	0x0680878c
 6803180:	06808794 	.word	0x06808794
 6803184:	068089bc 	.word	0x068089bc
 6803188:	068081ec 	.word	0x068081ec
 680318c:	068087a0 	.word	0x068087a0
 6803190:	06808750 	.word	0x06808750

06803194 <fat32_dirent_name>:
 6803194:	e92d4010 	push	{r4, lr}
 6803198:	e1a04001 	mov	r4, r1
 680319c:	ebfffd54 	bl	68026f4 <to_8dot3>
 68031a0:	e1a01000 	mov	r1, r0
 68031a4:	e1a00004 	mov	r0, r4
 68031a8:	eb000e4f 	bl	6806aec <strcpy>
 68031ac:	e8bd8010 	pop	{r4, pc}

068031b0 <fat32_is_valid_name>:
 68031b0:	e92d4010 	push	{r4, lr}
 68031b4:	e1a04000 	mov	r4, r0
 68031b8:	eb000e53 	bl	6806b0c <strlen>
 68031bc:	e1a0c000 	mov	ip, r0
 68031c0:	e1a01000 	mov	r1, r0
 68031c4:	e3a03000 	mov	r3, #0, 0
 68031c8:	e1a00003 	mov	r0, r3
 68031cc:	ea000000 	b	68031d4 <fat32_is_valid_name+0x24>
 68031d0:	e2833001 	add	r3, r3, #1, 0
 68031d4:	e1530001 	cmp	r3, r1
 68031d8:	aa000003 	bge	68031ec <fat32_is_valid_name+0x3c>
 68031dc:	e7d42003 	ldrb	r2, [r4, r3]
 68031e0:	e352002e 	cmp	r2, #46, 0	; 0x2e
 68031e4:	03a00001 	moveq	r0, #1, 0
 68031e8:	eafffff8 	b	68031d0 <fat32_is_valid_name+0x20>
 68031ec:	e3500000 	cmp	r0, #0, 0
 68031f0:	0a000019 	beq	680325c <fat32_is_valid_name+0xac>
 68031f4:	e35c000c 	cmp	ip, #12, 0
 68031f8:	ca00002a 	bgt	68032a8 <fat32_is_valid_name+0xf8>
 68031fc:	e35c0004 	cmp	ip, #4, 0
 6803200:	da00002a 	ble	68032b0 <fat32_is_valid_name+0x100>
 6803204:	e084c00c 	add	ip, r4, ip
 6803208:	e55c3004 	ldrb	r3, [ip, #-4]
 680320c:	e353002e 	cmp	r3, #46, 0	; 0x2e
 6803210:	1a000028 	bne	68032b8 <fat32_is_valid_name+0x108>
 6803214:	e3a02000 	mov	r2, #0, 0
 6803218:	ea000000 	b	6803220 <fat32_is_valid_name+0x70>
 680321c:	e2822001 	add	r2, r2, #1, 0
 6803220:	e1520001 	cmp	r2, r1
 6803224:	a8bd8010 	popge	{r4, pc}
 6803228:	e7d43002 	ldrb	r3, [r4, r2]
 680322c:	e243c041 	sub	ip, r3, #65, 0	; 0x41
 6803230:	e6efc07c 	uxtb	ip, ip
 6803234:	e2433030 	sub	r3, r3, #48, 0	; 0x30
 6803238:	e6ef3073 	uxtb	r3, r3
 680323c:	e35c0019 	cmp	ip, #25, 0
 6803240:	83530009 	cmphi	r3, #9, 0
 6803244:	9afffff4 	bls	680321c <fat32_is_valid_name+0x6c>
 6803248:	e2413004 	sub	r3, r1, #4, 0
 680324c:	e1530002 	cmp	r3, r2
 6803250:	0afffff1 	beq	680321c <fat32_is_valid_name+0x6c>
 6803254:	e3a00000 	mov	r0, #0, 0
 6803258:	e8bd8010 	pop	{r4, pc}
 680325c:	e35c0008 	cmp	ip, #8, 0
 6803260:	c8bd8010 	popgt	{r4, pc}
 6803264:	e35c0000 	cmp	ip, #0, 0
 6803268:	d8bd8010 	pople	{r4, pc}
 680326c:	e1a02000 	mov	r2, r0
 6803270:	e1520001 	cmp	r2, r1
 6803274:	aa000009 	bge	68032a0 <fat32_is_valid_name+0xf0>
 6803278:	e7d43002 	ldrb	r3, [r4, r2]
 680327c:	e243c041 	sub	ip, r3, #65, 0	; 0x41
 6803280:	e6efc07c 	uxtb	ip, ip
 6803284:	e2433030 	sub	r3, r3, #48, 0	; 0x30
 6803288:	e6ef3073 	uxtb	r3, r3
 680328c:	e35c0019 	cmp	ip, #25, 0
 6803290:	83530009 	cmphi	r3, #9, 0
 6803294:	88bd8010 	pophi	{r4, pc}
 6803298:	e2822001 	add	r2, r2, #1, 0
 680329c:	eafffff3 	b	6803270 <fat32_is_valid_name+0xc0>
 68032a0:	e3a00001 	mov	r0, #1, 0
 68032a4:	e8bd8010 	pop	{r4, pc}
 68032a8:	e3a00000 	mov	r0, #0, 0
 68032ac:	e8bd8010 	pop	{r4, pc}
 68032b0:	e3a00000 	mov	r0, #0, 0
 68032b4:	e8bd8010 	pop	{r4, pc}
 68032b8:	e3a00000 	mov	r0, #0, 0
 68032bc:	e8bd8010 	pop	{r4, pc}

068032c0 <fat32_dirent_set_name>:
 68032c0:	e92d41f0 	push	{r4, r5, r6, r7, r8, lr}
 68032c4:	e24dd008 	sub	sp, sp, #8, 0
 68032c8:	e1a07000 	mov	r7, r0
 68032cc:	e1a04001 	mov	r4, r1
 68032d0:	e1a00001 	mov	r0, r1
 68032d4:	eb000e0c 	bl	6806b0c <strlen>
 68032d8:	e1a06000 	mov	r6, r0
 68032dc:	e1a05000 	mov	r5, r0
 68032e0:	e1a00004 	mov	r0, r4
 68032e4:	ebffffb1 	bl	68031b0 <fat32_is_valid_name>
 68032e8:	e3500000 	cmp	r0, #0, 0
 68032ec:	13a03000 	movne	r3, #0, 0
 68032f0:	11a08003 	movne	r8, r3
 68032f4:	1a000008 	bne	680331c <fat32_dirent_set_name+0x5c>
 68032f8:	e59f308c 	ldr	r3, [pc, #140]	; 680338c <fat32_dirent_set_name+0xcc>
 68032fc:	e58d3000 	str	r3, [sp]
 6803300:	e3a030da 	mov	r3, #218, 0	; 0xda
 6803304:	e59f2084 	ldr	r2, [pc, #132]	; 6803390 <fat32_dirent_set_name+0xd0>
 6803308:	e59f1084 	ldr	r1, [pc, #132]	; 6803394 <fat32_dirent_set_name+0xd4>
 680330c:	e59f0084 	ldr	r0, [pc, #132]	; 6803398 <fat32_dirent_set_name+0xd8>
 6803310:	eb000cdf 	bl	6806694 <printk>
 6803314:	eb000e35 	bl	6806bf0 <clean_reboot>
 6803318:	e2833001 	add	r3, r3, #1, 0
 680331c:	e1530005 	cmp	r3, r5
 6803320:	aa000003 	bge	6803334 <fat32_dirent_set_name+0x74>
 6803324:	e7d42003 	ldrb	r2, [r4, r3]
 6803328:	e352002e 	cmp	r2, #46, 0	; 0x2e
 680332c:	03a08001 	moveq	r8, #1, 0
 6803330:	eafffff8 	b	6803318 <fat32_dirent_set_name+0x58>
 6803334:	e3a0200b 	mov	r2, #11, 0
 6803338:	e3a01020 	mov	r1, #32, 0
 680333c:	e1a00007 	mov	r0, r7
 6803340:	eb000cab 	bl	68065f4 <memset>
 6803344:	e3580000 	cmp	r8, #0, 0
 6803348:	0a00000a 	beq	6803378 <fat32_dirent_set_name+0xb8>
 680334c:	e2462004 	sub	r2, r6, #4, 0
 6803350:	e1a01004 	mov	r1, r4
 6803354:	e1a00007 	mov	r0, r7
 6803358:	eb000c6e 	bl	6806518 <memcpy>
 680335c:	e2461003 	sub	r1, r6, #3, 0
 6803360:	e3a02003 	mov	r2, #3, 0
 6803364:	e0841001 	add	r1, r4, r1
 6803368:	e2870008 	add	r0, r7, #8, 0
 680336c:	eb000c69 	bl	6806518 <memcpy>
 6803370:	e28dd008 	add	sp, sp, #8, 0
 6803374:	e8bd81f0 	pop	{r4, r5, r6, r7, r8, pc}
 6803378:	e1a02006 	mov	r2, r6
 680337c:	e1a01004 	mov	r1, r4
 6803380:	e1a00007 	mov	r0, r7
 6803384:	eb000c63 	bl	6806518 <memcpy>
 6803388:	eafffff8 	b	6803370 <fat32_dirent_set_name+0xb0>
 680338c:	068087c4 	.word	0x068087c4
 6803390:	068089d0 	.word	0x068089d0
 6803394:	068081ec 	.word	0x068081ec
 6803398:	0680745c 	.word	0x0680745c

0680339c <fat32_dirent_print_helper>:
 680339c:	e92d4070 	push	{r4, r5, r6, lr}
 68033a0:	e1a06000 	mov	r6, r0
 68033a4:	ebfffef9 	bl	6802f90 <fat32_dirent_free>
 68033a8:	e2504000 	subs	r4, r0, #0, 0
 68033ac:	1a00001c 	bne	6803424 <fat32_dirent_print_helper+0x88>
 68033b0:	e5d6500b 	ldrb	r5, [r6, #11]
 68033b4:	e355000f 	cmp	r5, #15, 0
 68033b8:	0a00001c 	beq	6803430 <fat32_dirent_print_helper+0x94>
 68033bc:	e355000f 	cmp	r5, #15, 0
 68033c0:	0a00001d 	beq	680343c <fat32_dirent_print_helper+0xa0>
 68033c4:	e1a032a5 	lsr	r3, r5, #5
 68033c8:	e2033001 	and	r3, r3, #1, 0
 68033cc:	e3530000 	cmp	r3, #0, 0
 68033d0:	1a00001d 	bne	680344c <fat32_dirent_print_helper+0xb0>
 68033d4:	e355000f 	cmp	r5, #15, 0
 68033d8:	0a00001e 	beq	6803458 <fat32_dirent_print_helper+0xbc>
 68033dc:	e1a03225 	lsr	r3, r5, #4
 68033e0:	e2033001 	and	r3, r3, #1, 0
 68033e4:	e3530000 	cmp	r3, #0, 0
 68033e8:	0a00001e 	beq	6803468 <fat32_dirent_print_helper+0xcc>
 68033ec:	e59f01b0 	ldr	r0, [pc, #432]	; 68035a4 <fat32_dirent_print_helper+0x208>
 68033f0:	eb000ca7 	bl	6806694 <printk>
 68033f4:	e1a00006 	mov	r0, r6
 68033f8:	ebfffce0 	bl	6802780 <add_nul>
 68033fc:	e1a05000 	mov	r5, r0
 6803400:	e1a00006 	mov	r0, r6
 6803404:	ebfffcba 	bl	68026f4 <to_8dot3>
 6803408:	e1a02000 	mov	r2, r0
 680340c:	e1a01005 	mov	r1, r5
 6803410:	e59f0190 	ldr	r0, [pc, #400]	; 68035a8 <fat32_dirent_print_helper+0x20c>
 6803414:	eb000c9e 	bl	6806694 <printk>
 6803418:	e59f018c 	ldr	r0, [pc, #396]	; 68035ac <fat32_dirent_print_helper+0x210>
 680341c:	eb000c9c 	bl	6806694 <printk>
 6803420:	ea00002b 	b	68034d4 <fat32_dirent_print_helper+0x138>
 6803424:	e59f0184 	ldr	r0, [pc, #388]	; 68035b0 <fat32_dirent_print_helper+0x214>
 6803428:	eb000c99 	bl	6806694 <printk>
 680342c:	e8bd8070 	pop	{r4, r5, r6, pc}
 6803430:	e59f017c 	ldr	r0, [pc, #380]	; 68035b4 <fat32_dirent_print_helper+0x218>
 6803434:	eb000c96 	bl	6806694 <printk>
 6803438:	e8bd8070 	pop	{r4, r5, r6, pc}
 680343c:	e3550020 	cmp	r5, #32, 0
 6803440:	13a03000 	movne	r3, #0, 0
 6803444:	03a03001 	moveq	r3, #1, 0
 6803448:	eaffffdf 	b	68033cc <fat32_dirent_print_helper+0x30>
 680344c:	e59f0164 	ldr	r0, [pc, #356]	; 68035b8 <fat32_dirent_print_helper+0x21c>
 6803450:	eb000c8f 	bl	6806694 <printk>
 6803454:	eaffffe4 	b	68033ec <fat32_dirent_print_helper+0x50>
 6803458:	e3550010 	cmp	r5, #16, 0
 680345c:	13a03000 	movne	r3, #0, 0
 6803460:	03a03001 	moveq	r3, #1, 0
 6803464:	eaffffde 	b	68033e4 <fat32_dirent_print_helper+0x48>
 6803468:	e1a00005 	mov	r0, r5
 680346c:	ebfffed4 	bl	6802fc4 <fat32_dir_attr_str>
 6803470:	e1a02000 	mov	r2, r0
 6803474:	e1a01005 	mov	r1, r5
 6803478:	e59f013c 	ldr	r0, [pc, #316]	; 68035bc <fat32_dirent_print_helper+0x220>
 680347c:	eb000c84 	bl	6806694 <printk>
 6803480:	e5d6300b 	ldrb	r3, [r6, #11]
 6803484:	e353000f 	cmp	r3, #15, 0
 6803488:	0a000004 	beq	68034a0 <fat32_dirent_print_helper+0x104>
 680348c:	e1a032a3 	lsr	r3, r3, #5
 6803490:	e2033001 	and	r3, r3, #1, 0
 6803494:	e3530000 	cmp	r3, #0, 0
 6803498:	0affffd3 	beq	68033ec <fat32_dirent_print_helper+0x50>
 680349c:	e8bd8070 	pop	{r4, r5, r6, pc}
 68034a0:	e3530020 	cmp	r3, #32, 0
 68034a4:	13a03000 	movne	r3, #0, 0
 68034a8:	03a03001 	moveq	r3, #1, 0
 68034ac:	eafffff8 	b	6803494 <fat32_dirent_print_helper+0xf8>
 68034b0:	e59f00ec 	ldr	r0, [pc, #236]	; 68035a4 <fat32_dirent_print_helper+0x208>
 68034b4:	eb000c76 	bl	6806694 <printk>
 68034b8:	e59f0100 	ldr	r0, [pc, #256]	; 68035c0 <fat32_dirent_print_helper+0x224>
 68034bc:	eb000c74 	bl	6806694 <printk>
 68034c0:	e7d61004 	ldrb	r1, [r6, r4]
 68034c4:	e1a02001 	mov	r2, r1
 68034c8:	e59f00f4 	ldr	r0, [pc, #244]	; 68035c4 <fat32_dirent_print_helper+0x228>
 68034cc:	eb000c70 	bl	6806694 <printk>
 68034d0:	e2844001 	add	r4, r4, #1, 0
 68034d4:	e354000a 	cmp	r4, #10, 0
 68034d8:	8a000002 	bhi	68034e8 <fat32_dirent_print_helper+0x14c>
 68034dc:	e3540008 	cmp	r4, #8, 0
 68034e0:	1afffff6 	bne	68034c0 <fat32_dirent_print_helper+0x124>
 68034e4:	eafffff1 	b	68034b0 <fat32_dirent_print_helper+0x114>
 68034e8:	e59f00d8 	ldr	r0, [pc, #216]	; 68035c8 <fat32_dirent_print_helper+0x22c>
 68034ec:	eb000c68 	bl	6806694 <printk>
 68034f0:	e5d6100b 	ldrb	r1, [r6, #11]
 68034f4:	e59f00d0 	ldr	r0, [pc, #208]	; 68035cc <fat32_dirent_print_helper+0x230>
 68034f8:	eb000c65 	bl	6806694 <printk>
 68034fc:	e5d6300b 	ldrb	r3, [r6, #11]
 6803500:	e353000f 	cmp	r3, #15, 0
 6803504:	0a000009 	beq	6803530 <fat32_dirent_print_helper+0x194>
 6803508:	e3130001 	tst	r3, #1, 0
 680350c:	1a00001b 	bne	6803580 <fat32_dirent_print_helper+0x1e4>
 6803510:	e5d6300b 	ldrb	r3, [r6, #11]
 6803514:	e3130002 	tst	r3, #2, 0
 6803518:	1a00001b 	bne	680358c <fat32_dirent_print_helper+0x1f0>
 680351c:	e5d6300b 	ldrb	r3, [r6, #11]
 6803520:	e3130004 	tst	r3, #4, 0
 6803524:	1a00001b 	bne	6803598 <fat32_dirent_print_helper+0x1fc>
 6803528:	e59f0074 	ldr	r0, [pc, #116]	; 68035a4 <fat32_dirent_print_helper+0x208>
 680352c:	eb000c58 	bl	6806694 <printk>
 6803530:	e5d63014 	ldrb	r3, [r6, #20]
 6803534:	e5d61015 	ldrb	r1, [r6, #21]
 6803538:	e1831401 	orr	r1, r3, r1, lsl #8
 680353c:	e59f008c 	ldr	r0, [pc, #140]	; 68035d0 <fat32_dirent_print_helper+0x234>
 6803540:	eb000c53 	bl	6806694 <printk>
 6803544:	e5d6301a 	ldrb	r3, [r6, #26]
 6803548:	e5d6101b 	ldrb	r1, [r6, #27]
 680354c:	e1831401 	orr	r1, r3, r1, lsl #8
 6803550:	e59f007c 	ldr	r0, [pc, #124]	; 68035d4 <fat32_dirent_print_helper+0x238>
 6803554:	eb000c4e 	bl	6806694 <printk>
 6803558:	e5d6301c 	ldrb	r3, [r6, #28]
 680355c:	e5d6101d 	ldrb	r1, [r6, #29]
 6803560:	e1833401 	orr	r3, r3, r1, lsl #8
 6803564:	e5d6101e 	ldrb	r1, [r6, #30]
 6803568:	e1833801 	orr	r3, r3, r1, lsl #16
 680356c:	e5d6101f 	ldrb	r1, [r6, #31]
 6803570:	e1831c01 	orr	r1, r3, r1, lsl #24
 6803574:	e59f005c 	ldr	r0, [pc, #92]	; 68035d8 <fat32_dirent_print_helper+0x23c>
 6803578:	eb000c45 	bl	6806694 <printk>
 680357c:	e8bd8070 	pop	{r4, r5, r6, pc}
 6803580:	e59f0054 	ldr	r0, [pc, #84]	; 68035dc <fat32_dirent_print_helper+0x240>
 6803584:	eb000c42 	bl	6806694 <printk>
 6803588:	eaffffe0 	b	6803510 <fat32_dirent_print_helper+0x174>
 680358c:	e59f004c 	ldr	r0, [pc, #76]	; 68035e0 <fat32_dirent_print_helper+0x244>
 6803590:	eb000c3f 	bl	6806694 <printk>
 6803594:	eaffffe0 	b	680351c <fat32_dirent_print_helper+0x180>
 6803598:	e59f0044 	ldr	r0, [pc, #68]	; 68035e4 <fat32_dirent_print_helper+0x248>
 680359c:	eb000c3c 	bl	6806694 <printk>
 68035a0:	eaffffe0 	b	6803528 <fat32_dirent_print_helper+0x18c>
 68035a4:	06807a80 	.word	0x06807a80
 68035a8:	06808858 	.word	0x06808858
 68035ac:	0680887c 	.word	0x0680887c
 68035b0:	068087e0 	.word	0x068087e0
 68035b4:	068087fc 	.word	0x068087fc
 68035b8:	06808810 	.word	0x06808810
 68035bc:	06808838 	.word	0x06808838
 68035c0:	06808890 	.word	0x06808890
 68035c4:	06808898 	.word	0x06808898
 68035c8:	068088a4 	.word	0x068088a4
 68035cc:	068088a8 	.word	0x068088a8
 68035d0:	068088f4 	.word	0x068088f4
 68035d4:	0680890c 	.word	0x0680890c
 68035d8:	06808924 	.word	0x06808924
 68035dc:	068088bc 	.word	0x068088bc
 68035e0:	068088cc 	.word	0x068088cc
 68035e4:	068088d8 	.word	0x068088d8

068035e8 <fat32_dirent_print>:
 68035e8:	e92d4010 	push	{r4, lr}
 68035ec:	e1a04001 	mov	r4, r1
 68035f0:	e1a01000 	mov	r1, r0
 68035f4:	e59f000c 	ldr	r0, [pc, #12]	; 6803608 <fat32_dirent_print+0x20>
 68035f8:	eb000c25 	bl	6806694 <printk>
 68035fc:	e1a00004 	mov	r0, r4
 6803600:	ebffff65 	bl	680339c <fat32_dirent_print_helper>
 6803604:	e8bd8010 	pop	{r4, pc}
 6803608:	0680893c 	.word	0x0680893c

0680360c <fat32_dir_lookup>:
 680360c:	e92d41f0 	push	{r4, r5, r6, r7, r8, lr}
 6803610:	e1a08000 	mov	r8, r0
 6803614:	e1a07001 	mov	r7, r1
 6803618:	e1a06002 	mov	r6, r2
 680361c:	e3a04000 	mov	r4, #0, 0
 6803620:	ea000000 	b	6803628 <fat32_dir_lookup+0x1c>
 6803624:	e2844001 	add	r4, r4, #1, 0
 6803628:	e1540006 	cmp	r4, r6
 680362c:	2a00000e 	bcs	680366c <fat32_dir_lookup+0x60>
 6803630:	e0875284 	add	r5, r7, r4, lsl #5
 6803634:	e1a00005 	mov	r0, r5
 6803638:	ebfffe54 	bl	6802f90 <fat32_dirent_free>
 680363c:	e3500000 	cmp	r0, #0, 0
 6803640:	1afffff7 	bne	6803624 <fat32_dir_lookup+0x18>
 6803644:	e5d5300b 	ldrb	r3, [r5, #11]
 6803648:	e353000f 	cmp	r3, #15, 0
 680364c:	0afffff4 	beq	6803624 <fat32_dir_lookup+0x18>
 6803650:	e3a0200b 	mov	r2, #11, 0
 6803654:	e1a01005 	mov	r1, r5
 6803658:	e1a00008 	mov	r0, r8
 680365c:	eb000b82 	bl	680646c <memcmp>
 6803660:	e3500000 	cmp	r0, #0, 0
 6803664:	1affffee 	bne	6803624 <fat32_dir_lookup+0x18>
 6803668:	ea000000 	b	6803670 <fat32_dir_lookup+0x64>
 680366c:	e3e04000 	mvn	r4, #0, 0
 6803670:	e1a00004 	mov	r0, r4
 6803674:	e8bd81f0 	pop	{r4, r5, r6, r7, r8, pc}

06803678 <print_as_string>:
 6803678:	e92d4070 	push	{r4, r5, r6, lr}
 680367c:	e1a06001 	mov	r6, r1
 6803680:	e1a05002 	mov	r5, r2
 6803684:	e1a01000 	mov	r1, r0
 6803688:	e59f002c 	ldr	r0, [pc, #44]	; 68036bc <print_as_string+0x44>
 680368c:	eb000c00 	bl	6806694 <printk>
 6803690:	e3a04000 	mov	r4, #0, 0
 6803694:	e1540005 	cmp	r4, r5
 6803698:	aa000004 	bge	68036b0 <print_as_string+0x38>
 680369c:	e7d61004 	ldrb	r1, [r6, r4]
 68036a0:	e59f0018 	ldr	r0, [pc, #24]	; 68036c0 <print_as_string+0x48>
 68036a4:	eb000bfa 	bl	6806694 <printk>
 68036a8:	e2844001 	add	r4, r4, #1, 0
 68036ac:	eafffff8 	b	6803694 <print_as_string+0x1c>
 68036b0:	e59f000c 	ldr	r0, [pc, #12]	; 68036c4 <print_as_string+0x4c>
 68036b4:	eb000bf6 	bl	6806694 <printk>
 68036b8:	e8bd8070 	pop	{r4, r5, r6, pc}
 68036bc:	06808944 	.word	0x06808944
 68036c0:	068074dc 	.word	0x068074dc
 68036c4:	06807a80 	.word	0x06807a80

068036c8 <print_bytes>:
 68036c8:	e92d41f0 	push	{r4, r5, r6, r7, r8, lr}
 68036cc:	e1a07001 	mov	r7, r1
 68036d0:	e1a06002 	mov	r6, r2
 68036d4:	e1a01000 	mov	r1, r0
 68036d8:	e59f0044 	ldr	r0, [pc, #68]	; 6803724 <print_bytes+0x5c>
 68036dc:	eb000bec 	bl	6806694 <printk>
 68036e0:	e3a04000 	mov	r4, #0, 0
 68036e4:	ea000005 	b	6803700 <print_bytes+0x38>
 68036e8:	e59f0038 	ldr	r0, [pc, #56]	; 6803728 <print_bytes+0x60>
 68036ec:	eb000be8 	bl	6806694 <printk>
 68036f0:	e7d71005 	ldrb	r1, [r7, r5]
 68036f4:	e59f0030 	ldr	r0, [pc, #48]	; 680372c <print_bytes+0x64>
 68036f8:	eb000be5 	bl	6806694 <printk>
 68036fc:	e2844001 	add	r4, r4, #1, 0
 6803700:	e1540006 	cmp	r4, r6
 6803704:	aa000003 	bge	6803718 <print_bytes+0x50>
 6803708:	e1a05004 	mov	r5, r4
 680370c:	e314000f 	tst	r4, #15, 0
 6803710:	1afffff6 	bne	68036f0 <print_bytes+0x28>
 6803714:	eafffff3 	b	68036e8 <print_bytes+0x20>
 6803718:	e59f0010 	ldr	r0, [pc, #16]	; 6803730 <print_bytes+0x68>
 680371c:	eb000bdc 	bl	6806694 <printk>
 6803720:	e8bd81f0 	pop	{r4, r5, r6, r7, r8, pc}
 6803724:	06808944 	.word	0x06808944
 6803728:	06808948 	.word	0x06808948
 680372c:	0680894c 	.word	0x0680894c
 6803730:	06807a80 	.word	0x06807a80

06803734 <print_words>:
 6803734:	e92d41f0 	push	{r4, r5, r6, r7, r8, lr}
 6803738:	e1a07001 	mov	r7, r1
 680373c:	e1a06002 	mov	r6, r2
 6803740:	e1a01000 	mov	r1, r0
 6803744:	e59f0044 	ldr	r0, [pc, #68]	; 6803790 <print_words+0x5c>
 6803748:	eb000bd1 	bl	6806694 <printk>
 680374c:	e3a04000 	mov	r4, #0, 0
 6803750:	ea000005 	b	680376c <print_words+0x38>
 6803754:	e59f0038 	ldr	r0, [pc, #56]	; 6803794 <print_words+0x60>
 6803758:	eb000bcd 	bl	6806694 <printk>
 680375c:	e7971105 	ldr	r1, [r7, r5, lsl #2]
 6803760:	e59f0030 	ldr	r0, [pc, #48]	; 6803798 <print_words+0x64>
 6803764:	eb000bca 	bl	6806694 <printk>
 6803768:	e2844001 	add	r4, r4, #1, 0
 680376c:	e1540006 	cmp	r4, r6
 6803770:	aa000003 	bge	6803784 <print_words+0x50>
 6803774:	e1a05004 	mov	r5, r4
 6803778:	e314000f 	tst	r4, #15, 0
 680377c:	1afffff6 	bne	680375c <print_words+0x28>
 6803780:	eafffff3 	b	6803754 <print_words+0x20>
 6803784:	e59f0010 	ldr	r0, [pc, #16]	; 680379c <print_words+0x68>
 6803788:	eb000bc1 	bl	6806694 <printk>
 680378c:	e8bd81f0 	pop	{r4, r5, r6, r7, r8, pc}
 6803790:	06808944 	.word	0x06808944
 6803794:	06808948 	.word	0x06808948
 6803798:	06808954 	.word	0x06808954
 680379c:	06807a80 	.word	0x06807a80

068037a0 <utf8_append>:
 68037a0:	e92d41f0 	push	{r4, r5, r6, r7, r8, lr}
 68037a4:	e24dd008 	sub	sp, sp, #8, 0
 68037a8:	e3120001 	tst	r2, #1, 0
 68037ac:	1a000004 	bne	68037c4 <utf8_append+0x24>
 68037b0:	e1a07000 	mov	r7, r0
 68037b4:	e1a06001 	mov	r6, r1
 68037b8:	e1a08002 	mov	r8, r2
 68037bc:	e3a04000 	mov	r4, #0, 0
 68037c0:	ea000015 	b	680381c <utf8_append+0x7c>
 68037c4:	e59f3094 	ldr	r3, [pc, #148]	; 6803860 <utf8_append+0xc0>
 68037c8:	e58d3000 	str	r3, [sp]
 68037cc:	e3a03044 	mov	r3, #68, 0	; 0x44
 68037d0:	e59f208c 	ldr	r2, [pc, #140]	; 6803864 <utf8_append+0xc4>
 68037d4:	e59f108c 	ldr	r1, [pc, #140]	; 6803868 <utf8_append+0xc8>
 68037d8:	e59f008c 	ldr	r0, [pc, #140]	; 680386c <utf8_append+0xcc>
 68037dc:	eb000bac 	bl	6806694 <printk>
 68037e0:	eb000d02 	bl	6806bf0 <clean_reboot>
 68037e4:	e35300ff 	cmp	r3, #255, 0	; 0xff
 68037e8:	0a000018 	beq	6803850 <utf8_append+0xb0>
 68037ec:	e0861001 	add	r1, r6, r1
 68037f0:	e5d10001 	ldrb	r0, [r1, #1]
 68037f4:	e1830400 	orr	r0, r3, r0, lsl #8
 68037f8:	eb000230 	bl	68040c0 <to_utf8>
 68037fc:	e1a05000 	mov	r5, r0
 6803800:	e1a01000 	mov	r1, r0
 6803804:	e1a00007 	mov	r0, r7
 6803808:	eb000caa 	bl	6806ab8 <strcat>
 680380c:	e1a00005 	mov	r0, r5
 6803810:	eb000cbd 	bl	6806b0c <strlen>
 6803814:	e0877000 	add	r7, r7, r0
 6803818:	e2844002 	add	r4, r4, #2, 0
 680381c:	e1a01004 	mov	r1, r4
 6803820:	e1540008 	cmp	r4, r8
 6803824:	2a000006 	bcs	6803844 <utf8_append+0xa4>
 6803828:	e0862004 	add	r2, r6, r4
 680382c:	e7d63004 	ldrb	r3, [r6, r4]
 6803830:	e3530000 	cmp	r3, #0, 0
 6803834:	1affffea 	bne	68037e4 <utf8_append+0x44>
 6803838:	e5d20001 	ldrb	r0, [r2, #1]
 680383c:	e3500000 	cmp	r0, #0, 0
 6803840:	1affffe7 	bne	68037e4 <utf8_append+0x44>
 6803844:	e1a00007 	mov	r0, r7
 6803848:	e28dd008 	add	sp, sp, #8, 0
 680384c:	e8bd81f0 	pop	{r4, r5, r6, r7, r8, pc}
 6803850:	e5d22001 	ldrb	r2, [r2, #1]
 6803854:	e35200ff 	cmp	r2, #255, 0	; 0xff
 6803858:	1affffe3 	bne	68037ec <utf8_append+0x4c>
 680385c:	eafffff8 	b	6803844 <utf8_append+0xa4>
 6803860:	068089fc 	.word	0x068089fc
 6803864:	06808c7c 	.word	0x06808c7c
 6803868:	068089e8 	.word	0x068089e8
 680386c:	0680745c 	.word	0x0680745c

06803870 <is_attr>:
 6803870:	e350000f 	cmp	r0, #15, 0
 6803874:	0a000003 	beq	6803888 <is_attr+0x18>
 6803878:	e1d13000 	bics	r3, r1, r0
 680387c:	03a00001 	moveq	r0, #1, 0
 6803880:	13a00000 	movne	r0, #0, 0
 6803884:	e12fff1e 	bx	lr
 6803888:	e1500001 	cmp	r0, r1
 680388c:	13a00000 	movne	r0, #0, 0
 6803890:	03a00001 	moveq	r0, #1, 0
 6803894:	e12fff1e 	bx	lr

06803898 <lfn_checksum>:
 6803898:	e1a03000 	mov	r3, r0
 680389c:	e3a0100b 	mov	r1, #11, 0
 68038a0:	e3a00000 	mov	r0, #0, 0
 68038a4:	ea000005 	b	68038c0 <lfn_checksum+0x28>
 68038a8:	e1a020a0 	lsr	r2, r0, #1
 68038ac:	e0820380 	add	r0, r2, r0, lsl #7
 68038b0:	e4d32001 	ldrb	r2, [r3], #1
 68038b4:	e6e20070 	uxtab	r0, r2, r0
 68038b8:	e6ef0070 	uxtb	r0, r0
 68038bc:	e2411001 	sub	r1, r1, #1, 0
 68038c0:	e3510000 	cmp	r1, #0, 0
 68038c4:	1afffff7 	bne	68038a8 <lfn_checksum+0x10>
 68038c8:	e12fff1e 	bx	lr

068038cc <lfn_is_last>:
 68038cc:	e1a00320 	lsr	r0, r0, #6
 68038d0:	e2000001 	and	r0, r0, #1, 0
 68038d4:	e12fff1e 	bx	lr

068038d8 <lfn_is_first>:
 68038d8:	e20000bf 	and	r0, r0, #191, 0	; 0xbf
 68038dc:	e3500001 	cmp	r0, #1, 0
 68038e0:	13a00000 	movne	r0, #0, 0
 68038e4:	03a00001 	moveq	r0, #1, 0
 68038e8:	e12fff1e 	bx	lr

068038ec <lfn_is_deleted>:
 68038ec:	e20000e5 	and	r0, r0, #229, 0	; 0xe5
 68038f0:	e35000e5 	cmp	r0, #229, 0	; 0xe5
 68038f4:	13a00000 	movne	r0, #0, 0
 68038f8:	03a00001 	moveq	r0, #1, 0
 68038fc:	e12fff1e 	bx	lr

06803900 <fat32_dirent_is_deleted_lfn>:
 6803900:	e52de004 	push	{lr}		; (str lr, [sp, #-4]!)
 6803904:	e24dd00c 	sub	sp, sp, #12, 0
 6803908:	e5d0300b 	ldrb	r3, [r0, #11]
 680390c:	e353000f 	cmp	r3, #15, 0
 6803910:	1a000003 	bne	6803924 <fat32_dirent_is_deleted_lfn+0x24>
 6803914:	e5d00000 	ldrb	r0, [r0]
 6803918:	ebfffff3 	bl	68038ec <lfn_is_deleted>
 680391c:	e28dd00c 	add	sp, sp, #12, 0
 6803920:	e49df004 	pop	{pc}		; (ldr pc, [sp], #4)
 6803924:	e59f3018 	ldr	r3, [pc, #24]	; 6803944 <fat32_dirent_is_deleted_lfn+0x44>
 6803928:	e58d3000 	str	r3, [sp]
 680392c:	e3a03021 	mov	r3, #33, 0	; 0x21
 6803930:	e59f2010 	ldr	r2, [pc, #16]	; 6803948 <fat32_dirent_is_deleted_lfn+0x48>
 6803934:	e59f1010 	ldr	r1, [pc, #16]	; 680394c <fat32_dirent_is_deleted_lfn+0x4c>
 6803938:	e59f0010 	ldr	r0, [pc, #16]	; 6803950 <fat32_dirent_is_deleted_lfn+0x50>
 680393c:	eb000b54 	bl	6806694 <printk>
 6803940:	eb000caa 	bl	6806bf0 <clean_reboot>
 6803944:	06808a0c 	.word	0x06808a0c
 6803948:	06808c88 	.word	0x06808c88
 680394c:	068089e8 	.word	0x068089e8
 6803950:	0680745c 	.word	0x0680745c

06803954 <lfn_print_ent>:
 6803954:	e92d43f0 	push	{r4, r5, r6, r7, r8, r9, lr}
 6803958:	e24dd02c 	sub	sp, sp, #44, 0	; 0x2c
 680395c:	e1a05000 	mov	r5, r0
 6803960:	e1a06001 	mov	r6, r1
 6803964:	e1a07000 	mov	r7, r0
 6803968:	e4d74001 	ldrb	r4, [r7], #1
 680396c:	e1a00004 	mov	r0, r4
 6803970:	ebffffd8 	bl	68038d8 <lfn_is_first>
 6803974:	e1a08000 	mov	r8, r0
 6803978:	e1a00004 	mov	r0, r4
 680397c:	ebffffd2 	bl	68038cc <lfn_is_last>
 6803980:	e1a09000 	mov	r9, r0
 6803984:	e1a00004 	mov	r0, r4
 6803988:	ebffffd7 	bl	68038ec <lfn_is_deleted>
 680398c:	e58d0000 	str	r0, [sp]
 6803990:	e1a03009 	mov	r3, r9
 6803994:	e1a02008 	mov	r2, r8
 6803998:	e1a01004 	mov	r1, r4
 680399c:	e59f009c 	ldr	r0, [pc, #156]	; 6803a40 <lfn_print_ent+0xec>
 68039a0:	eb000b3b 	bl	6806694 <printk>
 68039a4:	e3a0200a 	mov	r2, #10, 0
 68039a8:	e1a01007 	mov	r1, r7
 68039ac:	e28d000c 	add	r0, sp, #12, 0
 68039b0:	eb000ad8 	bl	6806518 <memcpy>
 68039b4:	e3a0200c 	mov	r2, #12, 0
 68039b8:	e285100e 	add	r1, r5, #14, 0
 68039bc:	e28d0016 	add	r0, sp, #22, 0
 68039c0:	eb000ad4 	bl	6806518 <memcpy>
 68039c4:	e3a02004 	mov	r2, #4, 0
 68039c8:	e285101c 	add	r1, r5, #28, 0
 68039cc:	e28d0022 	add	r0, sp, #34, 0	; 0x22
 68039d0:	eb000ad0 	bl	6806518 <memcpy>
 68039d4:	e3a04000 	mov	r4, #0, 0
 68039d8:	e5cd4026 	strb	r4, [sp, #38]	; 0x26
 68039dc:	ea000004 	b	68039f4 <lfn_print_ent+0xa0>
 68039e0:	e1a03002 	mov	r3, r2
 68039e4:	e1a01004 	mov	r1, r4
 68039e8:	e59f0054 	ldr	r0, [pc, #84]	; 6803a44 <lfn_print_ent+0xf0>
 68039ec:	eb000b28 	bl	6806694 <printk>
 68039f0:	e2844002 	add	r4, r4, #2, 0
 68039f4:	e3540019 	cmp	r4, #25, 0
 68039f8:	ca00000a 	bgt	6803a28 <lfn_print_ent+0xd4>
 68039fc:	e28d3028 	add	r3, sp, #40, 0	; 0x28
 6803a00:	e0833004 	add	r3, r3, r4
 6803a04:	e553201c 	ldrb	r2, [r3, #-28]	; 0xffffffe4
 6803a08:	e3520000 	cmp	r2, #0, 0
 6803a0c:	1afffff3 	bne	68039e0 <lfn_print_ent+0x8c>
 6803a10:	e2843001 	add	r3, r4, #1, 0
 6803a14:	e28d1028 	add	r1, sp, #40, 0	; 0x28
 6803a18:	e0813003 	add	r3, r1, r3
 6803a1c:	e553301c 	ldrb	r3, [r3, #-28]	; 0xffffffe4
 6803a20:	e3530000 	cmp	r3, #0, 0
 6803a24:	1affffed 	bne	68039e0 <lfn_print_ent+0x8c>
 6803a28:	e1a02006 	mov	r2, r6
 6803a2c:	e5d5100d 	ldrb	r1, [r5, #13]
 6803a30:	e59f0010 	ldr	r0, [pc, #16]	; 6803a48 <lfn_print_ent+0xf4>
 6803a34:	eb000b16 	bl	6806694 <printk>
 6803a38:	e28dd02c 	add	sp, sp, #44, 0	; 0x2c
 6803a3c:	e8bd83f0 	pop	{r4, r5, r6, r7, r8, r9, pc}
 6803a40:	06808a2c 	.word	0x06808a2c
 6803a44:	06808a58 	.word	0x06808a58
 6803a48:	06808a70 	.word	0x06808a70

06803a4c <lfn_get_name>:
 6803a4c:	e92d4070 	push	{r4, r5, r6, lr}
 6803a50:	e24dd008 	sub	sp, sp, #8, 0
 6803a54:	e1a06000 	mov	r6, r0
 6803a58:	e59f0080 	ldr	r0, [pc, #128]	; 6803ae0 <lfn_get_name+0x94>
 6803a5c:	e3a03000 	mov	r3, #0, 0
 6803a60:	e5c03000 	strb	r3, [r0]
 6803a64:	e2415001 	sub	r5, r1, #1, 0
 6803a68:	e3550000 	cmp	r5, #0, 0
 6803a6c:	ba000016 	blt	6803acc <lfn_get_name+0x80>
 6803a70:	e0864285 	add	r4, r6, r5, lsl #5
 6803a74:	e5d4300b 	ldrb	r3, [r4, #11]
 6803a78:	e353000f 	cmp	r3, #15, 0
 6803a7c:	1a00000a 	bne	6803aac <lfn_get_name+0x60>
 6803a80:	e3a0200a 	mov	r2, #10, 0
 6803a84:	e2841001 	add	r1, r4, #1, 0
 6803a88:	ebffff44 	bl	68037a0 <utf8_append>
 6803a8c:	e3a0200c 	mov	r2, #12, 0
 6803a90:	e284100e 	add	r1, r4, #14, 0
 6803a94:	ebffff41 	bl	68037a0 <utf8_append>
 6803a98:	e3a02004 	mov	r2, #4, 0
 6803a9c:	e284101c 	add	r1, r4, #28, 0
 6803aa0:	ebffff3e 	bl	68037a0 <utf8_append>
 6803aa4:	e2455001 	sub	r5, r5, #1, 0
 6803aa8:	eaffffee 	b	6803a68 <lfn_get_name+0x1c>
 6803aac:	e59f3030 	ldr	r3, [pc, #48]	; 6803ae4 <lfn_get_name+0x98>
 6803ab0:	e58d3000 	str	r3, [sp]
 6803ab4:	e3a03055 	mov	r3, #85, 0	; 0x55
 6803ab8:	e59f2028 	ldr	r2, [pc, #40]	; 6803ae8 <lfn_get_name+0x9c>
 6803abc:	e59f1028 	ldr	r1, [pc, #40]	; 6803aec <lfn_get_name+0xa0>
 6803ac0:	e59f0028 	ldr	r0, [pc, #40]	; 6803af0 <lfn_get_name+0xa4>
 6803ac4:	eb000af2 	bl	6806694 <printk>
 6803ac8:	eb000c48 	bl	6806bf0 <clean_reboot>
 6803acc:	e3a03000 	mov	r3, #0, 0
 6803ad0:	e5c03000 	strb	r3, [r0]
 6803ad4:	e59f0004 	ldr	r0, [pc, #4]	; 6803ae0 <lfn_get_name+0x94>
 6803ad8:	e28dd008 	add	sp, sp, #8, 0
 6803adc:	e8bd8070 	pop	{r4, r5, r6, pc}
 6803ae0:	0680a46c 	.word	0x0680a46c
 6803ae4:	06808a8c 	.word	0x06808a8c
 6803ae8:	06808ca4 	.word	0x06808ca4
 6803aec:	068089e8 	.word	0x068089e8
 6803af0:	0680745c 	.word	0x0680745c

06803af4 <lfn_print>:
 6803af4:	e92d43f0 	push	{r4, r5, r6, r7, r8, r9, lr}
 6803af8:	e24dd00c 	sub	sp, sp, #12, 0
 6803afc:	e2518000 	subs	r8, r1, #0, 0
 6803b00:	da000007 	ble	6803b24 <lfn_print+0x30>
 6803b04:	e1a06000 	mov	r6, r0
 6803b08:	e1a07002 	mov	r7, r2
 6803b0c:	e1a09003 	mov	r9, r3
 6803b10:	e2483001 	sub	r3, r8, #1, 0
 6803b14:	e3530001 	cmp	r3, #1, 0
 6803b18:	8a000009 	bhi	6803b44 <lfn_print+0x50>
 6803b1c:	e3a04000 	mov	r4, #0, 0
 6803b20:	ea000021 	b	6803bac <lfn_print+0xb8>
 6803b24:	e59f3134 	ldr	r3, [pc, #308]	; 6803c60 <lfn_print+0x16c>
 6803b28:	e58d3000 	str	r3, [sp]
 6803b2c:	e3a0305f 	mov	r3, #95, 0	; 0x5f
 6803b30:	e59f212c 	ldr	r2, [pc, #300]	; 6803c64 <lfn_print+0x170>
 6803b34:	e59f112c 	ldr	r1, [pc, #300]	; 6803c68 <lfn_print+0x174>
 6803b38:	e59f012c 	ldr	r0, [pc, #300]	; 6803c6c <lfn_print+0x178>
 6803b3c:	eb000ad4 	bl	6806694 <printk>
 6803b40:	eb000c2a 	bl	6806bf0 <clean_reboot>
 6803b44:	e59f3124 	ldr	r3, [pc, #292]	; 6803c70 <lfn_print+0x17c>
 6803b48:	e58d3000 	str	r3, [sp]
 6803b4c:	e3a03062 	mov	r3, #98, 0	; 0x62
 6803b50:	e59f210c 	ldr	r2, [pc, #268]	; 6803c64 <lfn_print+0x170>
 6803b54:	e59f110c 	ldr	r1, [pc, #268]	; 6803c68 <lfn_print+0x174>
 6803b58:	e59f0114 	ldr	r0, [pc, #276]	; 6803c74 <lfn_print+0x180>
 6803b5c:	eb000acc 	bl	6806694 <printk>
 6803b60:	eb000c22 	bl	6806bf0 <clean_reboot>
 6803b64:	e59f310c 	ldr	r3, [pc, #268]	; 6803c78 <lfn_print+0x184>
 6803b68:	e58d3000 	str	r3, [sp]
 6803b6c:	e3a03064 	mov	r3, #100, 0	; 0x64
 6803b70:	e59f20ec 	ldr	r2, [pc, #236]	; 6803c64 <lfn_print+0x170>
 6803b74:	e59f10ec 	ldr	r1, [pc, #236]	; 6803c68 <lfn_print+0x174>
 6803b78:	e59f00ec 	ldr	r0, [pc, #236]	; 6803c6c <lfn_print+0x178>
 6803b7c:	eb000ac4 	bl	6806694 <printk>
 6803b80:	eb000c1a 	bl	6806bf0 <clean_reboot>
 6803b84:	e1a01004 	mov	r1, r4
 6803b88:	e59f00ec 	ldr	r0, [pc, #236]	; 6803c7c <lfn_print+0x188>
 6803b8c:	eb000ac0 	bl	6806694 <printk>
 6803b90:	e1a01007 	mov	r1, r7
 6803b94:	e1a00005 	mov	r0, r5
 6803b98:	ebffff6d 	bl	6803954 <lfn_print_ent>
 6803b9c:	e5d5000d 	ldrb	r0, [r5, #13]
 6803ba0:	e1500007 	cmp	r0, r7
 6803ba4:	1a00000a 	bne	6803bd4 <lfn_print+0xe0>
 6803ba8:	e2844001 	add	r4, r4, #1, 0
 6803bac:	e1540008 	cmp	r4, r8
 6803bb0:	aa00000f 	bge	6803bf4 <lfn_print+0x100>
 6803bb4:	e0865284 	add	r5, r6, r4, lsl #5
 6803bb8:	e7d60284 	ldrb	r0, [r6, r4, lsl #5]
 6803bbc:	ebffff4a 	bl	68038ec <lfn_is_deleted>
 6803bc0:	e3500000 	cmp	r0, #0, 0
 6803bc4:	1affffe6 	bne	6803b64 <lfn_print+0x70>
 6803bc8:	e3590000 	cmp	r9, #0, 0
 6803bcc:	0afffff2 	beq	6803b9c <lfn_print+0xa8>
 6803bd0:	eaffffeb 	b	6803b84 <lfn_print+0x90>
 6803bd4:	e59f30a4 	ldr	r3, [pc, #164]	; 6803c80 <lfn_print+0x18c>
 6803bd8:	e58d3000 	str	r3, [sp]
 6803bdc:	e3a03069 	mov	r3, #105, 0	; 0x69
 6803be0:	e59f207c 	ldr	r2, [pc, #124]	; 6803c64 <lfn_print+0x170>
 6803be4:	e59f107c 	ldr	r1, [pc, #124]	; 6803c68 <lfn_print+0x174>
 6803be8:	e59f007c 	ldr	r0, [pc, #124]	; 6803c6c <lfn_print+0x178>
 6803bec:	eb000aa8 	bl	6806694 <printk>
 6803bf0:	eb000bfe 	bl	6806bf0 <clean_reboot>
 6803bf4:	e5d60000 	ldrb	r0, [r6]
 6803bf8:	ebffff33 	bl	68038cc <lfn_is_last>
 6803bfc:	e3500000 	cmp	r0, #0, 0
 6803c00:	0a000006 	beq	6803c20 <lfn_print+0x12c>
 6803c04:	e248837e 	sub	r8, r8, #-134217727	; 0xf8000001
 6803c08:	e7d60288 	ldrb	r0, [r6, r8, lsl #5]
 6803c0c:	ebffff31 	bl	68038d8 <lfn_is_first>
 6803c10:	e3500000 	cmp	r0, #0, 0
 6803c14:	0a000009 	beq	6803c40 <lfn_print+0x14c>
 6803c18:	e28dd00c 	add	sp, sp, #12, 0
 6803c1c:	e8bd83f0 	pop	{r4, r5, r6, r7, r8, r9, pc}
 6803c20:	e59f305c 	ldr	r3, [pc, #92]	; 6803c84 <lfn_print+0x190>
 6803c24:	e58d3000 	str	r3, [sp]
 6803c28:	e3a0306b 	mov	r3, #107, 0	; 0x6b
 6803c2c:	e59f2030 	ldr	r2, [pc, #48]	; 6803c64 <lfn_print+0x170>
 6803c30:	e59f1030 	ldr	r1, [pc, #48]	; 6803c68 <lfn_print+0x174>
 6803c34:	e59f0030 	ldr	r0, [pc, #48]	; 6803c6c <lfn_print+0x178>
 6803c38:	eb000a95 	bl	6806694 <printk>
 6803c3c:	eb000beb 	bl	6806bf0 <clean_reboot>
 6803c40:	e59f3040 	ldr	r3, [pc, #64]	; 6803c88 <lfn_print+0x194>
 6803c44:	e58d3000 	str	r3, [sp]
 6803c48:	e3a0306c 	mov	r3, #108, 0	; 0x6c
 6803c4c:	e59f2010 	ldr	r2, [pc, #16]	; 6803c64 <lfn_print+0x170>
 6803c50:	e59f1010 	ldr	r1, [pc, #16]	; 6803c68 <lfn_print+0x174>
 6803c54:	e59f0010 	ldr	r0, [pc, #16]	; 6803c6c <lfn_print+0x178>
 6803c58:	eb000a8d 	bl	6806694 <printk>
 6803c5c:	eb000be3 	bl	6806bf0 <clean_reboot>
 6803c60:	06808aac 	.word	0x06808aac
 6803c64:	06808cb4 	.word	0x06808cb4
 6803c68:	068089e8 	.word	0x068089e8
 6803c6c:	0680745c 	.word	0x0680745c
 6803c70:	06808b00 	.word	0x06808b00
 6803c74:	06808ab8 	.word	0x06808ab8
 6803c78:	06808b14 	.word	0x06808b14
 6803c7c:	06808b34 	.word	0x06808b34
 6803c80:	06808b40 	.word	0x06808b40
 6803c84:	06808b54 	.word	0x06808b54
 6803c88:	06808b6c 	.word	0x06808b6c

06803c8c <fat32_dir_filename>:
 6803c8c:	e92d41f0 	push	{r4, r5, r6, r7, r8, lr}
 6803c90:	e24dd008 	sub	sp, sp, #8, 0
 6803c94:	e1a06000 	mov	r6, r0
 6803c98:	e1a05001 	mov	r5, r1
 6803c9c:	e1a07002 	mov	r7, r2
 6803ca0:	e1a00001 	mov	r0, r1
 6803ca4:	ebfffcb9 	bl	6802f90 <fat32_dirent_free>
 6803ca8:	e2504000 	subs	r4, r0, #0, 0
 6803cac:	1a000017 	bne	6803d10 <fat32_dir_filename+0x84>
 6803cb0:	e5d5800b 	ldrb	r8, [r5, #11]
 6803cb4:	e358000f 	cmp	r8, #15, 0
 6803cb8:	0a00001c 	beq	6803d30 <fat32_dir_filename+0xa4>
 6803cbc:	e3a01010 	mov	r1, #16, 0
 6803cc0:	e1a00008 	mov	r0, r8
 6803cc4:	ebfffee9 	bl	6803870 <is_attr>
 6803cc8:	e3500000 	cmp	r0, #0, 0
 6803ccc:	1a000009 	bne	6803cf8 <fat32_dir_filename+0x6c>
 6803cd0:	e3a01020 	mov	r1, #32, 0
 6803cd4:	e1a00008 	mov	r0, r8
 6803cd8:	ebfffee4 	bl	6803870 <is_attr>
 6803cdc:	e3500000 	cmp	r0, #0, 0
 6803ce0:	1a000004 	bne	6803cf8 <fat32_dir_filename+0x6c>
 6803ce4:	e3a01008 	mov	r1, #8, 0
 6803ce8:	e1a00008 	mov	r0, r8
 6803cec:	ebfffedf 	bl	6803870 <is_attr>
 6803cf0:	e3500000 	cmp	r0, #0, 0
 6803cf4:	0a00003c 	beq	6803dec <fat32_dir_filename+0x160>
 6803cf8:	e5d5300c 	ldrb	r3, [r5, #12]
 6803cfc:	e3530018 	cmp	r3, #24, 0
 6803d00:	0a000054 	beq	6803e58 <fat32_dir_filename+0x1cc>
 6803d04:	e1a0c004 	mov	ip, r4
 6803d08:	e1a01004 	mov	r1, r4
 6803d0c:	ea000041 	b	6803e18 <fat32_dir_filename+0x18c>
 6803d10:	e59f31b4 	ldr	r3, [pc, #436]	; 6803ecc <fat32_dir_filename+0x240>
 6803d14:	e58d3000 	str	r3, [sp]
 6803d18:	e3a03071 	mov	r3, #113, 0	; 0x71
 6803d1c:	e59f21ac 	ldr	r2, [pc, #428]	; 6803ed0 <fat32_dir_filename+0x244>
 6803d20:	e59f11ac 	ldr	r1, [pc, #428]	; 6803ed4 <fat32_dir_filename+0x248>
 6803d24:	e59f01ac 	ldr	r0, [pc, #428]	; 6803ed8 <fat32_dir_filename+0x24c>
 6803d28:	eb000a59 	bl	6806694 <printk>
 6803d2c:	eb000baf 	bl	6806bf0 <clean_reboot>
 6803d30:	e0472005 	sub	r2, r7, r5
 6803d34:	e1a032c2 	asr	r3, r2, #5
 6803d38:	e3a04001 	mov	r4, #1, 0
 6803d3c:	e1540003 	cmp	r4, r3
 6803d40:	aa000004 	bge	6803d58 <fat32_dir_filename+0xcc>
 6803d44:	e0852284 	add	r2, r5, r4, lsl #5
 6803d48:	e5d2200b 	ldrb	r2, [r2, #11]
 6803d4c:	e352000f 	cmp	r2, #15, 0
 6803d50:	02844001 	addeq	r4, r4, #1, 0
 6803d54:	0afffff8 	beq	6803d3c <fat32_dir_filename+0xb0>
 6803d58:	e1540003 	cmp	r4, r3
 6803d5c:	aa000012 	bge	6803dac <fat32_dir_filename+0x120>
 6803d60:	e0857284 	add	r7, r5, r4, lsl #5
 6803d64:	e5d7800b 	ldrb	r8, [r7, #11]
 6803d68:	e3a01010 	mov	r1, #16, 0
 6803d6c:	e1a00008 	mov	r0, r8
 6803d70:	ebfffebe 	bl	6803870 <is_attr>
 6803d74:	e3500000 	cmp	r0, #0, 0
 6803d78:	1a000004 	bne	6803d90 <fat32_dir_filename+0x104>
 6803d7c:	e3a01020 	mov	r1, #32, 0
 6803d80:	e1a00008 	mov	r0, r8
 6803d84:	ebfffeb9 	bl	6803870 <is_attr>
 6803d88:	e3500000 	cmp	r0, #0, 0
 6803d8c:	0a00000e 	beq	6803dcc <fat32_dir_filename+0x140>
 6803d90:	e1a01004 	mov	r1, r4
 6803d94:	e1a00005 	mov	r0, r5
 6803d98:	ebffff2b 	bl	6803a4c <lfn_get_name>
 6803d9c:	e1a01000 	mov	r1, r0
 6803da0:	e1a00006 	mov	r0, r6
 6803da4:	eb000b50 	bl	6806aec <strcpy>
 6803da8:	ea000044 	b	6803ec0 <fat32_dir_filename+0x234>
 6803dac:	e59f3128 	ldr	r3, [pc, #296]	; 6803edc <fat32_dir_filename+0x250>
 6803db0:	e58d3000 	str	r3, [sp]
 6803db4:	e3a0307a 	mov	r3, #122, 0	; 0x7a
 6803db8:	e59f2110 	ldr	r2, [pc, #272]	; 6803ed0 <fat32_dir_filename+0x244>
 6803dbc:	e59f1110 	ldr	r1, [pc, #272]	; 6803ed4 <fat32_dir_filename+0x248>
 6803dc0:	e59f0110 	ldr	r0, [pc, #272]	; 6803ed8 <fat32_dir_filename+0x24c>
 6803dc4:	eb000a32 	bl	6806694 <printk>
 6803dc8:	eb000b88 	bl	6806bf0 <clean_reboot>
 6803dcc:	e59f310c 	ldr	r3, [pc, #268]	; 6803ee0 <fat32_dir_filename+0x254>
 6803dd0:	e58d3000 	str	r3, [sp]
 6803dd4:	e3a0307b 	mov	r3, #123, 0	; 0x7b
 6803dd8:	e59f20f0 	ldr	r2, [pc, #240]	; 6803ed0 <fat32_dir_filename+0x244>
 6803ddc:	e59f10f0 	ldr	r1, [pc, #240]	; 6803ed4 <fat32_dir_filename+0x248>
 6803de0:	e59f00f0 	ldr	r0, [pc, #240]	; 6803ed8 <fat32_dir_filename+0x24c>
 6803de4:	eb000a2a 	bl	6806694 <printk>
 6803de8:	eb000b80 	bl	6806bf0 <clean_reboot>
 6803dec:	e59f30f0 	ldr	r3, [pc, #240]	; 6803ee4 <fat32_dir_filename+0x258>
 6803df0:	e58d3000 	str	r3, [sp]
 6803df4:	e3a0307f 	mov	r3, #127, 0	; 0x7f
 6803df8:	e59f20d0 	ldr	r2, [pc, #208]	; 6803ed0 <fat32_dir_filename+0x244>
 6803dfc:	e59f10d0 	ldr	r1, [pc, #208]	; 6803ed4 <fat32_dir_filename+0x248>
 6803e00:	e59f00d0 	ldr	r0, [pc, #208]	; 6803ed8 <fat32_dir_filename+0x24c>
 6803e04:	eb000a22 	bl	6806694 <printk>
 6803e08:	eb000b78 	bl	6806bf0 <clean_reboot>
 6803e0c:	e7c63001 	strb	r3, [r6, r1]
 6803e10:	e2811001 	add	r1, r1, #1, 0
 6803e14:	e2844001 	add	r4, r4, #1, 0
 6803e18:	e3540007 	cmp	r4, #7, 0
 6803e1c:	ca00000f 	bgt	6803e60 <fat32_dir_filename+0x1d4>
 6803e20:	e7d53004 	ldrb	r3, [r5, r4]
 6803e24:	e3530020 	cmp	r3, #32, 0
 6803e28:	0afffff9 	beq	6803e14 <fat32_dir_filename+0x188>
 6803e2c:	e3530040 	cmp	r3, #64, 0	; 0x40
 6803e30:	93a02000 	movls	r2, #0, 0
 6803e34:	83a02001 	movhi	r2, #1, 0
 6803e38:	e35c0000 	cmp	ip, #0, 0
 6803e3c:	03a02000 	moveq	r2, #0, 0
 6803e40:	e3520000 	cmp	r2, #0, 0
 6803e44:	0afffff0 	beq	6803e0c <fat32_dir_filename+0x180>
 6803e48:	e353005a 	cmp	r3, #90, 0	; 0x5a
 6803e4c:	92833020 	addls	r3, r3, #32, 0
 6803e50:	96ef3073 	uxtbls	r3, r3
 6803e54:	eaffffec 	b	6803e0c <fat32_dir_filename+0x180>
 6803e58:	e3a0c001 	mov	ip, #1, 0
 6803e5c:	eaffffa9 	b	6803d08 <fat32_dir_filename+0x7c>
 6803e60:	e2810001 	add	r0, r1, #1, 0
 6803e64:	e3a0302e 	mov	r3, #46, 0	; 0x2e
 6803e68:	e7c63001 	strb	r3, [r6, r1]
 6803e6c:	ea000002 	b	6803e7c <fat32_dir_filename+0x1f0>
 6803e70:	e7c63000 	strb	r3, [r6, r0]
 6803e74:	e2844001 	add	r4, r4, #1, 0
 6803e78:	e2800001 	add	r0, r0, #1, 0
 6803e7c:	e354000a 	cmp	r4, #10, 0
 6803e80:	ca00000b 	bgt	6803eb4 <fat32_dir_filename+0x228>
 6803e84:	e7d53004 	ldrb	r3, [r5, r4]
 6803e88:	e3530040 	cmp	r3, #64, 0	; 0x40
 6803e8c:	93a02000 	movls	r2, #0, 0
 6803e90:	83a02001 	movhi	r2, #1, 0
 6803e94:	e35c0000 	cmp	ip, #0, 0
 6803e98:	03a02000 	moveq	r2, #0, 0
 6803e9c:	e3520000 	cmp	r2, #0, 0
 6803ea0:	0afffff2 	beq	6803e70 <fat32_dir_filename+0x1e4>
 6803ea4:	e353005a 	cmp	r3, #90, 0	; 0x5a
 6803ea8:	92833020 	addls	r3, r3, #32, 0
 6803eac:	96ef3073 	uxtbls	r3, r3
 6803eb0:	eaffffee 	b	6803e70 <fat32_dir_filename+0x1e4>
 6803eb4:	e3a03000 	mov	r3, #0, 0
 6803eb8:	e7c63000 	strb	r3, [r6, r0]
 6803ebc:	e1a07005 	mov	r7, r5
 6803ec0:	e1a00007 	mov	r0, r7
 6803ec4:	e28dd008 	add	sp, sp, #8, 0
 6803ec8:	e8bd81f0 	pop	{r4, r5, r6, r7, r8, pc}
 6803ecc:	06808b8c 	.word	0x06808b8c
 6803ed0:	06808cc0 	.word	0x06808cc0
 6803ed4:	068089e8 	.word	0x068089e8
 6803ed8:	0680745c 	.word	0x0680745c
 6803edc:	06808ba4 	.word	0x06808ba4
 6803ee0:	06808bac 	.word	0x06808bac
 6803ee4:	06808bf4 	.word	0x06808bf4

06803ee8 <fat32_lfn_print>:
 6803ee8:	e92d40f0 	push	{r4, r5, r6, r7, lr}
 6803eec:	e24dd00c 	sub	sp, sp, #12, 0
 6803ef0:	e1a05001 	mov	r5, r1
 6803ef4:	e5d1300b 	ldrb	r3, [r1, #11]
 6803ef8:	e353000f 	cmp	r3, #15, 0
 6803efc:	0a000004 	beq	6803f14 <fat32_lfn_print+0x2c>
 6803f00:	ebfffdb8 	bl	68035e8 <fat32_dirent_print>
 6803f04:	e3a04001 	mov	r4, #1, 0
 6803f08:	e1a00004 	mov	r0, r4
 6803f0c:	e28dd00c 	add	sp, sp, #12, 0
 6803f10:	e8bd80f0 	pop	{r4, r5, r6, r7, pc}
 6803f14:	e1a06002 	mov	r6, r2
 6803f18:	e1a01000 	mov	r1, r0
 6803f1c:	e59f00e4 	ldr	r0, [pc, #228]	; 6804008 <fat32_lfn_print+0x120>
 6803f20:	eb0009db 	bl	6806694 <printk>
 6803f24:	e3a04000 	mov	r4, #0, 0
 6803f28:	e1540006 	cmp	r4, r6
 6803f2c:	aa000004 	bge	6803f44 <fat32_lfn_print+0x5c>
 6803f30:	e0853284 	add	r3, r5, r4, lsl #5
 6803f34:	e5d3300b 	ldrb	r3, [r3, #11]
 6803f38:	e353000f 	cmp	r3, #15, 0
 6803f3c:	02844001 	addeq	r4, r4, #1, 0
 6803f40:	0afffff8 	beq	6803f28 <fat32_lfn_print+0x40>
 6803f44:	e1540006 	cmp	r4, r6
 6803f48:	aa00001e 	bge	6803fc8 <fat32_lfn_print+0xe0>
 6803f4c:	e0856284 	add	r6, r5, r4, lsl #5
 6803f50:	e5d6700b 	ldrb	r7, [r6, #11]
 6803f54:	e3a01010 	mov	r1, #16, 0
 6803f58:	e1a00007 	mov	r0, r7
 6803f5c:	ebfffe43 	bl	6803870 <is_attr>
 6803f60:	e3500000 	cmp	r0, #0, 0
 6803f64:	1a000004 	bne	6803f7c <fat32_lfn_print+0x94>
 6803f68:	e3a01020 	mov	r1, #32, 0
 6803f6c:	e1a00007 	mov	r0, r7
 6803f70:	ebfffe3e 	bl	6803870 <is_attr>
 6803f74:	e3500000 	cmp	r0, #0, 0
 6803f78:	0a00001a 	beq	6803fe8 <fat32_lfn_print+0x100>
 6803f7c:	e59f0088 	ldr	r0, [pc, #136]	; 680400c <fat32_lfn_print+0x124>
 6803f80:	eb0009c3 	bl	6806694 <printk>
 6803f84:	e1a00006 	mov	r0, r6
 6803f88:	ebfffe42 	bl	6803898 <lfn_checksum>
 6803f8c:	e1a02000 	mov	r2, r0
 6803f90:	e3a03000 	mov	r3, #0, 0
 6803f94:	e1a01004 	mov	r1, r4
 6803f98:	e1a00005 	mov	r0, r5
 6803f9c:	ebfffed4 	bl	6803af4 <lfn_print>
 6803fa0:	e1a01004 	mov	r1, r4
 6803fa4:	e1a00005 	mov	r0, r5
 6803fa8:	ebfffea7 	bl	6803a4c <lfn_get_name>
 6803fac:	e1a01000 	mov	r1, r0
 6803fb0:	e59f0058 	ldr	r0, [pc, #88]	; 6804010 <fat32_lfn_print+0x128>
 6803fb4:	eb0009b6 	bl	6806694 <printk>
 6803fb8:	e2844001 	add	r4, r4, #1, 0
 6803fbc:	e1a00006 	mov	r0, r6
 6803fc0:	ebfffcf5 	bl	680339c <fat32_dirent_print_helper>
 6803fc4:	eaffffcf 	b	6803f08 <fat32_lfn_print+0x20>
 6803fc8:	e59f3044 	ldr	r3, [pc, #68]	; 6804014 <fat32_lfn_print+0x12c>
 6803fcc:	e58d3000 	str	r3, [sp]
 6803fd0:	e3a030ac 	mov	r3, #172, 0	; 0xac
 6803fd4:	e59f203c 	ldr	r2, [pc, #60]	; 6804018 <fat32_lfn_print+0x130>
 6803fd8:	e59f103c 	ldr	r1, [pc, #60]	; 680401c <fat32_lfn_print+0x134>
 6803fdc:	e59f003c 	ldr	r0, [pc, #60]	; 6804020 <fat32_lfn_print+0x138>
 6803fe0:	eb0009ab 	bl	6806694 <printk>
 6803fe4:	eb000b01 	bl	6806bf0 <clean_reboot>
 6803fe8:	e59f3034 	ldr	r3, [pc, #52]	; 6804024 <fat32_lfn_print+0x13c>
 6803fec:	e58d3000 	str	r3, [sp]
 6803ff0:	e3a030ad 	mov	r3, #173, 0	; 0xad
 6803ff4:	e59f201c 	ldr	r2, [pc, #28]	; 6804018 <fat32_lfn_print+0x130>
 6803ff8:	e59f101c 	ldr	r1, [pc, #28]	; 680401c <fat32_lfn_print+0x134>
 6803ffc:	e59f001c 	ldr	r0, [pc, #28]	; 6804020 <fat32_lfn_print+0x138>
 6804000:	eb0009a3 	bl	6806694 <printk>
 6804004:	eb000af9 	bl	6806bf0 <clean_reboot>
 6804008:	0680893c 	.word	0x0680893c
 680400c:	06807a80 	.word	0x06807a80
 6804010:	06808c58 	.word	0x06808c58
 6804014:	06808c4c 	.word	0x06808c4c
 6804018:	06808cd4 	.word	0x06808cd4
 680401c:	068089e8 	.word	0x068089e8
 6804020:	0680745c 	.word	0x0680745c
 6804024:	06808bac 	.word	0x06808bac

06804028 <codepoint_len>:
 6804028:	e1a0c000 	mov	ip, r0
 680402c:	e59f2040 	ldr	r2, [pc, #64]	; 6804074 <codepoint_len+0x4c>
 6804030:	e3a00000 	mov	r0, #0, 0
 6804034:	ea000001 	b	6804040 <codepoint_len+0x18>
 6804038:	e2800001 	add	r0, r0, #1, 0
 680403c:	e2822004 	add	r2, r2, #4, 0
 6804040:	e5923000 	ldr	r3, [r2]
 6804044:	e3530000 	cmp	r3, #0, 0
 6804048:	0a000005 	beq	6804064 <codepoint_len+0x3c>
 680404c:	e5931004 	ldr	r1, [r3, #4]
 6804050:	e151000c 	cmp	r1, ip
 6804054:	8afffff7 	bhi	6804038 <codepoint_len+0x10>
 6804058:	e5933008 	ldr	r3, [r3, #8]
 680405c:	e153000c 	cmp	r3, ip
 6804060:	3afffff4 	bcc	6804038 <codepoint_len+0x10>
 6804064:	e3500004 	cmp	r0, #4, 0
 6804068:	d12fff1e 	bxle	lr
 680406c:	e3e00000 	mvn	r0, #0, 0
 6804070:	e12fff1e 	bx	lr
 6804074:	06806ec0 	.word	0x06806ec0

06804078 <utf8_len>:
 6804078:	e1a0c000 	mov	ip, r0
 680407c:	e59f1038 	ldr	r1, [pc, #56]	; 68040bc <utf8_len+0x44>
 6804080:	e3a00000 	mov	r0, #0, 0
 6804084:	e5913000 	ldr	r3, [r1]
 6804088:	e3530000 	cmp	r3, #0, 0
 680408c:	0a000006 	beq	68040ac <utf8_len+0x34>
 6804090:	e5d32000 	ldrb	r2, [r3]
 6804094:	e1cc2002 	bic	r2, ip, r2
 6804098:	e5d33001 	ldrb	r3, [r3, #1]
 680409c:	e1520003 	cmp	r2, r3
 68040a0:	12800001 	addne	r0, r0, #1, 0
 68040a4:	12811004 	addne	r1, r1, #4, 0
 68040a8:	1afffff5 	bne	6804084 <utf8_len+0xc>
 68040ac:	e3500004 	cmp	r0, #4, 0
 68040b0:	d12fff1e 	bxle	lr
 68040b4:	e3e00000 	mvn	r0, #0, 0
 68040b8:	e12fff1e 	bx	lr
 68040bc:	06806ec0 	.word	0x06806ec0

068040c0 <to_utf8>:
 68040c0:	e92d4070 	push	{r4, r5, r6, lr}
 68040c4:	e1a04000 	mov	r4, r0
 68040c8:	ebffffd6 	bl	6804028 <codepoint_len>
 68040cc:	e250c000 	subs	ip, r0, #0, 0
 68040d0:	ba00001c 	blt	6804148 <to_utf8+0x88>
 68040d4:	e59f3074 	ldr	r3, [pc, #116]	; 6804150 <to_utf8+0x90>
 68040d8:	e5930000 	ldr	r0, [r3]
 68040dc:	e590500c 	ldr	r5, [r0, #12]
 68040e0:	e24c1001 	sub	r1, ip, #1, 0
 68040e4:	e0010591 	mul	r1, r1, r5
 68040e8:	e793210c 	ldr	r2, [r3, ip, lsl #2]
 68040ec:	e5d23000 	ldrb	r3, [r2]
 68040f0:	e0033134 	and	r3, r3, r4, lsr r1
 68040f4:	e5d22001 	ldrb	r2, [r2, #1]
 68040f8:	e1833002 	orr	r3, r3, r2
 68040fc:	e59f2050 	ldr	r2, [pc, #80]	; 6804154 <to_utf8+0x94>
 6804100:	e5c23000 	strb	r3, [r2]
 6804104:	e0411005 	sub	r1, r1, r5
 6804108:	e3a02001 	mov	r2, #1, 0
 680410c:	ea000007 	b	6804130 <to_utf8+0x70>
 6804110:	e5d03000 	ldrb	r3, [r0]
 6804114:	e0033134 	and	r3, r3, r4, lsr r1
 6804118:	e5d0e001 	ldrb	lr, [r0, #1]
 680411c:	e183300e 	orr	r3, r3, lr
 6804120:	e59fe02c 	ldr	lr, [pc, #44]	; 6804154 <to_utf8+0x94>
 6804124:	e7ce3002 	strb	r3, [lr, r2]
 6804128:	e0411005 	sub	r1, r1, r5
 680412c:	e2822001 	add	r2, r2, #1, 0
 6804130:	e152000c 	cmp	r2, ip
 6804134:	bafffff5 	blt	6804110 <to_utf8+0x50>
 6804138:	e59f0014 	ldr	r0, [pc, #20]	; 6804154 <to_utf8+0x94>
 680413c:	e3a03000 	mov	r3, #0, 0
 6804140:	e7c0300c 	strb	r3, [r0, ip]
 6804144:	e8bd8070 	pop	{r4, r5, r6, pc}
 6804148:	e3a00000 	mov	r0, #0, 0
 680414c:	e8bd8070 	pop	{r4, r5, r6, pc}
 6804150:	06806ec0 	.word	0x06806ec0
 6804154:	0680a66c 	.word	0x0680a66c

06804158 <to_cp>:
 6804158:	e92d41f0 	push	{r4, r5, r6, r7, r8, lr}
 680415c:	e1a05000 	mov	r5, r0
 6804160:	e5d04000 	ldrb	r4, [r0]
 6804164:	e1a00004 	mov	r0, r4
 6804168:	ebffffc2 	bl	6804078 <utf8_len>
 680416c:	e2506000 	subs	r6, r0, #0, 0
 6804170:	ba000013 	blt	68041c4 <to_cp+0x6c>
 6804174:	e59f3050 	ldr	r3, [pc, #80]	; 68041cc <to_cp+0x74>
 6804178:	e5938000 	ldr	r8, [r3]
 680417c:	e598700c 	ldr	r7, [r8, #12]
 6804180:	e2462001 	sub	r2, r6, #1, 0
 6804184:	e0020792 	mul	r2, r2, r7
 6804188:	e285c001 	add	ip, r5, #1, 0
 680418c:	e7933106 	ldr	r3, [r3, r6, lsl #2]
 6804190:	e5d30000 	ldrb	r0, [r3]
 6804194:	e0000004 	and	r0, r0, r4
 6804198:	e1a00210 	lsl	r0, r0, r2
 680419c:	e3a01001 	mov	r1, #1, 0
 68041a0:	e1510006 	cmp	r1, r6
 68041a4:	a8bd81f0 	popge	{r4, r5, r6, r7, r8, pc}
 68041a8:	e0422007 	sub	r2, r2, r7
 68041ac:	e4dc3001 	ldrb	r3, [ip], #1
 68041b0:	e5d8e000 	ldrb	lr, [r8]
 68041b4:	e003300e 	and	r3, r3, lr
 68041b8:	e1800213 	orr	r0, r0, r3, lsl r2
 68041bc:	e2811001 	add	r1, r1, #1, 0
 68041c0:	eafffff6 	b	68041a0 <to_cp+0x48>
 68041c4:	e3a00000 	mov	r0, #0, 0
 68041c8:	e8bd81f0 	pop	{r4, r5, r6, r7, r8, pc}
 68041cc:	06806ec0 	.word	0x06806ec0

068041d0 <test_main>:
 68041d0:	e92d4070 	push	{r4, r5, r6, lr}
 68041d4:	e24dd028 	sub	sp, sp, #40, 0	; 0x28
 68041d8:	e28dc008 	add	ip, sp, #8, 0
 68041dc:	e59fe0b0 	ldr	lr, [pc, #176]	; 6804294 <test_main+0xc4>
 68041e0:	e8be000f 	ldm	lr!, {r0, r1, r2, r3}
 68041e4:	e8ac000f 	stmia	ip!, {r0, r1, r2, r3}
 68041e8:	e89e000f 	ldm	lr, {r0, r1, r2, r3}
 68041ec:	e88c000f 	stm	ip, {r0, r1, r2, r3}
 68041f0:	e59f00a0 	ldr	r0, [pc, #160]	; 6804298 <test_main+0xc8>
 68041f4:	eb000926 	bl	6806694 <printk>
 68041f8:	e59f009c 	ldr	r0, [pc, #156]	; 680429c <test_main+0xcc>
 68041fc:	eb000924 	bl	6806694 <printk>
 6804200:	e28d6008 	add	r6, sp, #8, 0
 6804204:	ea000012 	b	6804254 <test_main+0x84>
 6804208:	e59f3090 	ldr	r3, [pc, #144]	; 68042a0 <test_main+0xd0>
 680420c:	e58d3000 	str	r3, [sp]
 6804210:	e3a0306c 	mov	r3, #108, 0	; 0x6c
 6804214:	e59f2088 	ldr	r2, [pc, #136]	; 68042a4 <test_main+0xd4>
 6804218:	e59f1088 	ldr	r1, [pc, #136]	; 68042a8 <test_main+0xd8>
 680421c:	e59f0088 	ldr	r0, [pc, #136]	; 68042ac <test_main+0xdc>
 6804220:	eb00091b 	bl	6806694 <printk>
 6804224:	eb000a71 	bl	6806bf0 <clean_reboot>
 6804228:	e59f0080 	ldr	r0, [pc, #128]	; 68042b0 <test_main+0xe0>
 680422c:	eb000918 	bl	6806694 <printk>
 6804230:	e2844001 	add	r4, r4, #1, 0
 6804234:	e7d51004 	ldrb	r1, [r5, r4]
 6804238:	e3510000 	cmp	r1, #0, 0
 680423c:	0a000001 	beq	6804248 <test_main+0x78>
 6804240:	e3540003 	cmp	r4, #3, 0
 6804244:	dafffff7 	ble	6804228 <test_main+0x58>
 6804248:	e59f0064 	ldr	r0, [pc, #100]	; 68042b4 <test_main+0xe4>
 680424c:	eb000910 	bl	6806694 <printk>
 6804250:	e2866004 	add	r6, r6, #4, 0
 6804254:	e5960000 	ldr	r0, [r6]
 6804258:	e3500000 	cmp	r0, #0, 0
 680425c:	0a00000a 	beq	680428c <test_main+0xbc>
 6804260:	ebffff96 	bl	68040c0 <to_utf8>
 6804264:	e2505000 	subs	r5, r0, #0, 0
 6804268:	0affffe6 	beq	6804208 <test_main+0x38>
 680426c:	e1a00005 	mov	r0, r5
 6804270:	ebffffb8 	bl	6804158 <to_cp>
 6804274:	e1a02000 	mov	r2, r0
 6804278:	e1a01005 	mov	r1, r5
 680427c:	e59f0034 	ldr	r0, [pc, #52]	; 68042b8 <test_main+0xe8>
 6804280:	eb000903 	bl	6806694 <printk>
 6804284:	e3a04000 	mov	r4, #0, 0
 6804288:	eaffffe9 	b	6804234 <test_main+0x64>
 680428c:	e28dd028 	add	sp, sp, #40, 0	; 0x28
 6804290:	e8bd8070 	pop	{r4, r5, r6, pc}
 6804294:	06808d4c 	.word	0x06808d4c
 6804298:	06808ce4 	.word	0x06808ce4
 680429c:	0680a0c0 	.word	0x0680a0c0
 68042a0:	06808d30 	.word	0x06808d30
 68042a4:	06808d6c 	.word	0x06808d6c
 68042a8:	06808d10 	.word	0x06808d10
 68042ac:	0680745c 	.word	0x0680745c
 68042b0:	068088b8 	.word	0x068088b8
 68042b4:	06807a80 	.word	0x06807a80
 68042b8:	06808d38 	.word	0x06808d38

068042bc <get_clock_divider>:
 68042bc:	e59f30ac 	ldr	r3, [pc, #172]	; 6804370 <get_clock_divider+0xb4>
 68042c0:	e1500003 	cmp	r0, r3
 68042c4:	9a000007 	bls	68042e8 <get_clock_divider+0x2c>
 68042c8:	e59f20a4 	ldr	r2, [pc, #164]	; 6804374 <get_clock_divider+0xb8>
 68042cc:	e0823092 	umull	r3, r2, r2, r0
 68042d0:	e1a02c22 	lsr	r2, r2, #24
 68042d4:	e59f309c 	ldr	r3, [pc, #156]	; 6804378 <get_clock_divider+0xbc>
 68042d8:	e0030293 	mul	r3, r3, r2
 68042dc:	e1500003 	cmp	r0, r3
 68042e0:	13a02000 	movne	r2, #0, 0
 68042e4:	ea000000 	b	68042ec <get_clock_divider+0x30>
 68042e8:	e3a02001 	mov	r2, #1, 0
 68042ec:	e3a0001f 	mov	r0, #31, 0
 68042f0:	e3500000 	cmp	r0, #0, 0
 68042f4:	ba000007 	blt	6804318 <get_clock_divider+0x5c>
 68042f8:	e3a03001 	mov	r3, #1, 0
 68042fc:	e1a03013 	lsl	r3, r3, r0
 6804300:	e1120003 	tst	r2, r3
 6804304:	02400001 	subeq	r0, r0, #1, 0
 6804308:	0afffff8 	beq	68042f0 <get_clock_divider+0x34>
 680430c:	e1d23003 	bics	r3, r2, r3
 6804310:	12800001 	addne	r0, r0, #1, 0
 6804314:	ea000000 	b	680431c <get_clock_divider+0x60>
 6804318:	e3e00000 	mvn	r0, #0, 0
 680431c:	e3700001 	cmn	r0, #1, 0
 6804320:	0a000003 	beq	6804334 <get_clock_divider+0x78>
 6804324:	e350001f 	cmp	r0, #31, 0
 6804328:	da000002 	ble	6804338 <get_clock_divider+0x7c>
 680432c:	e3a0001f 	mov	r0, #31, 0
 6804330:	ea000002 	b	6804340 <get_clock_divider+0x84>
 6804334:	e3a0001f 	mov	r0, #31, 0
 6804338:	e3500000 	cmp	r0, #0, 0
 680433c:	0a000002 	beq	680434c <get_clock_divider+0x90>
 6804340:	e2400001 	sub	r0, r0, #1, 0
 6804344:	e3a03001 	mov	r3, #1, 0
 6804348:	e1a00013 	lsl	r0, r3, r0
 680434c:	e3500b01 	cmp	r0, #1024	; 0x400
 6804350:	a59f0024 	ldrge	r0, [pc, #36]	; 680437c <get_clock_divider+0xc0>
 6804354:	e1a03440 	asr	r3, r0, #8
 6804358:	e1a00400 	lsl	r0, r0, #8
 680435c:	e6ff0070 	uxth	r0, r0
 6804360:	e1a03303 	lsl	r3, r3, #6
 6804364:	e6ef3073 	uxtb	r3, r3
 6804368:	e1800003 	orr	r0, r0, r3
 680436c:	e12fff1e 	bx	lr
 6804370:	02faf07f 	.word	0x02faf07f
 6804374:	55e63b89 	.word	0x55e63b89
 6804378:	02faf080 	.word	0x02faf080
 680437c:	000003ff 	.word	0x000003ff

06804380 <sd_error_mask>:
 6804380:	e2800010 	add	r0, r0, #16, 0
 6804384:	e3a03001 	mov	r3, #1, 0
 6804388:	e1a00013 	lsl	r0, r3, r0
 680438c:	e12fff1e 	bx	lr

06804390 <set_last_error>:
 6804390:	e1a03820 	lsr	r3, r0, #16
 6804394:	e1a03803 	lsl	r3, r3, #16
 6804398:	e59f2008 	ldr	r2, [pc, #8]	; 68043a8 <set_last_error+0x18>
 680439c:	e5823040 	str	r3, [r2, #64]	; 0x40
 68043a0:	e5820044 	str	r0, [r2, #68]	; 0x44
 68043a4:	e12fff1e 	bx	lr
 68043a8:	0680a688 	.word	0x0680a688

068043ac <reset_command>:
 68043ac:	e92d4010 	push	{r4, lr}
 68043b0:	e59f2058 	ldr	r2, [pc, #88]	; 6804410 <reset_command+0x64>
 68043b4:	e592302c 	ldr	r3, [r2, #44]	; 0x2c
 68043b8:	e3833402 	orr	r3, r3, #33554432	; 0x2000000
 68043bc:	e582302c 	str	r3, [r2, #44]	; 0x2c
 68043c0:	e3a04000 	mov	r4, #0, 0
 68043c4:	ea000002 	b	68043d4 <reset_command+0x28>
 68043c8:	e3a00001 	mov	r0, #1, 0
 68043cc:	eb000aa2 	bl	6806e5c <delay_ms>
 68043d0:	e2844001 	add	r4, r4, #1, 0
 68043d4:	e59f3038 	ldr	r3, [pc, #56]	; 6804414 <reset_command+0x68>
 68043d8:	e1540003 	cmp	r4, r3
 68043dc:	ca000005 	bgt	68043f8 <reset_command+0x4c>
 68043e0:	e59f3028 	ldr	r3, [pc, #40]	; 6804410 <reset_command+0x64>
 68043e4:	e593302c 	ldr	r3, [r3, #44]	; 0x2c
 68043e8:	e3130402 	tst	r3, #33554432	; 0x2000000
 68043ec:	1afffff5 	bne	68043c8 <reset_command+0x1c>
 68043f0:	e3a00001 	mov	r0, #1, 0
 68043f4:	e8bd8010 	pop	{r4, pc}
 68043f8:	e59f3010 	ldr	r3, [pc, #16]	; 6804410 <reset_command+0x64>
 68043fc:	e593102c 	ldr	r1, [r3, #44]	; 0x2c
 6804400:	e59f0010 	ldr	r0, [pc, #16]	; 6804418 <reset_command+0x6c>
 6804404:	eb0008a2 	bl	6806694 <printk>
 6804408:	e3a00000 	mov	r0, #0, 0
 680440c:	e8bd8010 	pop	{r4, pc}
 6804410:	20300000 	.word	0x20300000
 6804414:	0000270f 	.word	0x0000270f
 6804418:	06808d78 	.word	0x06808d78

0680441c <wait_reg_mask>:
 680441c:	e92d41f0 	push	{r4, r5, r6, r7, r8, lr}
 6804420:	e1a07000 	mov	r7, r0
 6804424:	e1a06001 	mov	r6, r1
 6804428:	e1a08002 	mov	r8, r2
 680442c:	e1a05003 	mov	r5, r3
 6804430:	e3a04000 	mov	r4, #0, 0
 6804434:	ea000005 	b	6804450 <wait_reg_mask+0x34>
 6804438:	e1a00008 	mov	r0, r8
 680443c:	e3500000 	cmp	r0, #0, 0
 6804440:	18bd81f0 	popne	{r4, r5, r6, r7, r8, pc}
 6804444:	e3a00064 	mov	r0, #100, 0	; 0x64
 6804448:	eb000a7a 	bl	6806e38 <delay_us>
 680444c:	e2844001 	add	r4, r4, #1, 0
 6804450:	e0853105 	add	r3, r5, r5, lsl #2
 6804454:	e1540083 	cmp	r4, r3, lsl #1
 6804458:	8a000004 	bhi	6804470 <wait_reg_mask+0x54>
 680445c:	e5973000 	ldr	r3, [r7]
 6804460:	e1130006 	tst	r3, r6
 6804464:	1afffff3 	bne	6804438 <wait_reg_mask+0x1c>
 6804468:	e2280001 	eor	r0, r8, #1, 0
 680446c:	eafffff2 	b	680443c <wait_reg_mask+0x20>
 6804470:	e3a00000 	mov	r0, #0, 0
 6804474:	e8bd81f0 	pop	{r4, r5, r6, r7, r8, pc}

06804478 <do_data_transfer>:
 6804478:	e92d41f0 	push	{r4, r5, r6, r7, r8, lr}
 680447c:	e24dd008 	sub	sp, sp, #8, 0
 6804480:	e58d0004 	str	r0, [sp, #4]
 6804484:	e3100010 	tst	r0, #16, 0
 6804488:	0a000005 	beq	68044a4 <do_data_transfer+0x2c>
 680448c:	e3a07000 	mov	r7, #0, 0
 6804490:	e3a05020 	mov	r5, #32, 0
 6804494:	e59f30c0 	ldr	r3, [pc, #192]	; 680455c <do_data_transfer+0xe4>
 6804498:	e5934038 	ldr	r4, [r3, #56]	; 0x38
 680449c:	e3a06000 	mov	r6, #0, 0
 68044a0:	ea00000c 	b	68044d8 <do_data_transfer+0x60>
 68044a4:	e3a07001 	mov	r7, #1, 0
 68044a8:	e3a05010 	mov	r5, #16, 0
 68044ac:	eafffff8 	b	6804494 <do_data_transfer+0x1c>
 68044b0:	ebffffb6 	bl	6804390 <set_last_error>
 68044b4:	e3a00000 	mov	r0, #0, 0
 68044b8:	ea000025 	b	6804554 <do_data_transfer+0xdc>
 68044bc:	e4941004 	ldr	r1, [r4], #4
 68044c0:	e59f2098 	ldr	r2, [pc, #152]	; 6804560 <do_data_transfer+0xe8>
 68044c4:	e5821020 	str	r1, [r2, #32]
 68044c8:	e2433004 	sub	r3, r3, #4, 0
 68044cc:	e3530000 	cmp	r3, #0, 0
 68044d0:	1afffff9 	bne	68044bc <do_data_transfer+0x44>
 68044d4:	e2866001 	add	r6, r6, #1, 0
 68044d8:	e59f307c 	ldr	r3, [pc, #124]	; 680455c <do_data_transfer+0xe4>
 68044dc:	e5933004 	ldr	r3, [r3, #4]
 68044e0:	e1530006 	cmp	r3, r6
 68044e4:	9a000019 	bls	6804550 <do_data_transfer+0xd8>
 68044e8:	e3858902 	orr	r8, r5, #32768	; 0x8000
 68044ec:	e3a03e7d 	mov	r3, #2000	; 0x7d0
 68044f0:	e3a02001 	mov	r2, #1, 0
 68044f4:	e1a01008 	mov	r1, r8
 68044f8:	e59f0064 	ldr	r0, [pc, #100]	; 6804564 <do_data_transfer+0xec>
 68044fc:	ebffffc6 	bl	680441c <wait_reg_mask>
 6804500:	e59f3058 	ldr	r3, [pc, #88]	; 6804560 <do_data_transfer+0xe8>
 6804504:	e5930030 	ldr	r0, [r3, #48]	; 0x30
 6804508:	e5838030 	str	r8, [r3, #48]	; 0x30
 680450c:	e1e03805 	mvn	r3, r5, lsl #16
 6804510:	e1e03823 	mvn	r3, r3, lsr #16
 6804514:	e0033000 	and	r3, r3, r0
 6804518:	e1530005 	cmp	r3, r5
 680451c:	1affffe3 	bne	68044b0 <do_data_transfer+0x38>
 6804520:	e59f3034 	ldr	r3, [pc, #52]	; 680455c <do_data_transfer+0xe4>
 6804524:	e5933010 	ldr	r3, [r3, #16]
 6804528:	e3570000 	cmp	r7, #0, 0
 680452c:	1affffe6 	bne	68044cc <do_data_transfer+0x54>
 6804530:	ea000003 	b	6804544 <do_data_transfer+0xcc>
 6804534:	e59f2024 	ldr	r2, [pc, #36]	; 6804560 <do_data_transfer+0xe8>
 6804538:	e5922020 	ldr	r2, [r2, #32]
 680453c:	e4842004 	str	r2, [r4], #4
 6804540:	e2433004 	sub	r3, r3, #4, 0
 6804544:	e3530000 	cmp	r3, #0, 0
 6804548:	1afffff9 	bne	6804534 <do_data_transfer+0xbc>
 680454c:	eaffffe0 	b	68044d4 <do_data_transfer+0x5c>
 6804550:	e3a00001 	mov	r0, #1, 0
 6804554:	e28dd008 	add	sp, sp, #8, 0
 6804558:	e8bd81f0 	pop	{r4, r5, r6, r7, r8, pc}
 680455c:	0680a688 	.word	0x0680a688
 6804560:	20300000 	.word	0x20300000
 6804564:	20300030 	.word	0x20300030

06804568 <emmc_issue_command>:
 6804568:	e92d4030 	push	{r4, r5, lr}
 680456c:	e24dd014 	sub	sp, sp, #20, 0
 6804570:	e58d0004 	str	r0, [sp, #4]
 6804574:	e1a05002 	mov	r5, r2
 6804578:	e59d2004 	ldr	r2, [sp, #4]
 680457c:	e59f31c8 	ldr	r3, [pc, #456]	; 680474c <emmc_issue_command+0x1e4>
 6804580:	e583200c 	str	r2, [r3, #12]
 6804584:	e593200c 	ldr	r2, [r3, #12]
 6804588:	e58d200c 	str	r2, [sp, #12]
 680458c:	e5932004 	ldr	r2, [r3, #4]
 6804590:	e3520801 	cmp	r2, #65536	; 0x10000
 6804594:	2a000014 	bcs	68045ec <emmc_issue_command+0x84>
 6804598:	e59f31ac 	ldr	r3, [pc, #428]	; 680474c <emmc_issue_command+0x1e4>
 680459c:	e5933010 	ldr	r3, [r3, #16]
 68045a0:	e1832802 	orr	r2, r3, r2, lsl #16
 68045a4:	e59f31a4 	ldr	r3, [pc, #420]	; 6804750 <emmc_issue_command+0x1e8>
 68045a8:	e5832004 	str	r2, [r3, #4]
 68045ac:	e5831008 	str	r1, [r3, #8]
 68045b0:	e59d200c 	ldr	r2, [sp, #12]
 68045b4:	e583200c 	str	r2, [r3, #12]
 68045b8:	e3a04000 	mov	r4, #0, 0
 68045bc:	e1a02004 	mov	r2, r4
 68045c0:	e1540005 	cmp	r4, r5
 68045c4:	2a00000d 	bcs	6804600 <emmc_issue_command+0x98>
 68045c8:	e59f3180 	ldr	r3, [pc, #384]	; 6804750 <emmc_issue_command+0x1e8>
 68045cc:	e5931030 	ldr	r1, [r3, #48]	; 0x30
 68045d0:	e59f317c 	ldr	r3, [pc, #380]	; 6804754 <emmc_issue_command+0x1ec>
 68045d4:	e1110003 	tst	r1, r3
 68045d8:	1a000008 	bne	6804600 <emmc_issue_command+0x98>
 68045dc:	e3a00001 	mov	r0, #1, 0
 68045e0:	eb000a1d 	bl	6806e5c <delay_ms>
 68045e4:	e2844001 	add	r4, r4, #1, 0
 68045e8:	eafffff3 	b	68045bc <emmc_issue_command+0x54>
 68045ec:	e1a01002 	mov	r1, r2
 68045f0:	e59f0160 	ldr	r0, [pc, #352]	; 6804758 <emmc_issue_command+0x1f0>
 68045f4:	eb000826 	bl	6806694 <printk>
 68045f8:	e3a00000 	mov	r0, #0, 0
 68045fc:	ea000034 	b	68046d4 <emmc_issue_command+0x16c>
 6804600:	e1520005 	cmp	r2, r5
 6804604:	2a000034 	bcs	68046dc <emmc_issue_command+0x174>
 6804608:	e59f3140 	ldr	r3, [pc, #320]	; 6804750 <emmc_issue_command+0x1e8>
 680460c:	e5930030 	ldr	r0, [r3, #48]	; 0x30
 6804610:	e59f2144 	ldr	r2, [pc, #324]	; 680475c <emmc_issue_command+0x1f4>
 6804614:	e5832030 	str	r2, [r3, #48]	; 0x30
 6804618:	e3c03cff 	bic	r3, r0, #65280	; 0xff00
 680461c:	e3c330fe 	bic	r3, r3, #254, 0	; 0xfe
 6804620:	e3530001 	cmp	r3, #1, 0
 6804624:	1a000032 	bne	68046f4 <emmc_issue_command+0x18c>
 6804628:	e5dd3006 	ldrb	r3, [sp, #6]
 680462c:	e2033003 	and	r3, r3, #3, 0
 6804630:	e3530001 	cmp	r3, #1, 0
 6804634:	0a000033 	beq	6804708 <emmc_issue_command+0x1a0>
 6804638:	e6af2073 	sxtb	r2, r3
 680463c:	e3520000 	cmp	r2, #0, 0
 6804640:	0a000006 	beq	6804660 <emmc_issue_command+0xf8>
 6804644:	e2833002 	add	r3, r3, #2, 0
 6804648:	e2033003 	and	r3, r3, #3, 0
 680464c:	e3530001 	cmp	r3, #1, 0
 6804650:	959f30f8 	ldrls	r3, [pc, #248]	; 6804750 <emmc_issue_command+0x1e8>
 6804654:	95932010 	ldrls	r2, [r3, #16]
 6804658:	959f30ec 	ldrls	r3, [pc, #236]	; 680474c <emmc_issue_command+0x1e4>
 680465c:	95832014 	strls	r2, [r3, #20]
 6804660:	e5dd4006 	ldrb	r4, [sp, #6]
 6804664:	e2145020 	ands	r5, r4, #32, 0
 6804668:	1a000031 	bne	6804734 <emmc_issue_command+0x1cc>
 680466c:	e2044003 	and	r4, r4, #3, 0
 6804670:	e3540003 	cmp	r4, #3, 0
 6804674:	0a000001 	beq	6804680 <emmc_issue_command+0x118>
 6804678:	e3550000 	cmp	r5, #0, 0
 680467c:	0a000011 	beq	68046c8 <emmc_issue_command+0x160>
 6804680:	e3a03e7d 	mov	r3, #2000	; 0x7d0
 6804684:	e3a02001 	mov	r2, #1, 0
 6804688:	e59f10d0 	ldr	r1, [pc, #208]	; 6804760 <emmc_issue_command+0x1f8>
 680468c:	e59f00d0 	ldr	r0, [pc, #208]	; 6804764 <emmc_issue_command+0x1fc>
 6804690:	ebffff61 	bl	680441c <wait_reg_mask>
 6804694:	e59f30b4 	ldr	r3, [pc, #180]	; 6804750 <emmc_issue_command+0x1e8>
 6804698:	e5930030 	ldr	r0, [r3, #48]	; 0x30
 680469c:	e59f20c4 	ldr	r2, [pc, #196]	; 6804768 <emmc_issue_command+0x200>
 68046a0:	e5832030 	str	r2, [r3, #48]	; 0x30
 68046a4:	e3c03cff 	bic	r3, r0, #65280	; 0xff00
 68046a8:	e3c330fd 	bic	r3, r3, #253, 0	; 0xfd
 68046ac:	e2822811 	add	r2, r2, #1114112	; 0x110000
 68046b0:	e3530002 	cmp	r3, #2, 0
 68046b4:	11530002 	cmpne	r3, r2
 68046b8:	1a000020 	bne	6804740 <emmc_issue_command+0x1d8>
 68046bc:	e59f308c 	ldr	r3, [pc, #140]	; 6804750 <emmc_issue_command+0x1e8>
 68046c0:	e59f20a0 	ldr	r2, [pc, #160]	; 6804768 <emmc_issue_command+0x200>
 68046c4:	e5832030 	str	r2, [r3, #48]	; 0x30
 68046c8:	e3a00001 	mov	r0, #1, 0
 68046cc:	e59f3078 	ldr	r3, [pc, #120]	; 680474c <emmc_issue_command+0x1e4>
 68046d0:	e5c30000 	strb	r0, [r3]
 68046d4:	e28dd014 	add	sp, sp, #20, 0
 68046d8:	e8bd8030 	pop	{r4, r5, pc}
 68046dc:	e59f0088 	ldr	r0, [pc, #136]	; 680476c <emmc_issue_command+0x204>
 68046e0:	eb0007eb 	bl	6806694 <printk>
 68046e4:	e3a00000 	mov	r0, #0, 0
 68046e8:	e59f305c 	ldr	r3, [pc, #92]	; 680474c <emmc_issue_command+0x1e4>
 68046ec:	e5c30000 	strb	r0, [r3]
 68046f0:	eafffff7 	b	68046d4 <emmc_issue_command+0x16c>
 68046f4:	ebffff25 	bl	6804390 <set_last_error>
 68046f8:	e3a00000 	mov	r0, #0, 0
 68046fc:	e59f3048 	ldr	r3, [pc, #72]	; 680474c <emmc_issue_command+0x1e4>
 6804700:	e5c30000 	strb	r0, [r3]
 6804704:	eafffff2 	b	68046d4 <emmc_issue_command+0x16c>
 6804708:	e59f2040 	ldr	r2, [pc, #64]	; 6804750 <emmc_issue_command+0x1e8>
 680470c:	e5921010 	ldr	r1, [r2, #16]
 6804710:	e59f3034 	ldr	r3, [pc, #52]	; 680474c <emmc_issue_command+0x1e4>
 6804714:	e5831014 	str	r1, [r3, #20]
 6804718:	e5921014 	ldr	r1, [r2, #20]
 680471c:	e5831018 	str	r1, [r3, #24]
 6804720:	e5921018 	ldr	r1, [r2, #24]
 6804724:	e583101c 	str	r1, [r3, #28]
 6804728:	e592201c 	ldr	r2, [r2, #28]
 680472c:	e5832020 	str	r2, [r3, #32]
 6804730:	eaffffca 	b	6804660 <emmc_issue_command+0xf8>
 6804734:	e59d0004 	ldr	r0, [sp, #4]
 6804738:	ebffff4e 	bl	6804478 <do_data_transfer>
 680473c:	eaffffca 	b	680466c <emmc_issue_command+0x104>
 6804740:	ebffff12 	bl	6804390 <set_last_error>
 6804744:	e3a00000 	mov	r0, #0, 0
 6804748:	eaffffe1 	b	68046d4 <emmc_issue_command+0x16c>
 680474c:	0680a688 	.word	0x0680a688
 6804750:	20300000 	.word	0x20300000
 6804754:	00008001 	.word	0x00008001
 6804758:	06808db0 	.word	0x06808db0
 680475c:	ffff0001 	.word	0xffff0001
 6804760:	00008002 	.word	0x00008002
 6804764:	20300030 	.word	0x20300030
 6804768:	ffff0002 	.word	0xffff0002
 680476c:	06808dd8 	.word	0x06808dd8

06804770 <emmc_command>:
 6804770:	e92d4010 	push	{r4, lr}
 6804774:	e3500000 	cmp	r0, #0, 0
 6804778:	ba00000b 	blt	68047ac <emmc_command+0x3c>
 680477c:	e59fc048 	ldr	ip, [pc, #72]	; 68047cc <emmc_command+0x5c>
 6804780:	e59f3048 	ldr	r3, [pc, #72]	; 68047d0 <emmc_command+0x60>
 6804784:	e7930100 	ldr	r0, [r3, r0, lsl #2]
 6804788:	e58c0008 	str	r0, [ip, #8]
 680478c:	e59c0008 	ldr	r0, [ip, #8]
 6804790:	e59330e0 	ldr	r3, [r3, #224]	; 0xe0
 6804794:	e1500003 	cmp	r0, r3
 6804798:	0a000007 	beq	68047bc <emmc_command+0x4c>
 680479c:	e59f3028 	ldr	r3, [pc, #40]	; 68047cc <emmc_command+0x5c>
 68047a0:	e5930008 	ldr	r0, [r3, #8]
 68047a4:	ebffff6f 	bl	6804568 <emmc_issue_command>
 68047a8:	e8bd8010 	pop	{r4, pc}
 68047ac:	e59f0020 	ldr	r0, [pc, #32]	; 68047d4 <emmc_command+0x64>
 68047b0:	eb0007b7 	bl	6806694 <printk>
 68047b4:	e3a00000 	mov	r0, #0, 0
 68047b8:	e8bd8010 	pop	{r4, pc}
 68047bc:	e59f0014 	ldr	r0, [pc, #20]	; 68047d8 <emmc_command+0x68>
 68047c0:	eb0007b3 	bl	6806694 <printk>
 68047c4:	e3a00000 	mov	r0, #0, 0
 68047c8:	e8bd8010 	pop	{r4, pc}
 68047cc:	0680a688 	.word	0x0680a688
 68047d0:	0680921c 	.word	0x0680921c
 68047d4:	06808e04 	.word	0x06808e04
 68047d8:	06808e28 	.word	0x06808e28

068047dc <check_v2_card>:
 68047dc:	e92d4010 	push	{r4, lr}
 68047e0:	e3a020c8 	mov	r2, #200, 0	; 0xc8
 68047e4:	e59f10a0 	ldr	r1, [pc, #160]	; 680488c <check_v2_card+0xb0>
 68047e8:	e3a00008 	mov	r0, #8, 0
 68047ec:	ebffffdf 	bl	6804770 <emmc_command>
 68047f0:	e2504000 	subs	r4, r0, #0, 0
 68047f4:	1a000017 	bne	6804858 <check_v2_card+0x7c>
 68047f8:	e59f3090 	ldr	r3, [pc, #144]	; 6804890 <check_v2_card+0xb4>
 68047fc:	e5933040 	ldr	r3, [r3, #64]	; 0x40
 6804800:	e3530000 	cmp	r3, #0, 0
 6804804:	0a000006 	beq	6804824 <check_v2_card+0x48>
 6804808:	e3130801 	tst	r3, #65536	; 0x10000
 680480c:	0a00000e 	beq	680484c <check_v2_card+0x70>
 6804810:	ebfffee5 	bl	68043ac <reset_command>
 6804814:	e3500000 	cmp	r0, #0, 0
 6804818:	1a000004 	bne	6804830 <check_v2_card+0x54>
 680481c:	e1a04000 	mov	r4, r0
 6804820:	ea000013 	b	6804874 <check_v2_card+0x98>
 6804824:	e59f0068 	ldr	r0, [pc, #104]	; 6804894 <check_v2_card+0xb8>
 6804828:	eb000799 	bl	6806694 <printk>
 680482c:	ea000010 	b	6804874 <check_v2_card+0x98>
 6804830:	e3a00000 	mov	r0, #0, 0
 6804834:	ebfffed1 	bl	6804380 <sd_error_mask>
 6804838:	e59f3058 	ldr	r3, [pc, #88]	; 6804898 <check_v2_card+0xbc>
 680483c:	e5830030 	str	r0, [r3, #48]	; 0x30
 6804840:	e59f0054 	ldr	r0, [pc, #84]	; 680489c <check_v2_card+0xc0>
 6804844:	eb000792 	bl	6806694 <printk>
 6804848:	ea000009 	b	6804874 <check_v2_card+0x98>
 680484c:	e59f004c 	ldr	r0, [pc, #76]	; 68048a0 <check_v2_card+0xc4>
 6804850:	eb00078f 	bl	6806694 <printk>
 6804854:	ea000006 	b	6804874 <check_v2_card+0x98>
 6804858:	e59f3030 	ldr	r3, [pc, #48]	; 6804890 <check_v2_card+0xb4>
 680485c:	e5931014 	ldr	r1, [r3, #20]
 6804860:	e1a03a01 	lsl	r3, r1, #20
 6804864:	e1a03a23 	lsr	r3, r3, #20
 6804868:	e59f201c 	ldr	r2, [pc, #28]	; 680488c <check_v2_card+0xb0>
 680486c:	e1530002 	cmp	r3, r2
 6804870:	1a000001 	bne	680487c <check_v2_card+0xa0>
 6804874:	e1a00004 	mov	r0, r4
 6804878:	e8bd8010 	pop	{r4, pc}
 680487c:	e59f0020 	ldr	r0, [pc, #32]	; 68048a4 <check_v2_card+0xc8>
 6804880:	eb000783 	bl	6806694 <printk>
 6804884:	e3a04000 	mov	r4, #0, 0
 6804888:	eafffff9 	b	6804874 <check_v2_card+0x98>
 680488c:	000001aa 	.word	0x000001aa
 6804890:	0680a688 	.word	0x0680a688
 6804894:	06808e44 	.word	0x06808e44
 6804898:	20300000 	.word	0x20300000
 680489c:	06808e64 	.word	0x06808e64
 68048a0:	06808e88 	.word	0x06808e88
 68048a4:	06808eb0 	.word	0x06808eb0

068048a8 <check_usable_card>:
 68048a8:	e92d4010 	push	{r4, lr}
 68048ac:	e3a02ffa 	mov	r2, #1000	; 0x3e8
 68048b0:	e3a01000 	mov	r1, #0, 0
 68048b4:	e3a00005 	mov	r0, #5, 0
 68048b8:	ebffffac 	bl	6804770 <emmc_command>
 68048bc:	e2504000 	subs	r4, r0, #0, 0
 68048c0:	1a000010 	bne	6804908 <check_usable_card+0x60>
 68048c4:	e59f3050 	ldr	r3, [pc, #80]	; 680491c <check_usable_card+0x74>
 68048c8:	e5933040 	ldr	r3, [r3, #64]	; 0x40
 68048cc:	e3530000 	cmp	r3, #0, 0
 68048d0:	0a000009 	beq	68048fc <check_usable_card+0x54>
 68048d4:	e3130801 	tst	r3, #65536	; 0x10000
 68048d8:	0a00000c 	beq	6804910 <check_usable_card+0x68>
 68048dc:	ebfffeb2 	bl	68043ac <reset_command>
 68048e0:	e2504000 	subs	r4, r0, #0, 0
 68048e4:	0a000007 	beq	6804908 <check_usable_card+0x60>
 68048e8:	e3a00000 	mov	r0, #0, 0
 68048ec:	ebfffea3 	bl	6804380 <sd_error_mask>
 68048f0:	e59f3028 	ldr	r3, [pc, #40]	; 6804920 <check_usable_card+0x78>
 68048f4:	e5830030 	str	r0, [r3, #48]	; 0x30
 68048f8:	ea000002 	b	6804908 <check_usable_card+0x60>
 68048fc:	e59f0020 	ldr	r0, [pc, #32]	; 6804924 <check_usable_card+0x7c>
 6804900:	eb000763 	bl	6806694 <printk>
 6804904:	e3a04001 	mov	r4, #1, 0
 6804908:	e1a00004 	mov	r0, r4
 680490c:	e8bd8010 	pop	{r4, pc}
 6804910:	e59f0010 	ldr	r0, [pc, #16]	; 6804928 <check_usable_card+0x80>
 6804914:	eb00075e 	bl	6806694 <printk>
 6804918:	eafffffa 	b	6804908 <check_usable_card+0x60>
 680491c:	0680a688 	.word	0x0680a688
 6804920:	20300000 	.word	0x20300000
 6804924:	06808ed0 	.word	0x06808ed0
 6804928:	06808ef4 	.word	0x06808ef4

0680492c <check_rca>:
 680492c:	e92d4010 	push	{r4, lr}
 6804930:	e3a02e7d 	mov	r2, #2000	; 0x7d0
 6804934:	e3a01000 	mov	r1, #0, 0
 6804938:	e3a00002 	mov	r0, #2, 0
 680493c:	ebffff8b 	bl	6804770 <emmc_command>
 6804940:	e2504000 	subs	r4, r0, #0, 0
 6804944:	0a00000d 	beq	6804980 <check_rca+0x54>
 6804948:	e3a02e7d 	mov	r2, #2000	; 0x7d0
 680494c:	e3a01000 	mov	r1, #0, 0
 6804950:	e3a00003 	mov	r0, #3, 0
 6804954:	ebffff85 	bl	6804770 <emmc_command>
 6804958:	e2504000 	subs	r4, r0, #0, 0
 680495c:	0a00000a 	beq	680498c <check_rca+0x60>
 6804960:	e59f2040 	ldr	r2, [pc, #64]	; 68049a8 <check_rca+0x7c>
 6804964:	e5923014 	ldr	r3, [r2, #20]
 6804968:	e1a01823 	lsr	r1, r3, #16
 680496c:	e5821028 	str	r1, [r2, #40]	; 0x28
 6804970:	e3130c01 	tst	r3, #256	; 0x100
 6804974:	0a000007 	beq	6804998 <check_rca+0x6c>
 6804978:	e1a00004 	mov	r0, r4
 680497c:	e8bd8010 	pop	{r4, pc}
 6804980:	e59f0024 	ldr	r0, [pc, #36]	; 68049ac <check_rca+0x80>
 6804984:	eb000742 	bl	6806694 <printk>
 6804988:	eafffffa 	b	6804978 <check_rca+0x4c>
 680498c:	e59f001c 	ldr	r0, [pc, #28]	; 68049b0 <check_rca+0x84>
 6804990:	eb00073f 	bl	6806694 <printk>
 6804994:	eafffff7 	b	6804978 <check_rca+0x4c>
 6804998:	e59f0014 	ldr	r0, [pc, #20]	; 68049b4 <check_rca+0x88>
 680499c:	eb00073c 	bl	6806694 <printk>
 68049a0:	e3a04000 	mov	r4, #0, 0
 68049a4:	eafffff3 	b	6804978 <check_rca+0x4c>
 68049a8:	0680a688 	.word	0x0680a688
 68049ac:	06808f18 	.word	0x06808f18
 68049b0:	06808f38 	.word	0x06808f38
 68049b4:	06808f60 	.word	0x06808f60

068049b8 <select_card>:
 68049b8:	e92d4010 	push	{r4, lr}
 68049bc:	e59f3058 	ldr	r3, [pc, #88]	; 6804a1c <select_card+0x64>
 68049c0:	e5931028 	ldr	r1, [r3, #40]	; 0x28
 68049c4:	e3a02e7d 	mov	r2, #2000	; 0x7d0
 68049c8:	e1a01801 	lsl	r1, r1, #16
 68049cc:	e3a00007 	mov	r0, #7, 0
 68049d0:	ebffff66 	bl	6804770 <emmc_command>
 68049d4:	e2504000 	subs	r4, r0, #0, 0
 68049d8:	0a000008 	beq	6804a00 <select_card+0x48>
 68049dc:	e59f3038 	ldr	r3, [pc, #56]	; 6804a1c <select_card+0x64>
 68049e0:	e5931014 	ldr	r1, [r3, #20]
 68049e4:	e1a014a1 	lsr	r1, r1, #9
 68049e8:	e201100f 	and	r1, r1, #15, 0
 68049ec:	e2413003 	sub	r3, r1, #3, 0
 68049f0:	e3530001 	cmp	r3, #1, 0
 68049f4:	8a000004 	bhi	6804a0c <select_card+0x54>
 68049f8:	e1a00004 	mov	r0, r4
 68049fc:	e8bd8010 	pop	{r4, pc}
 6804a00:	e59f0018 	ldr	r0, [pc, #24]	; 6804a20 <select_card+0x68>
 6804a04:	eb000722 	bl	6806694 <printk>
 6804a08:	eafffffa 	b	68049f8 <select_card+0x40>
 6804a0c:	e59f0010 	ldr	r0, [pc, #16]	; 6804a24 <select_card+0x6c>
 6804a10:	eb00071f 	bl	6806694 <printk>
 6804a14:	e3a04000 	mov	r4, #0, 0
 6804a18:	eafffff6 	b	68049f8 <select_card+0x40>
 6804a1c:	0680a688 	.word	0x0680a688
 6804a20:	06808f80 	.word	0x06808f80
 6804a24:	06808fa4 	.word	0x06808fa4

06804a28 <do_data_command>:
 6804a28:	e92d40f0 	push	{r4, r5, r6, r7, lr}
 6804a2c:	e24dd00c 	sub	sp, sp, #12, 0
 6804a30:	e1a0c001 	mov	ip, r1
 6804a34:	e1a01002 	mov	r1, r2
 6804a38:	e1a05003 	mov	r5, r3
 6804a3c:	e59f3114 	ldr	r3, [pc, #276]	; 6804b58 <do_data_command+0x130>
 6804a40:	e5d33024 	ldrb	r3, [r3, #36]	; 0x24
 6804a44:	e3530000 	cmp	r3, #0, 0
 6804a48:	01a05485 	lsleq	r5, r5, #9
 6804a4c:	e59f3104 	ldr	r3, [pc, #260]	; 6804b58 <do_data_command+0x130>
 6804a50:	e5932010 	ldr	r2, [r3, #16]
 6804a54:	e1520001 	cmp	r2, r1
 6804a58:	8a000010 	bhi	6804aa0 <do_data_command+0x78>
 6804a5c:	e3520c02 	cmp	r2, #512	; 0x200
 6804a60:	1a000012 	bne	6804ab0 <do_data_command+0x88>
 6804a64:	e1a034a1 	lsr	r3, r1, #9
 6804a68:	e59f20e8 	ldr	r2, [pc, #232]	; 6804b58 <do_data_command+0x130>
 6804a6c:	e5823004 	str	r3, [r2, #4]
 6804a70:	e1a02b81 	lsl	r2, r1, #23
 6804a74:	e1a02ba2 	lsr	r2, r2, #23
 6804a78:	e3520000 	cmp	r2, #0, 0
 6804a7c:	1a000013 	bne	6804ad0 <do_data_command+0xa8>
 6804a80:	e59f20d0 	ldr	r2, [pc, #208]	; 6804b58 <do_data_command+0x130>
 6804a84:	e582c038 	str	ip, [r2, #56]	; 0x38
 6804a88:	e3500000 	cmp	r0, #0, 0
 6804a8c:	0a000013 	beq	6804ae0 <do_data_command+0xb8>
 6804a90:	e3530001 	cmp	r3, #1, 0
 6804a94:	9a000011 	bls	6804ae0 <do_data_command+0xb8>
 6804a98:	e3a07019 	mov	r7, #25, 0
 6804a9c:	ea000017 	b	6804b00 <do_data_command+0xd8>
 6804aa0:	e59f00b4 	ldr	r0, [pc, #180]	; 6804b5c <do_data_command+0x134>
 6804aa4:	eb0006fa 	bl	6806694 <printk>
 6804aa8:	e3a04000 	mov	r4, #0, 0
 6804aac:	ea000026 	b	6804b4c <do_data_command+0x124>
 6804ab0:	e59f30a8 	ldr	r3, [pc, #168]	; 6804b60 <do_data_command+0x138>
 6804ab4:	e58d3000 	str	r3, [sp]
 6804ab8:	e59f30a4 	ldr	r3, [pc, #164]	; 6804b64 <do_data_command+0x13c>
 6804abc:	e59f20a4 	ldr	r2, [pc, #164]	; 6804b68 <do_data_command+0x140>
 6804ac0:	e59f10a4 	ldr	r1, [pc, #164]	; 6804b6c <do_data_command+0x144>
 6804ac4:	e59f00a4 	ldr	r0, [pc, #164]	; 6804b70 <do_data_command+0x148>
 6804ac8:	eb0006f1 	bl	6806694 <printk>
 6804acc:	eb000847 	bl	6806bf0 <clean_reboot>
 6804ad0:	e59f009c 	ldr	r0, [pc, #156]	; 6804b74 <do_data_command+0x14c>
 6804ad4:	eb0006ee 	bl	6806694 <printk>
 6804ad8:	e3a04000 	mov	r4, #0, 0
 6804adc:	ea00001a 	b	6804b4c <do_data_command+0x124>
 6804ae0:	e3500000 	cmp	r0, #0, 0
 6804ae4:	1a000004 	bne	6804afc <do_data_command+0xd4>
 6804ae8:	e3530001 	cmp	r3, #1, 0
 6804aec:	83a07012 	movhi	r7, #18, 0
 6804af0:	8a000002 	bhi	6804b00 <do_data_command+0xd8>
 6804af4:	e3a07011 	mov	r7, #17, 0
 6804af8:	ea000000 	b	6804b00 <do_data_command+0xd8>
 6804afc:	e3a07018 	mov	r7, #24, 0
 6804b00:	e3a06000 	mov	r6, #0, 0
 6804b04:	e3560002 	cmp	r6, #2, 0
 6804b08:	ca00000e 	bgt	6804b48 <do_data_command+0x120>
 6804b0c:	e59f2064 	ldr	r2, [pc, #100]	; 6804b78 <do_data_command+0x150>
 6804b10:	e1a01005 	mov	r1, r5
 6804b14:	e1a00007 	mov	r0, r7
 6804b18:	ebffff14 	bl	6804770 <emmc_command>
 6804b1c:	e2504000 	subs	r4, r0, #0, 0
 6804b20:	1a000009 	bne	6804b4c <do_data_command+0x124>
 6804b24:	e2866001 	add	r6, r6, #1, 0
 6804b28:	e3560002 	cmp	r6, #2, 0
 6804b2c:	ca000002 	bgt	6804b3c <do_data_command+0x114>
 6804b30:	e59f0044 	ldr	r0, [pc, #68]	; 6804b7c <do_data_command+0x154>
 6804b34:	eb0006d6 	bl	6806694 <printk>
 6804b38:	eafffff1 	b	6804b04 <do_data_command+0xdc>
 6804b3c:	e59f003c 	ldr	r0, [pc, #60]	; 6804b80 <do_data_command+0x158>
 6804b40:	eb0006d3 	bl	6806694 <printk>
 6804b44:	ea000000 	b	6804b4c <do_data_command+0x124>
 6804b48:	e3a04001 	mov	r4, #1, 0
 6804b4c:	e1a00004 	mov	r0, r4
 6804b50:	e28dd00c 	add	sp, sp, #12, 0
 6804b54:	e8bd80f0 	pop	{r4, r5, r6, r7, pc}
 6804b58:	0680a688 	.word	0x0680a688
 6804b5c:	06808fc4 	.word	0x06808fc4
 6804b60:	06808ffc 	.word	0x06808ffc
 6804b64:	000002b1 	.word	0x000002b1
 6804b68:	06809300 	.word	0x06809300
 6804b6c:	06808fe4 	.word	0x06808fe4
 6804b70:	0680745c 	.word	0x0680745c
 6804b74:	06809018 	.word	0x06809018
 6804b78:	00001388 	.word	0x00001388
 6804b7c:	06809034 	.word	0x06809034
 6804b80:	06809058 	.word	0x06809058

06804b84 <emmc_setup_clock>:
 6804b84:	e92d4070 	push	{r4, r5, r6, lr}
 6804b88:	e59f5074 	ldr	r5, [pc, #116]	; 6804c04 <emmc_setup_clock+0x80>
 6804b8c:	e3a03000 	mov	r3, #0, 0
 6804b90:	e585303c 	str	r3, [r5, #60]	; 0x3c
 6804b94:	e595402c 	ldr	r4, [r5, #44]	; 0x2c
 6804b98:	e3844001 	orr	r4, r4, #1, 0
 6804b9c:	e59f0064 	ldr	r0, [pc, #100]	; 6804c08 <emmc_setup_clock+0x84>
 6804ba0:	ebfffdc5 	bl	68042bc <get_clock_divider>
 6804ba4:	e1844000 	orr	r4, r4, r0
 6804ba8:	e3c4480f 	bic	r4, r4, #983040	; 0xf0000
 6804bac:	e384480b 	orr	r4, r4, #720896	; 0xb0000
 6804bb0:	e585402c 	str	r4, [r5, #44]	; 0x2c
 6804bb4:	e3a03e7d 	mov	r3, #2000	; 0x7d0
 6804bb8:	e3a02001 	mov	r2, #1, 0
 6804bbc:	e3a01002 	mov	r1, #2, 0
 6804bc0:	e59f0044 	ldr	r0, [pc, #68]	; 6804c0c <emmc_setup_clock+0x88>
 6804bc4:	ebfffe14 	bl	680441c <wait_reg_mask>
 6804bc8:	e2504000 	subs	r4, r0, #0, 0
 6804bcc:	0a000009 	beq	6804bf8 <emmc_setup_clock+0x74>
 6804bd0:	e3a0001e 	mov	r0, #30, 0
 6804bd4:	eb0008a0 	bl	6806e5c <delay_ms>
 6804bd8:	e59f2024 	ldr	r2, [pc, #36]	; 6804c04 <emmc_setup_clock+0x80>
 6804bdc:	e592302c 	ldr	r3, [r2, #44]	; 0x2c
 6804be0:	e3833004 	orr	r3, r3, #4, 0
 6804be4:	e582302c 	str	r3, [r2, #44]	; 0x2c
 6804be8:	e3a0001e 	mov	r0, #30, 0
 6804bec:	eb00089a 	bl	6806e5c <delay_ms>
 6804bf0:	e1a00004 	mov	r0, r4
 6804bf4:	e8bd8070 	pop	{r4, r5, r6, pc}
 6804bf8:	e59f0010 	ldr	r0, [pc, #16]	; 6804c10 <emmc_setup_clock+0x8c>
 6804bfc:	eb0006a4 	bl	6806694 <printk>
 6804c00:	eafffffa 	b	6804bf0 <emmc_setup_clock+0x6c>
 6804c04:	20300000 	.word	0x20300000
 6804c08:	0ee6b280 	.word	0x0ee6b280
 6804c0c:	2030002c 	.word	0x2030002c
 6804c10:	0680907c 	.word	0x0680907c

06804c14 <emmc_app_command>:
 6804c14:	e92d4070 	push	{r4, r5, r6, lr}
 6804c18:	e59f307c 	ldr	r3, [pc, #124]	; 6804c9c <emmc_app_command+0x88>
 6804c1c:	e0833100 	add	r3, r3, r0, lsl #2
 6804c20:	e5d33003 	ldrb	r3, [r3, #3]
 6804c24:	e203303f 	and	r3, r3, #63, 0	; 0x3f
 6804c28:	e353003b 	cmp	r3, #59, 0	; 0x3b
 6804c2c:	8a000016 	bhi	6804c8c <emmc_app_command+0x78>
 6804c30:	e1a04000 	mov	r4, r0
 6804c34:	e1a05001 	mov	r5, r1
 6804c38:	e59f3060 	ldr	r3, [pc, #96]	; 6804ca0 <emmc_app_command+0x8c>
 6804c3c:	e59f2058 	ldr	r2, [pc, #88]	; 6804c9c <emmc_app_command+0x88>
 6804c40:	e59220dc 	ldr	r2, [r2, #220]	; 0xdc
 6804c44:	e5832008 	str	r2, [r3, #8]
 6804c48:	e5931028 	ldr	r1, [r3, #40]	; 0x28
 6804c4c:	e3510000 	cmp	r1, #0, 0
 6804c50:	11a01801 	lslne	r1, r1, #16
 6804c54:	e3a02e7d 	mov	r2, #2000	; 0x7d0
 6804c58:	e59f3040 	ldr	r3, [pc, #64]	; 6804ca0 <emmc_app_command+0x8c>
 6804c5c:	e5930008 	ldr	r0, [r3, #8]
 6804c60:	ebfffe40 	bl	6804568 <emmc_issue_command>
 6804c64:	e3500000 	cmp	r0, #0, 0
 6804c68:	08bd8070 	popeq	{r4, r5, r6, pc}
 6804c6c:	e59f3028 	ldr	r3, [pc, #40]	; 6804c9c <emmc_app_command+0x88>
 6804c70:	e7930104 	ldr	r0, [r3, r4, lsl #2]
 6804c74:	e59f3024 	ldr	r3, [pc, #36]	; 6804ca0 <emmc_app_command+0x8c>
 6804c78:	e5830008 	str	r0, [r3, #8]
 6804c7c:	e3a02e7d 	mov	r2, #2000	; 0x7d0
 6804c80:	e1a01005 	mov	r1, r5
 6804c84:	ebfffe37 	bl	6804568 <emmc_issue_command>
 6804c88:	e8bd8070 	pop	{r4, r5, r6, pc}
 6804c8c:	e59f0010 	ldr	r0, [pc, #16]	; 6804ca4 <emmc_app_command+0x90>
 6804c90:	eb00067f 	bl	6806694 <printk>
 6804c94:	e3a00000 	mov	r0, #0, 0
 6804c98:	e8bd8070 	pop	{r4, r5, r6, pc}
 6804c9c:	0680921c 	.word	0x0680921c
 6804ca0:	0680a688 	.word	0x0680a688
 6804ca4:	0680909c 	.word	0x0680909c

06804ca8 <check_ocr>:
 6804ca8:	e92d4010 	push	{r4, lr}
 6804cac:	e3a02e7d 	mov	r2, #2000	; 0x7d0
 6804cb0:	e3a01000 	mov	r1, #0, 0
 6804cb4:	e3a00029 	mov	r0, #41, 0	; 0x29
 6804cb8:	ebffffd5 	bl	6804c14 <emmc_app_command>
 6804cbc:	e2504000 	subs	r4, r0, #0, 0
 6804cc0:	0a000005 	beq	6804cdc <check_ocr+0x34>
 6804cc4:	e59f2020 	ldr	r2, [pc, #32]	; 6804cec <check_ocr+0x44>
 6804cc8:	e5923014 	ldr	r3, [r2, #20]
 6804ccc:	e1a03423 	lsr	r3, r3, #8
 6804cd0:	e1c232b6 	strh	r3, [r2, #38]	; 0x26
 6804cd4:	e1a00004 	mov	r0, r4
 6804cd8:	e8bd8010 	pop	{r4, pc}
 6804cdc:	e3a01001 	mov	r1, #1, 0
 6804ce0:	e59f0008 	ldr	r0, [pc, #8]	; 6804cf0 <check_ocr+0x48>
 6804ce4:	eb00066a 	bl	6806694 <printk>
 6804ce8:	eafffff9 	b	6804cd4 <check_ocr+0x2c>
 6804cec:	0680a688 	.word	0x0680a688
 6804cf0:	068090bc 	.word	0x068090bc

06804cf4 <check_sdhc_support>:
 6804cf4:	e92d4070 	push	{r4, r5, r6, lr}
 6804cf8:	e1a05000 	mov	r5, r0
 6804cfc:	ea00000d 	b	6804d38 <check_sdhc_support+0x44>
 6804d00:	e3a01101 	mov	r1, #1073741824	; 0x40000000
 6804d04:	e3a02e7d 	mov	r2, #2000	; 0x7d0
 6804d08:	e38118ff 	orr	r1, r1, #16711680	; 0xff0000
 6804d0c:	e3811902 	orr	r1, r1, #32768	; 0x8000
 6804d10:	e3a00029 	mov	r0, #41, 0	; 0x29
 6804d14:	ebffffbe 	bl	6804c14 <emmc_app_command>
 6804d18:	e2504000 	subs	r4, r0, #0, 0
 6804d1c:	0a000009 	beq	6804d48 <check_sdhc_support+0x54>
 6804d20:	e59f304c 	ldr	r3, [pc, #76]	; 6804d74 <check_sdhc_support+0x80>
 6804d24:	e5933014 	ldr	r3, [r3, #20]
 6804d28:	e3530000 	cmp	r3, #0, 0
 6804d2c:	ba000009 	blt	6804d58 <check_sdhc_support+0x64>
 6804d30:	e3a00f7d 	mov	r0, #500	; 0x1f4
 6804d34:	eb000848 	bl	6806e5c <delay_ms>
 6804d38:	e3550000 	cmp	r5, #0, 0
 6804d3c:	1affffef 	bne	6804d00 <check_sdhc_support+0xc>
 6804d40:	e3a01000 	mov	r1, #0, 0
 6804d44:	eaffffee 	b	6804d04 <check_sdhc_support+0x10>
 6804d48:	e59f0028 	ldr	r0, [pc, #40]	; 6804d78 <check_sdhc_support+0x84>
 6804d4c:	eb000650 	bl	6806694 <printk>
 6804d50:	e1a00004 	mov	r0, r4
 6804d54:	e8bd8070 	pop	{r4, r5, r6, pc}
 6804d58:	e1a01423 	lsr	r1, r3, #8
 6804d5c:	e59f2010 	ldr	r2, [pc, #16]	; 6804d74 <check_sdhc_support+0x80>
 6804d60:	e1c212b6 	strh	r1, [r2, #38]	; 0x26
 6804d64:	e1a03f23 	lsr	r3, r3, #30
 6804d68:	e2033001 	and	r3, r3, #1, 0
 6804d6c:	e5c23024 	strb	r3, [r2, #36]	; 0x24
 6804d70:	eafffff6 	b	6804d50 <check_sdhc_support+0x5c>
 6804d74:	0680a688 	.word	0x0680a688
 6804d78:	068090e8 	.word	0x068090e8

06804d7c <set_scr>:
 6804d7c:	e92d4010 	push	{r4, lr}
 6804d80:	e59f313c 	ldr	r3, [pc, #316]	; 6804ec4 <set_scr+0x148>
 6804d84:	e5d33024 	ldrb	r3, [r3, #36]	; 0x24
 6804d88:	e3530000 	cmp	r3, #0, 0
 6804d8c:	1a000005 	bne	6804da8 <set_scr+0x2c>
 6804d90:	e3a02e7d 	mov	r2, #2000	; 0x7d0
 6804d94:	e3a01c02 	mov	r1, #512	; 0x200
 6804d98:	e3a00010 	mov	r0, #16, 0
 6804d9c:	ebfffe73 	bl	6804770 <emmc_command>
 6804da0:	e2504000 	subs	r4, r0, #0, 0
 6804da4:	0a00002a 	beq	6804e54 <set_scr+0xd8>
 6804da8:	e59f2118 	ldr	r2, [pc, #280]	; 6804ec8 <set_scr+0x14c>
 6804dac:	e5923004 	ldr	r3, [r2, #4]
 6804db0:	e3c33eff 	bic	r3, r3, #4080	; 0xff0
 6804db4:	e3c3300f 	bic	r3, r3, #15, 0
 6804db8:	e3833c02 	orr	r3, r3, #512	; 0x200
 6804dbc:	e5823004 	str	r3, [r2, #4]
 6804dc0:	e59f30fc 	ldr	r3, [pc, #252]	; 6804ec4 <set_scr+0x148>
 6804dc4:	e2832048 	add	r2, r3, #72, 0	; 0x48
 6804dc8:	e5832038 	str	r2, [r3, #56]	; 0x38
 6804dcc:	e3a02008 	mov	r2, #8, 0
 6804dd0:	e5832010 	str	r2, [r3, #16]
 6804dd4:	e3a02001 	mov	r2, #1, 0
 6804dd8:	e5832004 	str	r2, [r3, #4]
 6804ddc:	e59f20e8 	ldr	r2, [pc, #232]	; 6804ecc <set_scr+0x150>
 6804de0:	e3a01000 	mov	r1, #0, 0
 6804de4:	e3a00033 	mov	r0, #51, 0	; 0x33
 6804de8:	ebffff89 	bl	6804c14 <emmc_app_command>
 6804dec:	e2504000 	subs	r4, r0, #0, 0
 6804df0:	0a00001a 	beq	6804e60 <set_scr+0xe4>
 6804df4:	e59f10c8 	ldr	r1, [pc, #200]	; 6804ec4 <set_scr+0x148>
 6804df8:	e3a03c02 	mov	r3, #512	; 0x200
 6804dfc:	e5813010 	str	r3, [r1, #16]
 6804e00:	e5913048 	ldr	r3, [r1, #72]	; 0x48
 6804e04:	e1a02403 	lsl	r2, r3, #8
 6804e08:	e20228ff 	and	r2, r2, #16711680	; 0xff0000
 6804e0c:	e1822c03 	orr	r2, r2, r3, lsl #24
 6804e10:	e1a03423 	lsr	r3, r3, #8
 6804e14:	e2033cff 	and	r3, r3, #65280	; 0xff00
 6804e18:	e1823003 	orr	r3, r2, r3
 6804e1c:	e3e00000 	mvn	r0, #0, 0
 6804e20:	e5810054 	str	r0, [r1, #84]	; 0x54
 6804e24:	e1a02c22 	lsr	r2, r2, #24
 6804e28:	e1a017a3 	lsr	r1, r3, #15
 6804e2c:	e2011001 	and	r1, r1, #1, 0
 6804e30:	e1a03523 	lsr	r3, r3, #10
 6804e34:	e2033001 	and	r3, r3, #1, 0
 6804e38:	e212200f 	ands	r2, r2, #15, 0
 6804e3c:	1a00000a 	bne	6804e6c <set_scr+0xf0>
 6804e40:	e59f307c 	ldr	r3, [pc, #124]	; 6804ec4 <set_scr+0x148>
 6804e44:	e3a02001 	mov	r2, #1, 0
 6804e48:	e5832054 	str	r2, [r3, #84]	; 0x54
 6804e4c:	e1a00004 	mov	r0, r4
 6804e50:	e8bd8010 	pop	{r4, pc}
 6804e54:	e59f0074 	ldr	r0, [pc, #116]	; 6804ed0 <set_scr+0x154>
 6804e58:	eb00060d 	bl	6806694 <printk>
 6804e5c:	eafffffa 	b	6804e4c <set_scr+0xd0>
 6804e60:	e59f006c 	ldr	r0, [pc, #108]	; 6804ed4 <set_scr+0x158>
 6804e64:	eb00060a 	bl	6806694 <printk>
 6804e68:	eafffff7 	b	6804e4c <set_scr+0xd0>
 6804e6c:	e3520001 	cmp	r2, #1, 0
 6804e70:	0a000006 	beq	6804e90 <set_scr+0x114>
 6804e74:	e3520002 	cmp	r2, #2, 0
 6804e78:	1afffff3 	bne	6804e4c <set_scr+0xd0>
 6804e7c:	e3510000 	cmp	r1, #0, 0
 6804e80:	1a000006 	bne	6804ea0 <set_scr+0x124>
 6804e84:	e59f3038 	ldr	r3, [pc, #56]	; 6804ec4 <set_scr+0x148>
 6804e88:	e5832054 	str	r2, [r3, #84]	; 0x54
 6804e8c:	eaffffee 	b	6804e4c <set_scr+0xd0>
 6804e90:	e59f302c 	ldr	r3, [pc, #44]	; 6804ec4 <set_scr+0x148>
 6804e94:	e3a0200b 	mov	r2, #11, 0
 6804e98:	e5832054 	str	r2, [r3, #84]	; 0x54
 6804e9c:	eaffffea 	b	6804e4c <set_scr+0xd0>
 6804ea0:	e3530000 	cmp	r3, #0, 0
 6804ea4:	059f2018 	ldreq	r2, [pc, #24]	; 6804ec4 <set_scr+0x148>
 6804ea8:	03a01003 	moveq	r1, #3, 0
 6804eac:	05821054 	streq	r1, [r2, #84]	; 0x54
 6804eb0:	e3530000 	cmp	r3, #0, 0
 6804eb4:	159f3008 	ldrne	r3, [pc, #8]	; 6804ec4 <set_scr+0x148>
 6804eb8:	13a02004 	movne	r2, #4, 0
 6804ebc:	15832054 	strne	r2, [r3, #84]	; 0x54
 6804ec0:	eaffffe1 	b	6804e4c <set_scr+0xd0>
 6804ec4:	0680a688 	.word	0x0680a688
 6804ec8:	20300000 	.word	0x20300000
 6804ecc:	00007530 	.word	0x00007530
 6804ed0:	0680910c 	.word	0x0680910c
 6804ed4:	06809130 	.word	0x06809130

06804ed8 <emmc_card_reset>:
 6804ed8:	e92d4070 	push	{r4, r5, r6, lr}
 6804edc:	e59f30fc 	ldr	r3, [pc, #252]	; 6804fe0 <emmc_card_reset+0x108>
 6804ee0:	e3a02401 	mov	r2, #16777216	; 0x1000000
 6804ee4:	e583202c 	str	r2, [r3, #44]	; 0x2c
 6804ee8:	e3a03e7d 	mov	r3, #2000	; 0x7d0
 6804eec:	e3a02000 	mov	r2, #0, 0
 6804ef0:	e3a01407 	mov	r1, #117440512	; 0x7000000
 6804ef4:	e59f00e8 	ldr	r0, [pc, #232]	; 6804fe4 <emmc_card_reset+0x10c>
 6804ef8:	ebfffd47 	bl	680441c <wait_reg_mask>
 6804efc:	e2504000 	subs	r4, r0, #0, 0
 6804f00:	0a00002f 	beq	6804fc4 <emmc_card_reset+0xec>
 6804f04:	ebffff1e 	bl	6804b84 <emmc_setup_clock>
 6804f08:	e2504000 	subs	r4, r0, #0, 0
 6804f0c:	0a00002e 	beq	6804fcc <emmc_card_reset+0xf4>
 6804f10:	e59f30c8 	ldr	r3, [pc, #200]	; 6804fe0 <emmc_card_reset+0x108>
 6804f14:	e3a04000 	mov	r4, #0, 0
 6804f18:	e5834038 	str	r4, [r3, #56]	; 0x38
 6804f1c:	e3e02000 	mvn	r2, #0, 0
 6804f20:	e5832030 	str	r2, [r3, #48]	; 0x30
 6804f24:	e5832034 	str	r2, [r3, #52]	; 0x34
 6804f28:	e3a000cb 	mov	r0, #203, 0	; 0xcb
 6804f2c:	eb0007ca 	bl	6806e5c <delay_ms>
 6804f30:	e59f30b0 	ldr	r3, [pc, #176]	; 6804fe8 <emmc_card_reset+0x110>
 6804f34:	e5834004 	str	r4, [r3, #4]
 6804f38:	e583400c 	str	r4, [r3, #12]
 6804f3c:	e5c34000 	strb	r4, [r3]
 6804f40:	e5834010 	str	r4, [r3, #16]
 6804f44:	e3a02e7d 	mov	r2, #2000	; 0x7d0
 6804f48:	e1a01004 	mov	r1, r4
 6804f4c:	e1a00004 	mov	r0, r4
 6804f50:	ebfffe06 	bl	6804770 <emmc_command>
 6804f54:	e2504000 	subs	r4, r0, #0, 0
 6804f58:	0a00001d 	beq	6804fd4 <emmc_card_reset+0xfc>
 6804f5c:	ebfffe1e 	bl	68047dc <check_v2_card>
 6804f60:	e1a05000 	mov	r5, r0
 6804f64:	ebfffe4f 	bl	68048a8 <check_usable_card>
 6804f68:	e2504000 	subs	r4, r0, #0, 0
 6804f6c:	0a000016 	beq	6804fcc <emmc_card_reset+0xf4>
 6804f70:	ebffff4c 	bl	6804ca8 <check_ocr>
 6804f74:	e2504000 	subs	r4, r0, #0, 0
 6804f78:	0a000013 	beq	6804fcc <emmc_card_reset+0xf4>
 6804f7c:	e1a00005 	mov	r0, r5
 6804f80:	ebffff5b 	bl	6804cf4 <check_sdhc_support>
 6804f84:	e2504000 	subs	r4, r0, #0, 0
 6804f88:	0a00000f 	beq	6804fcc <emmc_card_reset+0xf4>
 6804f8c:	e3a0000a 	mov	r0, #10, 0
 6804f90:	eb0007b1 	bl	6806e5c <delay_ms>
 6804f94:	ebfffe64 	bl	680492c <check_rca>
 6804f98:	e2504000 	subs	r4, r0, #0, 0
 6804f9c:	0a00000a 	beq	6804fcc <emmc_card_reset+0xf4>
 6804fa0:	ebfffe84 	bl	68049b8 <select_card>
 6804fa4:	e2504000 	subs	r4, r0, #0, 0
 6804fa8:	0a000007 	beq	6804fcc <emmc_card_reset+0xf4>
 6804fac:	ebffff72 	bl	6804d7c <set_scr>
 6804fb0:	e2504000 	subs	r4, r0, #0, 0
 6804fb4:	159f3024 	ldrne	r3, [pc, #36]	; 6804fe0 <emmc_card_reset+0x108>
 6804fb8:	13e02000 	mvnne	r2, #0, 0
 6804fbc:	15832030 	strne	r2, [r3, #48]	; 0x30
 6804fc0:	ea000001 	b	6804fcc <emmc_card_reset+0xf4>
 6804fc4:	e59f0020 	ldr	r0, [pc, #32]	; 6804fec <emmc_card_reset+0x114>
 6804fc8:	eb0005b1 	bl	6806694 <printk>
 6804fcc:	e1a00004 	mov	r0, r4
 6804fd0:	e8bd8070 	pop	{r4, r5, r6, pc}
 6804fd4:	e59f0014 	ldr	r0, [pc, #20]	; 6804ff0 <emmc_card_reset+0x118>
 6804fd8:	eb0005ad 	bl	6806694 <printk>
 6804fdc:	eafffffa 	b	6804fcc <emmc_card_reset+0xf4>
 6804fe0:	20300000 	.word	0x20300000
 6804fe4:	2030002c 	.word	0x2030002c
 6804fe8:	0680a688 	.word	0x0680a688
 6804fec:	06809150 	.word	0x06809150
 6804ff0:	06809170 	.word	0x06809170

06804ff4 <emmc_read>:
 6804ff4:	e92d4030 	push	{r4, r5, lr}
 6804ff8:	e24dd00c 	sub	sp, sp, #12, 0
 6804ffc:	e1a03b82 	lsl	r3, r2, #23
 6805000:	e1a03ba3 	lsr	r3, r3, #23
 6805004:	e3530000 	cmp	r3, #0, 0
 6805008:	1a000009 	bne	6805034 <emmc_read+0x40>
 680500c:	e1a05000 	mov	r5, r0
 6805010:	e1a04002 	mov	r4, r2
 6805014:	e1a03000 	mov	r3, r0
 6805018:	e3a00000 	mov	r0, #0, 0
 680501c:	ebfffe81 	bl	6804a28 <do_data_command>
 6805020:	e3500000 	cmp	r0, #0, 0
 6805024:	0a00000a 	beq	6805054 <emmc_read+0x60>
 6805028:	e1a00004 	mov	r0, r4
 680502c:	e28dd00c 	add	sp, sp, #12, 0
 6805030:	e8bd8030 	pop	{r4, r5, pc}
 6805034:	e59f3030 	ldr	r3, [pc, #48]	; 680506c <emmc_read+0x78>
 6805038:	e58d3000 	str	r3, [sp]
 680503c:	e59f302c 	ldr	r3, [pc, #44]	; 6805070 <emmc_read+0x7c>
 6805040:	e59f202c 	ldr	r2, [pc, #44]	; 6805074 <emmc_read+0x80>
 6805044:	e59f102c 	ldr	r1, [pc, #44]	; 6805078 <emmc_read+0x84>
 6805048:	e59f002c 	ldr	r0, [pc, #44]	; 680507c <emmc_read+0x88>
 680504c:	eb000590 	bl	6806694 <printk>
 6805050:	eb0006e6 	bl	6806bf0 <clean_reboot>
 6805054:	e1a02004 	mov	r2, r4
 6805058:	e1a01005 	mov	r1, r5
 680505c:	e59f001c 	ldr	r0, [pc, #28]	; 6805080 <emmc_read+0x8c>
 6805060:	eb00058b 	bl	6806694 <printk>
 6805064:	e3e00000 	mvn	r0, #0, 0
 6805068:	eaffffef 	b	680502c <emmc_read+0x38>
 680506c:	06809190 	.word	0x06809190
 6805070:	000002dd 	.word	0x000002dd
 6805074:	06809310 	.word	0x06809310
 6805078:	06808fe4 	.word	0x06808fe4
 680507c:	0680745c 	.word	0x0680745c
 6805080:	068091a0 	.word	0x068091a0

06805084 <emmc_write>:
 6805084:	e92d4010 	push	{r4, lr}
 6805088:	e24dd008 	sub	sp, sp, #8, 0
 680508c:	e1a04002 	mov	r4, r2
 6805090:	e1a02b82 	lsl	r2, r2, #23
 6805094:	e1a02ba2 	lsr	r2, r2, #23
 6805098:	e3520000 	cmp	r2, #0, 0
 680509c:	1a000008 	bne	68050c4 <emmc_write+0x40>
 68050a0:	e1a03000 	mov	r3, r0
 68050a4:	e1a02004 	mov	r2, r4
 68050a8:	e3a00001 	mov	r0, #1, 0
 68050ac:	ebfffe5d 	bl	6804a28 <do_data_command>
 68050b0:	e3500000 	cmp	r0, #0, 0
 68050b4:	0a00000a 	beq	68050e4 <emmc_write+0x60>
 68050b8:	e1a00004 	mov	r0, r4
 68050bc:	e28dd008 	add	sp, sp, #8, 0
 68050c0:	e8bd8010 	pop	{r4, pc}
 68050c4:	e59f302c 	ldr	r3, [pc, #44]	; 68050f8 <emmc_write+0x74>
 68050c8:	e58d3000 	str	r3, [sp]
 68050cc:	e3a03e2f 	mov	r3, #752	; 0x2f0
 68050d0:	e59f2024 	ldr	r2, [pc, #36]	; 68050fc <emmc_write+0x78>
 68050d4:	e59f1024 	ldr	r1, [pc, #36]	; 6805100 <emmc_write+0x7c>
 68050d8:	e59f0024 	ldr	r0, [pc, #36]	; 6805104 <emmc_write+0x80>
 68050dc:	eb00056c 	bl	6806694 <printk>
 68050e0:	eb0006c2 	bl	6806bf0 <clean_reboot>
 68050e4:	e1a01000 	mov	r1, r0
 68050e8:	e59f0018 	ldr	r0, [pc, #24]	; 6805108 <emmc_write+0x84>
 68050ec:	eb000568 	bl	6806694 <printk>
 68050f0:	e3e00000 	mvn	r0, #0, 0
 68050f4:	eafffff0 	b	68050bc <emmc_write+0x38>
 68050f8:	06809190 	.word	0x06809190
 68050fc:	0680931c 	.word	0x0680931c
 6805100:	06808fe4 	.word	0x06808fe4
 6805104:	0680745c 	.word	0x0680745c
 6805108:	068091cc 	.word	0x068091cc

0680510c <emmc_init>:
 680510c:	e92d4070 	push	{r4, r5, r6, lr}
 6805110:	e3a01000 	mov	r1, #0, 0
 6805114:	e3a00022 	mov	r0, #34, 0	; 0x22
 6805118:	eb000417 	bl	680617c <gpio_set_function>
 680511c:	e3a01000 	mov	r1, #0, 0
 6805120:	e3a00023 	mov	r0, #35, 0	; 0x23
 6805124:	eb000414 	bl	680617c <gpio_set_function>
 6805128:	e3a01000 	mov	r1, #0, 0
 680512c:	e3a00024 	mov	r0, #36, 0	; 0x24
 6805130:	eb000411 	bl	680617c <gpio_set_function>
 6805134:	e3a01000 	mov	r1, #0, 0
 6805138:	e3a00025 	mov	r0, #37, 0	; 0x25
 680513c:	eb00040e 	bl	680617c <gpio_set_function>
 6805140:	e3a01000 	mov	r1, #0, 0
 6805144:	e3a00026 	mov	r0, #38, 0	; 0x26
 6805148:	eb00040b 	bl	680617c <gpio_set_function>
 680514c:	e3a01000 	mov	r1, #0, 0
 6805150:	e3a00027 	mov	r0, #39, 0	; 0x27
 6805154:	eb000408 	bl	680617c <gpio_set_function>
 6805158:	e3a01007 	mov	r1, #7, 0
 680515c:	e3a00030 	mov	r0, #48, 0	; 0x30
 6805160:	eb000405 	bl	680617c <gpio_set_function>
 6805164:	e3a01007 	mov	r1, #7, 0
 6805168:	e3a00031 	mov	r0, #49, 0	; 0x31
 680516c:	eb000402 	bl	680617c <gpio_set_function>
 6805170:	e3a01007 	mov	r1, #7, 0
 6805174:	e3a00032 	mov	r0, #50, 0	; 0x32
 6805178:	eb0003ff 	bl	680617c <gpio_set_function>
 680517c:	e3a01007 	mov	r1, #7, 0
 6805180:	e3a00033 	mov	r0, #51, 0	; 0x33
 6805184:	eb0003fc 	bl	680617c <gpio_set_function>
 6805188:	e3a01007 	mov	r1, #7, 0
 680518c:	e3a00034 	mov	r0, #52, 0	; 0x34
 6805190:	eb0003f9 	bl	680617c <gpio_set_function>
 6805194:	e59f305c 	ldr	r3, [pc, #92]	; 68051f8 <emmc_init+0xec>
 6805198:	e3a00000 	mov	r0, #0, 0
 680519c:	e5830004 	str	r0, [r3, #4]
 68051a0:	e583000c 	str	r0, [r3, #12]
 68051a4:	e5c30000 	strb	r0, [r3]
 68051a8:	e5830010 	str	r0, [r3, #16]
 68051ac:	e5c30024 	strb	r0, [r3, #36]	; 0x24
 68051b0:	e1c302b6 	strh	r0, [r3, #38]	; 0x26
 68051b4:	e5830028 	str	r0, [r3, #40]	; 0x28
 68051b8:	e583003c 	str	r0, [r3, #60]	; 0x3c
 68051bc:	e1a05000 	mov	r5, r0
 68051c0:	e1a04000 	mov	r4, r0
 68051c4:	e3550009 	cmp	r5, #9, 0
 68051c8:	ca000008 	bgt	68051f0 <emmc_init+0xe4>
 68051cc:	ebffff41 	bl	6804ed8 <emmc_card_reset>
 68051d0:	e2504000 	subs	r4, r0, #0, 0
 68051d4:	1a000005 	bne	68051f0 <emmc_init+0xe4>
 68051d8:	e3a00064 	mov	r0, #100, 0	; 0x64
 68051dc:	eb00071e 	bl	6806e5c <delay_ms>
 68051e0:	e59f0014 	ldr	r0, [pc, #20]	; 68051fc <emmc_init+0xf0>
 68051e4:	eb00052a 	bl	6806694 <printk>
 68051e8:	e2855001 	add	r5, r5, #1, 0
 68051ec:	eafffff4 	b	68051c4 <emmc_init+0xb8>
 68051f0:	e1a00004 	mov	r0, r4
 68051f4:	e8bd8070 	pop	{r4, r5, r6, pc}
 68051f8:	0680a688 	.word	0x0680a688
 68051fc:	068091e8 	.word	0x068091e8

06805200 <new_cs>:
 6805200:	e3a00000 	mov	r0, #0, 0
 6805204:	e12fff1e 	bx	lr

06805208 <read_cs>:
 6805208:	e92d4010 	push	{r4, lr}
 680520c:	ebffeb82 	bl	680001c <GET32>
 6805210:	e8bd8010 	pop	{r4, pc}

06805214 <start_transfer>:
 6805214:	e24dd010 	sub	sp, sp, #16, 0
 6805218:	e92d4010 	push	{r4, lr}
 680521c:	e24dd008 	sub	sp, sp, #8, 0
 6805220:	e28dc00c 	add	ip, sp, #12, 0
 6805224:	e98c000f 	stmib	ip, {r0, r1, r2, r3}
 6805228:	eb0006e1 	bl	6806db4 <dev_barrier>
 680522c:	e59f306c 	ldr	r3, [pc, #108]	; 68052a0 <start_transfer+0x8c>
 6805230:	e5933000 	ldr	r3, [r3]
 6805234:	e3530000 	cmp	r3, #0, 0
 6805238:	1a000010 	bne	6805280 <start_transfer+0x6c>
 680523c:	e59f4060 	ldr	r4, [pc, #96]	; 68052a4 <start_transfer+0x90>
 6805240:	e1a00004 	mov	r0, r4
 6805244:	ebffffef 	bl	6805208 <read_cs>
 6805248:	e38000b0 	orr	r0, r0, #176, 0	; 0xb0
 680524c:	e59d1010 	ldr	r1, [sp, #16]
 6805250:	e2011003 	and	r1, r1, #3, 0
 6805254:	e3c00003 	bic	r0, r0, #3, 0
 6805258:	e1811000 	orr	r1, r1, r0
 680525c:	e1a00004 	mov	r0, r4
 6805260:	ebffeb6b 	bl	6800014 <PUT32>
 6805264:	eb0006d2 	bl	6806db4 <dev_barrier>
 6805268:	e3a00003 	mov	r0, #3, 0
 680526c:	eb0006ca 	bl	6806d9c <delay_cycles>
 6805270:	e28dd008 	add	sp, sp, #8, 0
 6805274:	e8bd4010 	pop	{r4, lr}
 6805278:	e28dd010 	add	sp, sp, #16, 0
 680527c:	e12fff1e 	bx	lr
 6805280:	e59d3010 	ldr	r3, [sp, #16]
 6805284:	e58d3000 	str	r3, [sp]
 6805288:	e3a030f5 	mov	r3, #245, 0	; 0xf5
 680528c:	e59f2014 	ldr	r2, [pc, #20]	; 68052a8 <start_transfer+0x94>
 6805290:	e59f1014 	ldr	r1, [pc, #20]	; 68052ac <start_transfer+0x98>
 6805294:	e59f0014 	ldr	r0, [pc, #20]	; 68052b0 <start_transfer+0x9c>
 6805298:	eb0004fd 	bl	6806694 <printk>
 680529c:	eaffffe6 	b	680523c <start_transfer+0x28>
 68052a0:	0680a6e0 	.word	0x0680a6e0
 68052a4:	20204000 	.word	0x20204000
 68052a8:	068094ec 	.word	0x068094ec
 68052ac:	06809328 	.word	0x06809328
 68052b0:	06809338 	.word	0x06809338

068052b4 <end_transfer>:
 68052b4:	e24dd010 	sub	sp, sp, #16, 0
 68052b8:	e52de004 	push	{lr}		; (str lr, [sp, #-4]!)
 68052bc:	e24dd00c 	sub	sp, sp, #12, 0
 68052c0:	e28dc00c 	add	ip, sp, #12, 0
 68052c4:	e98c000f 	stmib	ip, {r0, r1, r2, r3}
 68052c8:	e59f30c4 	ldr	r3, [pc, #196]	; 6805394 <end_transfer+0xe0>
 68052cc:	e5933000 	ldr	r3, [r3]
 68052d0:	e3530000 	cmp	r3, #0, 0
 68052d4:	1a000017 	bne	6805338 <end_transfer+0x84>
 68052d8:	e59f30b8 	ldr	r3, [pc, #184]	; 6805398 <end_transfer+0xe4>
 68052dc:	e5933000 	ldr	r3, [r3]
 68052e0:	e3130801 	tst	r3, #65536	; 0x10000
 68052e4:	0afffffb 	beq	68052d8 <end_transfer+0x24>
 68052e8:	e59f30a4 	ldr	r3, [pc, #164]	; 6805394 <end_transfer+0xe0>
 68052ec:	e5933000 	ldr	r3, [r3]
 68052f0:	e3530000 	cmp	r3, #0, 0
 68052f4:	1a000016 	bne	6805354 <end_transfer+0xa0>
 68052f8:	e59f0098 	ldr	r0, [pc, #152]	; 6805398 <end_transfer+0xe4>
 68052fc:	ebffffc1 	bl	6805208 <read_cs>
 6805300:	e3c01080 	bic	r1, r0, #128, 0	; 0x80
 6805304:	e2000003 	and	r0, r0, #3, 0
 6805308:	e59d3010 	ldr	r3, [sp, #16]
 680530c:	e1500003 	cmp	r0, r3
 6805310:	1a000017 	bne	6805374 <end_transfer+0xc0>
 6805314:	e59f007c 	ldr	r0, [pc, #124]	; 6805398 <end_transfer+0xe4>
 6805318:	ebffeb3d 	bl	6800014 <PUT32>
 680531c:	eb0006a4 	bl	6806db4 <dev_barrier>
 6805320:	e3a00003 	mov	r0, #3, 0
 6805324:	eb00069c 	bl	6806d9c <delay_cycles>
 6805328:	e28dd00c 	add	sp, sp, #12, 0
 680532c:	e49de004 	pop	{lr}		; (ldr lr, [sp], #4)
 6805330:	e28dd010 	add	sp, sp, #16, 0
 6805334:	e12fff1e 	bx	lr
 6805338:	e58d0000 	str	r0, [sp]
 680533c:	e59f3058 	ldr	r3, [pc, #88]	; 680539c <end_transfer+0xe8>
 6805340:	e59f2058 	ldr	r2, [pc, #88]	; 68053a0 <end_transfer+0xec>
 6805344:	e59f1058 	ldr	r1, [pc, #88]	; 68053a4 <end_transfer+0xf0>
 6805348:	e59f0058 	ldr	r0, [pc, #88]	; 68053a8 <end_transfer+0xf4>
 680534c:	eb0004d0 	bl	6806694 <printk>
 6805350:	eaffffe0 	b	68052d8 <end_transfer+0x24>
 6805354:	e59d3010 	ldr	r3, [sp, #16]
 6805358:	e58d3000 	str	r3, [sp]
 680535c:	e3a03f47 	mov	r3, #284	; 0x11c
 6805360:	e59f2038 	ldr	r2, [pc, #56]	; 68053a0 <end_transfer+0xec>
 6805364:	e59f1038 	ldr	r1, [pc, #56]	; 68053a4 <end_transfer+0xf0>
 6805368:	e59f003c 	ldr	r0, [pc, #60]	; 68053ac <end_transfer+0xf8>
 680536c:	eb0004c8 	bl	6806694 <printk>
 6805370:	eaffffe0 	b	68052f8 <end_transfer+0x44>
 6805374:	e58d3004 	str	r3, [sp, #4]
 6805378:	e58d0000 	str	r0, [sp]
 680537c:	e59f302c 	ldr	r3, [pc, #44]	; 68053b0 <end_transfer+0xfc>
 6805380:	e59f2018 	ldr	r2, [pc, #24]	; 68053a0 <end_transfer+0xec>
 6805384:	e59f1018 	ldr	r1, [pc, #24]	; 68053a4 <end_transfer+0xf0>
 6805388:	e59f0024 	ldr	r0, [pc, #36]	; 68053b4 <end_transfer+0x100>
 680538c:	eb0004c0 	bl	6806694 <printk>
 6805390:	eb000616 	bl	6806bf0 <clean_reboot>
 6805394:	0680a6e0 	.word	0x0680a6e0
 6805398:	20204000 	.word	0x20204000
 680539c:	00000119 	.word	0x00000119
 68053a0:	068094fc 	.word	0x068094fc
 68053a4:	06809328 	.word	0x06809328
 68053a8:	0680935c 	.word	0x0680935c
 68053ac:	0680938c 	.word	0x0680938c
 68053b0:	00000122 	.word	0x00000122
 68053b4:	068093ac 	.word	0x068093ac

068053b8 <move_data>:
 68053b8:	e92d41f0 	push	{r4, r5, r6, r7, r8, lr}
 68053bc:	e24dd010 	sub	sp, sp, #16, 0
 68053c0:	e1a08000 	mov	r8, r0
 68053c4:	e1a06001 	mov	r6, r1
 68053c8:	e1a05002 	mov	r5, r2
 68053cc:	e3520010 	cmp	r2, #16, 0
 68053d0:	31a07002 	movcc	r7, r2
 68053d4:	23a07010 	movcs	r7, #16, 0
 68053d8:	e3a04000 	mov	r4, #0, 0
 68053dc:	ea000003 	b	68053f0 <move_data+0x38>
 68053e0:	e7d61004 	ldrb	r1, [r6, r4]
 68053e4:	e59f00c4 	ldr	r0, [pc, #196]	; 68054b0 <move_data+0xf8>
 68053e8:	ebffeb09 	bl	6800014 <PUT32>
 68053ec:	e2844001 	add	r4, r4, #1, 0
 68053f0:	e1540007 	cmp	r4, r7
 68053f4:	3afffff9 	bcc	68053e0 <move_data+0x28>
 68053f8:	e3a07000 	mov	r7, #0, 0
 68053fc:	ea00000d 	b	6805438 <move_data+0x80>
 6805400:	e7d61004 	ldrb	r1, [r6, r4]
 6805404:	e59f00a4 	ldr	r0, [pc, #164]	; 68054b0 <move_data+0xf8>
 6805408:	ebffeb01 	bl	6800014 <PUT32>
 680540c:	e2844001 	add	r4, r4, #1, 0
 6805410:	e1540005 	cmp	r4, r5
 6805414:	2a000003 	bcs	6805428 <move_data+0x70>
 6805418:	e59f3094 	ldr	r3, [pc, #148]	; 68054b4 <move_data+0xfc>
 680541c:	e5933000 	ldr	r3, [r3]
 6805420:	e3130701 	tst	r3, #262144	; 0x40000
 6805424:	1afffff5 	bne	6805400 <move_data+0x48>
 6805428:	e59f3084 	ldr	r3, [pc, #132]	; 68054b4 <move_data+0xfc>
 680542c:	e5933000 	ldr	r3, [r3]
 6805430:	e3130802 	tst	r3, #131072	; 0x20000
 6805434:	1a000007 	bne	6805458 <move_data+0xa0>
 6805438:	e1570005 	cmp	r7, r5
 680543c:	3afffff3 	bcc	6805410 <move_data+0x58>
 6805440:	e1540005 	cmp	r4, r5
 6805444:	1a000008 	bne	680546c <move_data+0xb4>
 6805448:	e1570005 	cmp	r7, r5
 680544c:	1a00000f 	bne	6805490 <move_data+0xd8>
 6805450:	e28dd010 	add	sp, sp, #16, 0
 6805454:	e8bd81f0 	pop	{r4, r5, r6, r7, r8, pc}
 6805458:	e59f0050 	ldr	r0, [pc, #80]	; 68054b0 <move_data+0xf8>
 680545c:	ebffeaee 	bl	680001c <GET32>
 6805460:	e7c80007 	strb	r0, [r8, r7]
 6805464:	e2877001 	add	r7, r7, #1, 0
 6805468:	eafffff2 	b	6805438 <move_data+0x80>
 680546c:	e58d5008 	str	r5, [sp, #8]
 6805470:	e58d7004 	str	r7, [sp, #4]
 6805474:	e58d4000 	str	r4, [sp]
 6805478:	e59f3038 	ldr	r3, [pc, #56]	; 68054b8 <move_data+0x100>
 680547c:	e59f2038 	ldr	r2, [pc, #56]	; 68054bc <move_data+0x104>
 6805480:	e59f1038 	ldr	r1, [pc, #56]	; 68054c0 <move_data+0x108>
 6805484:	e59f0038 	ldr	r0, [pc, #56]	; 68054c4 <move_data+0x10c>
 6805488:	eb000481 	bl	6806694 <printk>
 680548c:	eb0005d7 	bl	6806bf0 <clean_reboot>
 6805490:	e59f3030 	ldr	r3, [pc, #48]	; 68054c8 <move_data+0x110>
 6805494:	e58d3000 	str	r3, [sp]
 6805498:	e3a03e1a 	mov	r3, #416	; 0x1a0
 680549c:	e59f2018 	ldr	r2, [pc, #24]	; 68054bc <move_data+0x104>
 68054a0:	e59f1018 	ldr	r1, [pc, #24]	; 68054c0 <move_data+0x108>
 68054a4:	e59f0020 	ldr	r0, [pc, #32]	; 68054cc <move_data+0x114>
 68054a8:	eb000479 	bl	6806694 <printk>
 68054ac:	eb0005cf 	bl	6806bf0 <clean_reboot>
 68054b0:	20204004 	.word	0x20204004
 68054b4:	20204000 	.word	0x20204000
 68054b8:	0000019e 	.word	0x0000019e
 68054bc:	0680950c 	.word	0x0680950c
 68054c0:	06809328 	.word	0x06809328
 68054c4:	068093e4 	.word	0x068093e4
 68054c8:	06809414 	.word	0x06809414
 68054cc:	0680745c 	.word	0x0680745c

068054d0 <spi_set_verbose>:
 68054d0:	e59f3004 	ldr	r3, [pc, #4]	; 68054dc <spi_set_verbose+0xc>
 68054d4:	e5830000 	str	r0, [r3]
 68054d8:	e12fff1e 	bx	lr
 68054dc:	0680a6e0 	.word	0x0680a6e0

068054e0 <spi_n_transfer>:
 68054e0:	e24dd010 	sub	sp, sp, #16, 0
 68054e4:	e92d4070 	push	{r4, r5, r6, lr}
 68054e8:	e24dd010 	sub	sp, sp, #16, 0
 68054ec:	e28dc01c 	add	ip, sp, #28, 0
 68054f0:	e98c000f 	stmib	ip, {r0, r1, r2, r3}
 68054f4:	e59d6040 	ldr	r6, [sp, #64]	; 0x40
 68054f8:	e3560000 	cmp	r6, #0, 0
 68054fc:	0a000013 	beq	6805550 <spi_n_transfer+0x70>
 6805500:	e58d6008 	str	r6, [sp, #8]
 6805504:	e28d5030 	add	r5, sp, #48, 0	; 0x30
 6805508:	e8950003 	ldm	r5, {r0, r1}
 680550c:	e88d0003 	stm	sp, {r0, r1}
 6805510:	e28d4020 	add	r4, sp, #32, 0
 6805514:	e894000f 	ldm	r4, {r0, r1, r2, r3}
 6805518:	ebffff3d 	bl	6805214 <start_transfer>
 680551c:	e1a02006 	mov	r2, r6
 6805520:	e59d103c 	ldr	r1, [sp, #60]	; 0x3c
 6805524:	e59d0038 	ldr	r0, [sp, #56]	; 0x38
 6805528:	ebffffa2 	bl	68053b8 <move_data>
 680552c:	e8950003 	ldm	r5, {r0, r1}
 6805530:	e88d0003 	stm	sp, {r0, r1}
 6805534:	e894000f 	ldm	r4, {r0, r1, r2, r3}
 6805538:	ebffff5d 	bl	68052b4 <end_transfer>
 680553c:	e3a00001 	mov	r0, #1, 0
 6805540:	e28dd010 	add	sp, sp, #16, 0
 6805544:	e8bd4070 	pop	{r4, r5, r6, lr}
 6805548:	e28dd010 	add	sp, sp, #16, 0
 680554c:	e12fff1e 	bx	lr
 6805550:	e59f3018 	ldr	r3, [pc, #24]	; 6805570 <spi_n_transfer+0x90>
 6805554:	e58d3000 	str	r3, [sp]
 6805558:	e59f3014 	ldr	r3, [pc, #20]	; 6805574 <spi_n_transfer+0x94>
 680555c:	e59f2014 	ldr	r2, [pc, #20]	; 6805578 <spi_n_transfer+0x98>
 6805560:	e59f1014 	ldr	r1, [pc, #20]	; 680557c <spi_n_transfer+0x9c>
 6805564:	e59f0014 	ldr	r0, [pc, #20]	; 6805580 <spi_n_transfer+0xa0>
 6805568:	eb000449 	bl	6806694 <printk>
 680556c:	eb00059f 	bl	6806bf0 <clean_reboot>
 6805570:	0680941c 	.word	0x0680941c
 6805574:	000001c3 	.word	0x000001c3
 6805578:	06809518 	.word	0x06809518
 680557c:	06809328 	.word	0x06809328
 6805580:	0680745c 	.word	0x0680745c

06805584 <spi_n_init>:
 6805584:	e92d40f0 	push	{r4, r5, r6, r7, lr}
 6805588:	e24dd014 	sub	sp, sp, #20, 0
 680558c:	e1a04000 	mov	r4, r0
 6805590:	e1a05001 	mov	r5, r1
 6805594:	e1a06002 	mov	r6, r2
 6805598:	e59f3168 	ldr	r3, [pc, #360]	; 6805708 <spi_n_init+0x184>
 680559c:	e5933004 	ldr	r3, [r3, #4]
 68055a0:	e3530000 	cmp	r3, #0, 0
 68055a4:	1a00002b 	bne	6805658 <spi_n_init+0xd4>
 68055a8:	e59f3158 	ldr	r3, [pc, #344]	; 6805708 <spi_n_init+0x184>
 68055ac:	e5832004 	str	r2, [r3, #4]
 68055b0:	eb0005ff 	bl	6806db4 <dev_barrier>
 68055b4:	e3550000 	cmp	r5, #0, 0
 68055b8:	0a000030 	beq	6805680 <spi_n_init+0xfc>
 68055bc:	e3550001 	cmp	r5, #1, 0
 68055c0:	1a000032 	bne	6805690 <spi_n_init+0x10c>
 68055c4:	e3a01004 	mov	r1, #4, 0
 68055c8:	e3a00007 	mov	r0, #7, 0
 68055cc:	eb0002ea 	bl	680617c <gpio_set_function>
 68055d0:	e59f3130 	ldr	r3, [pc, #304]	; 6805708 <spi_n_init+0x184>
 68055d4:	e5933008 	ldr	r3, [r3, #8]
 68055d8:	e3530000 	cmp	r3, #0, 0
 68055dc:	0a000032 	beq	68056ac <spi_n_init+0x128>
 68055e0:	eb0005f3 	bl	6806db4 <dev_barrier>
 68055e4:	ebffff05 	bl	6805200 <new_cs>
 68055e8:	e2051003 	and	r1, r5, #3, 0
 68055ec:	e3c00003 	bic	r0, r0, #3, 0
 68055f0:	e1811000 	orr	r1, r1, r0
 68055f4:	e59f7110 	ldr	r7, [pc, #272]	; 680570c <spi_n_init+0x188>
 68055f8:	e3811030 	orr	r1, r1, #48, 0	; 0x30
 68055fc:	e1a00007 	mov	r0, r7
 6805600:	ebffea83 	bl	6800014 <PUT32>
 6805604:	eb0005ea 	bl	6806db4 <dev_barrier>
 6805608:	e1a00007 	mov	r0, r7
 680560c:	ebfffefd 	bl	6805208 <read_cs>
 6805610:	e2000003 	and	r0, r0, #3, 0
 6805614:	e1500005 	cmp	r0, r5
 6805618:	1a000030 	bne	68056e0 <spi_n_init+0x15c>
 680561c:	e1a01006 	mov	r1, r6
 6805620:	e59f00e8 	ldr	r0, [pc, #232]	; 6805710 <spi_n_init+0x18c>
 6805624:	ebffea7a 	bl	6800014 <PUT32>
 6805628:	eb0005e1 	bl	6806db4 <dev_barrier>
 680562c:	e3a03000 	mov	r3, #0, 0
 6805630:	e5843000 	str	r3, [r4]
 6805634:	e5843004 	str	r3, [r4, #4]
 6805638:	e5843008 	str	r3, [r4, #8]
 680563c:	e584300c 	str	r3, [r4, #12]
 6805640:	e5843010 	str	r3, [r4, #16]
 6805644:	e5843014 	str	r3, [r4, #20]
 6805648:	e5845000 	str	r5, [r4]
 680564c:	e1a00004 	mov	r0, r4
 6805650:	e28dd014 	add	sp, sp, #20, 0
 6805654:	e8bd80f0 	pop	{r4, r5, r6, r7, pc}
 6805658:	e1530002 	cmp	r3, r2
 680565c:	0affffd3 	beq	68055b0 <spi_n_init+0x2c>
 6805660:	e58d2004 	str	r2, [sp, #4]
 6805664:	e58d3000 	str	r3, [sp]
 6805668:	e59f30a4 	ldr	r3, [pc, #164]	; 6805714 <spi_n_init+0x190>
 680566c:	e59f20a4 	ldr	r2, [pc, #164]	; 6805718 <spi_n_init+0x194>
 6805670:	e59f10a4 	ldr	r1, [pc, #164]	; 680571c <spi_n_init+0x198>
 6805674:	e59f00a4 	ldr	r0, [pc, #164]	; 6805720 <spi_n_init+0x19c>
 6805678:	eb000405 	bl	6806694 <printk>
 680567c:	eb00055b 	bl	6806bf0 <clean_reboot>
 6805680:	e3a01004 	mov	r1, #4, 0
 6805684:	e3a00008 	mov	r0, #8, 0
 6805688:	eb0002bb 	bl	680617c <gpio_set_function>
 680568c:	eaffffcf 	b	68055d0 <spi_n_init+0x4c>
 6805690:	e58d5000 	str	r5, [sp]
 6805694:	e59f3088 	ldr	r3, [pc, #136]	; 6805724 <spi_n_init+0x1a0>
 6805698:	e59f2078 	ldr	r2, [pc, #120]	; 6805718 <spi_n_init+0x194>
 680569c:	e59f1078 	ldr	r1, [pc, #120]	; 680571c <spi_n_init+0x198>
 68056a0:	e59f0080 	ldr	r0, [pc, #128]	; 6805728 <spi_n_init+0x1a4>
 68056a4:	eb0003fa 	bl	6806694 <printk>
 68056a8:	eb000550 	bl	6806bf0 <clean_reboot>
 68056ac:	e59f3054 	ldr	r3, [pc, #84]	; 6805708 <spi_n_init+0x184>
 68056b0:	e3a02001 	mov	r2, #1, 0
 68056b4:	e5832008 	str	r2, [r3, #8]
 68056b8:	e3a01004 	mov	r1, #4, 0
 68056bc:	e3a00009 	mov	r0, #9, 0
 68056c0:	eb0002ad 	bl	680617c <gpio_set_function>
 68056c4:	e3a01004 	mov	r1, #4, 0
 68056c8:	e3a0000a 	mov	r0, #10, 0
 68056cc:	eb0002aa 	bl	680617c <gpio_set_function>
 68056d0:	e3a01004 	mov	r1, #4, 0
 68056d4:	e3a0000b 	mov	r0, #11, 0
 68056d8:	eb0002a7 	bl	680617c <gpio_set_function>
 68056dc:	eaffffbf 	b	68055e0 <spi_n_init+0x5c>
 68056e0:	e58d0008 	str	r0, [sp, #8]
 68056e4:	e58d5004 	str	r5, [sp, #4]
 68056e8:	e59f303c 	ldr	r3, [pc, #60]	; 680572c <spi_n_init+0x1a8>
 68056ec:	e58d3000 	str	r3, [sp]
 68056f0:	e3a03f8e 	mov	r3, #568	; 0x238
 68056f4:	e59f201c 	ldr	r2, [pc, #28]	; 6805718 <spi_n_init+0x194>
 68056f8:	e59f101c 	ldr	r1, [pc, #28]	; 680571c <spi_n_init+0x198>
 68056fc:	e59f002c 	ldr	r0, [pc, #44]	; 6805730 <spi_n_init+0x1ac>
 6805700:	eb0003e3 	bl	6806694 <printk>
 6805704:	eb000539 	bl	6806bf0 <clean_reboot>
 6805708:	0680a6e0 	.word	0x0680a6e0
 680570c:	20204000 	.word	0x20204000
 6805710:	20204008 	.word	0x20204008
 6805714:	00000213 	.word	0x00000213
 6805718:	06809528 	.word	0x06809528
 680571c:	06809328 	.word	0x06809328
 6805720:	06809424 	.word	0x06809424
 6805724:	00000222 	.word	0x00000222
 6805728:	06809474 	.word	0x06809474
 680572c:	068094dc 	.word	0x068094dc
 6805730:	0680949c 	.word	0x0680949c

06805734 <bits_mask>:
 6805734:	e3500020 	cmp	r0, #32, 0
 6805738:	0a00000f 	beq	680577c <bits_mask+0x48>
 680573c:	e350001f 	cmp	r0, #31, 0
 6805740:	8a000003 	bhi	6805754 <bits_mask+0x20>
 6805744:	e3a03001 	mov	r3, #1, 0
 6805748:	e1a00013 	lsl	r0, r3, r0
 680574c:	e2400001 	sub	r0, r0, #1, 0
 6805750:	e12fff1e 	bx	lr
 6805754:	e52de004 	push	{lr}		; (str lr, [sp, #-4]!)
 6805758:	e24dd00c 	sub	sp, sp, #12, 0
 680575c:	e59f3020 	ldr	r3, [pc, #32]	; 6805784 <bits_mask+0x50>
 6805760:	e58d3000 	str	r3, [sp]
 6805764:	e3a03033 	mov	r3, #51, 0	; 0x33
 6805768:	e59f2018 	ldr	r2, [pc, #24]	; 6805788 <bits_mask+0x54>
 680576c:	e59f1018 	ldr	r1, [pc, #24]	; 680578c <bits_mask+0x58>
 6805770:	e59f0018 	ldr	r0, [pc, #24]	; 6805790 <bits_mask+0x5c>
 6805774:	eb0003c6 	bl	6806694 <printk>
 6805778:	eb00051c 	bl	6806bf0 <clean_reboot>
 680577c:	e3e00000 	mvn	r0, #0, 0
 6805780:	e12fff1e 	bx	lr
 6805784:	06809570 	.word	0x06809570
 6805788:	06809820 	.word	0x06809820
 680578c:	06809534 	.word	0x06809534
 6805790:	0680745c 	.word	0x0680745c

06805794 <mode_get>:
 6805794:	e92d4010 	push	{r4, lr}
 6805798:	e24dd008 	sub	sp, sp, #8, 0
 680579c:	e1a04000 	mov	r4, r0
 68057a0:	e3a00005 	mov	r0, #5, 0
 68057a4:	ebffffe2 	bl	6805734 <bits_mask>
 68057a8:	e0000004 	and	r0, r0, r4
 68057ac:	e3500012 	cmp	r0, #18, 0
 68057b0:	13500010 	cmpne	r0, #16, 0
 68057b4:	0a000005 	beq	68057d0 <mode_get+0x3c>
 68057b8:	e3500017 	cmp	r0, #23, 0
 68057bc:	13500013 	cmpne	r0, #19, 0
 68057c0:	0a000002 	beq	68057d0 <mode_get+0x3c>
 68057c4:	e350001f 	cmp	r0, #31, 0
 68057c8:	1350001b 	cmpne	r0, #27, 0
 68057cc:	1a000001 	bne	68057d8 <mode_get+0x44>
 68057d0:	e28dd008 	add	sp, sp, #8, 0
 68057d4:	e8bd8010 	pop	{r4, pc}
 68057d8:	e58d0004 	str	r0, [sp, #4]
 68057dc:	e58d0000 	str	r0, [sp]
 68057e0:	e3a03013 	mov	r3, #19, 0
 68057e4:	e59f200c 	ldr	r2, [pc, #12]	; 68057f8 <mode_get+0x64>
 68057e8:	e59f100c 	ldr	r1, [pc, #12]	; 68057fc <mode_get+0x68>
 68057ec:	e59f000c 	ldr	r0, [pc, #12]	; 6805800 <mode_get+0x6c>
 68057f0:	eb0003a7 	bl	6806694 <printk>
 68057f4:	eb0004fd 	bl	6806bf0 <clean_reboot>
 68057f8:	0680982c 	.word	0x0680982c
 68057fc:	06809588 	.word	0x06809588
 6805800:	06807424 	.word	0x06807424

06805804 <fixup_regs>:
 6805804:	e92d4070 	push	{r4, r5, r6, lr}
 6805808:	e1a05000 	mov	r5, r0
 680580c:	e1a04001 	mov	r4, r1
 6805810:	e1a00001 	mov	r0, r1
 6805814:	ebffffde 	bl	6805794 <mode_get>
 6805818:	e3500010 	cmp	r0, #16, 0
 680581c:	08bd8070 	popeq	{r4, r5, r6, pc}
 6805820:	e2852038 	add	r2, r5, #56, 0	; 0x38
 6805824:	e2851034 	add	r1, r5, #52, 0	; 0x34
 6805828:	e1a00004 	mov	r0, r4
 680582c:	eb00066e 	bl	68071ec <priv_get_sp_lr_asm>
 6805830:	e8bd8070 	pop	{r4, r5, r6, pc}

06805834 <switchto>:
 6805834:	e92d4010 	push	{r4, lr}
 6805838:	e1a04000 	mov	r4, r0
 680583c:	e5900040 	ldr	r0, [r0, #64]	; 0x40
 6805840:	ebffffd3 	bl	6805794 <mode_get>
 6805844:	e3500010 	cmp	r0, #16, 0
 6805848:	0a000001 	beq	6805854 <switchto+0x20>
 680584c:	e1a00004 	mov	r0, r4
 6805850:	eb000652 	bl	68071a0 <switchto_priv_asm>
 6805854:	e1a00004 	mov	r0, r4
 6805858:	eb00063e 	bl	6807158 <switchto_user_asm>

0680585c <prefetch_abort_full_except>:
 680585c:	e52de004 	push	{lr}		; (str lr, [sp, #-4]!)
 6805860:	e24dd00c 	sub	sp, sp, #12, 0
 6805864:	e5903040 	ldr	r3, [r0, #64]	; 0x40
 6805868:	e1530001 	cmp	r3, r1
 680586c:	1a00000e 	bne	68058ac <prefetch_abort_full_except+0x50>
 6805870:	e1a04000 	mov	r4, r0
 6805874:	e590303c 	ldr	r3, [r0, #60]	; 0x3c
 6805878:	e1530002 	cmp	r3, r2
 680587c:	1a000012 	bne	68058cc <prefetch_abort_full_except+0x70>
 6805880:	e59f3080 	ldr	r3, [pc, #128]	; 6805908 <prefetch_abort_full_except+0xac>
 6805884:	e5933000 	ldr	r3, [r3]
 6805888:	e3530000 	cmp	r3, #0, 0
 680588c:	0a000016 	beq	68058ec <prefetch_abort_full_except+0x90>
 6805890:	ebffffdb 	bl	6805804 <fixup_regs>
 6805894:	e59f306c 	ldr	r3, [pc, #108]	; 6805908 <prefetch_abort_full_except+0xac>
 6805898:	e5933000 	ldr	r3, [r3]
 680589c:	e1a00004 	mov	r0, r4
 68058a0:	e12fff33 	blx	r3
 68058a4:	e1a00004 	mov	r0, r4
 68058a8:	ebffffe1 	bl	6805834 <switchto>
 68058ac:	e59f3058 	ldr	r3, [pc, #88]	; 680590c <prefetch_abort_full_except+0xb0>
 68058b0:	e58d3000 	str	r3, [sp]
 68058b4:	e3a03031 	mov	r3, #49, 0	; 0x31
 68058b8:	e59f2050 	ldr	r2, [pc, #80]	; 6805910 <prefetch_abort_full_except+0xb4>
 68058bc:	e59f1050 	ldr	r1, [pc, #80]	; 6805914 <prefetch_abort_full_except+0xb8>
 68058c0:	e59f0050 	ldr	r0, [pc, #80]	; 6805918 <prefetch_abort_full_except+0xbc>
 68058c4:	eb000372 	bl	6806694 <printk>
 68058c8:	eb0004c8 	bl	6806bf0 <clean_reboot>
 68058cc:	e59f3048 	ldr	r3, [pc, #72]	; 680591c <prefetch_abort_full_except+0xc0>
 68058d0:	e58d3000 	str	r3, [sp]
 68058d4:	e3a03032 	mov	r3, #50, 0	; 0x32
 68058d8:	e59f2030 	ldr	r2, [pc, #48]	; 6805910 <prefetch_abort_full_except+0xb4>
 68058dc:	e59f1030 	ldr	r1, [pc, #48]	; 6805914 <prefetch_abort_full_except+0xb8>
 68058e0:	e59f0030 	ldr	r0, [pc, #48]	; 6805918 <prefetch_abort_full_except+0xbc>
 68058e4:	eb00036a 	bl	6806694 <printk>
 68058e8:	eb0004c0 	bl	6806bf0 <clean_reboot>
 68058ec:	e58d2000 	str	r2, [sp]
 68058f0:	e3a03035 	mov	r3, #53, 0	; 0x35
 68058f4:	e59f2014 	ldr	r2, [pc, #20]	; 6805910 <prefetch_abort_full_except+0xb4>
 68058f8:	e59f1014 	ldr	r1, [pc, #20]	; 6805914 <prefetch_abort_full_except+0xb8>
 68058fc:	e59f001c 	ldr	r0, [pc, #28]	; 6805920 <prefetch_abort_full_except+0xc4>
 6805900:	eb000363 	bl	6806694 <printk>
 6805904:	eb0004b9 	bl	6806bf0 <clean_reboot>
 6805908:	0680a6ec 	.word	0x0680a6ec
 680590c:	068095d8 	.word	0x068095d8
 6805910:	06809838 	.word	0x06809838
 6805914:	068095c4 	.word	0x068095c4
 6805918:	0680745c 	.word	0x0680745c
 680591c:	068095f4 	.word	0x068095f4
 6805920:	0680960c 	.word	0x0680960c

06805924 <data_abort_full_except>:
 6805924:	e52de004 	push	{lr}		; (str lr, [sp, #-4]!)
 6805928:	e24dd00c 	sub	sp, sp, #12, 0
 680592c:	e5903040 	ldr	r3, [r0, #64]	; 0x40
 6805930:	e1530001 	cmp	r3, r1
 6805934:	1a00000e 	bne	6805974 <data_abort_full_except+0x50>
 6805938:	e1a04000 	mov	r4, r0
 680593c:	e590303c 	ldr	r3, [r0, #60]	; 0x3c
 6805940:	e1530002 	cmp	r3, r2
 6805944:	1a000012 	bne	6805994 <data_abort_full_except+0x70>
 6805948:	e59f3080 	ldr	r3, [pc, #128]	; 68059d0 <data_abort_full_except+0xac>
 680594c:	e5933004 	ldr	r3, [r3, #4]
 6805950:	e3530000 	cmp	r3, #0, 0
 6805954:	0a000016 	beq	68059b4 <data_abort_full_except+0x90>
 6805958:	ebffffa9 	bl	6805804 <fixup_regs>
 680595c:	e59f306c 	ldr	r3, [pc, #108]	; 68059d0 <data_abort_full_except+0xac>
 6805960:	e5933004 	ldr	r3, [r3, #4]
 6805964:	e1a00004 	mov	r0, r4
 6805968:	e12fff33 	blx	r3
 680596c:	e1a00004 	mov	r0, r4
 6805970:	ebffffaf 	bl	6805834 <switchto>
 6805974:	e59f3058 	ldr	r3, [pc, #88]	; 68059d4 <data_abort_full_except+0xb0>
 6805978:	e58d3000 	str	r3, [sp]
 680597c:	e3a0303e 	mov	r3, #62, 0	; 0x3e
 6805980:	e59f2050 	ldr	r2, [pc, #80]	; 68059d8 <data_abort_full_except+0xb4>
 6805984:	e59f1050 	ldr	r1, [pc, #80]	; 68059dc <data_abort_full_except+0xb8>
 6805988:	e59f0050 	ldr	r0, [pc, #80]	; 68059e0 <data_abort_full_except+0xbc>
 680598c:	eb000340 	bl	6806694 <printk>
 6805990:	eb000496 	bl	6806bf0 <clean_reboot>
 6805994:	e59f3048 	ldr	r3, [pc, #72]	; 68059e4 <data_abort_full_except+0xc0>
 6805998:	e58d3000 	str	r3, [sp]
 680599c:	e3a0303f 	mov	r3, #63, 0	; 0x3f
 68059a0:	e59f2030 	ldr	r2, [pc, #48]	; 68059d8 <data_abort_full_except+0xb4>
 68059a4:	e59f1030 	ldr	r1, [pc, #48]	; 68059dc <data_abort_full_except+0xb8>
 68059a8:	e59f0030 	ldr	r0, [pc, #48]	; 68059e0 <data_abort_full_except+0xbc>
 68059ac:	eb000338 	bl	6806694 <printk>
 68059b0:	eb00048e 	bl	6806bf0 <clean_reboot>
 68059b4:	e58d2000 	str	r2, [sp]
 68059b8:	e3a03042 	mov	r3, #66, 0	; 0x42
 68059bc:	e59f2014 	ldr	r2, [pc, #20]	; 68059d8 <data_abort_full_except+0xb4>
 68059c0:	e59f1014 	ldr	r1, [pc, #20]	; 68059dc <data_abort_full_except+0xb8>
 68059c4:	e59f001c 	ldr	r0, [pc, #28]	; 68059e8 <data_abort_full_except+0xc4>
 68059c8:	eb000331 	bl	6806694 <printk>
 68059cc:	eb000487 	bl	6806bf0 <clean_reboot>
 68059d0:	0680a6ec 	.word	0x0680a6ec
 68059d4:	068095d8 	.word	0x068095d8
 68059d8:	06809854 	.word	0x06809854
 68059dc:	068095c4 	.word	0x068095c4
 68059e0:	0680745c 	.word	0x0680745c
 68059e4:	068095f4 	.word	0x068095f4
 68059e8:	06809644 	.word	0x06809644

068059ec <syscall_full_except>:
 68059ec:	e52de004 	push	{lr}		; (str lr, [sp, #-4]!)
 68059f0:	e24dd014 	sub	sp, sp, #20, 0
 68059f4:	e5903040 	ldr	r3, [r0, #64]	; 0x40
 68059f8:	e1530001 	cmp	r3, r1
 68059fc:	1a00000c 	bne	6805a34 <syscall_full_except+0x48>
 6805a00:	e1a04000 	mov	r4, r0
 6805a04:	e1a05002 	mov	r5, r2
 6805a08:	e590303c 	ldr	r3, [r0, #60]	; 0x3c
 6805a0c:	e1530002 	cmp	r3, r2
 6805a10:	0a00000f 	beq	6805a54 <syscall_full_except+0x68>
 6805a14:	e59f30d0 	ldr	r3, [pc, #208]	; 6805aec <syscall_full_except+0x100>
 6805a18:	e58d3000 	str	r3, [sp]
 6805a1c:	e3a0304d 	mov	r3, #77, 0	; 0x4d
 6805a20:	e59f20c8 	ldr	r2, [pc, #200]	; 6805af0 <syscall_full_except+0x104>
 6805a24:	e59f10c8 	ldr	r1, [pc, #200]	; 6805af4 <syscall_full_except+0x108>
 6805a28:	e59f00c8 	ldr	r0, [pc, #200]	; 6805af8 <syscall_full_except+0x10c>
 6805a2c:	eb000318 	bl	6806694 <printk>
 6805a30:	eb00046e 	bl	6806bf0 <clean_reboot>
 6805a34:	e59f30c0 	ldr	r3, [pc, #192]	; 6805afc <syscall_full_except+0x110>
 6805a38:	e58d3000 	str	r3, [sp]
 6805a3c:	e3a0304c 	mov	r3, #76, 0	; 0x4c
 6805a40:	e59f20a8 	ldr	r2, [pc, #168]	; 6805af0 <syscall_full_except+0x104>
 6805a44:	e59f10a8 	ldr	r1, [pc, #168]	; 6805af4 <syscall_full_except+0x108>
 6805a48:	e59f00a8 	ldr	r0, [pc, #168]	; 6805af8 <syscall_full_except+0x10c>
 6805a4c:	eb000310 	bl	6806694 <printk>
 6805a50:	eb000466 	bl	6806bf0 <clean_reboot>
 6805a54:	e1a00001 	mov	r0, r1
 6805a58:	ebffff4d 	bl	6805794 <mode_get>
 6805a5c:	e3500010 	cmp	r0, #16, 0
 6805a60:	1a00000c 	bne	6805a98 <syscall_full_except+0xac>
 6805a64:	e28d200c 	add	r2, sp, #12, 0
 6805a68:	e59f3090 	ldr	r3, [pc, #144]	; 6805b00 <syscall_full_except+0x114>
 6805a6c:	e1520003 	cmp	r2, r3
 6805a70:	9a00000e 	bls	6805ab0 <syscall_full_except+0xc4>
 6805a74:	e59f3088 	ldr	r3, [pc, #136]	; 6805b04 <syscall_full_except+0x118>
 6805a78:	e5933008 	ldr	r3, [r3, #8]
 6805a7c:	e3530000 	cmp	r3, #0, 0
 6805a80:	0a000012 	beq	6805ad0 <syscall_full_except+0xe4>
 6805a84:	e1a00004 	mov	r0, r4
 6805a88:	e12fff33 	blx	r3
 6805a8c:	e5840000 	str	r0, [r4]
 6805a90:	e1a00004 	mov	r0, r4
 6805a94:	ebffff66 	bl	6805834 <switchto>
 6805a98:	e3a03050 	mov	r3, #80, 0	; 0x50
 6805a9c:	e59f204c 	ldr	r2, [pc, #76]	; 6805af0 <syscall_full_except+0x104>
 6805aa0:	e59f104c 	ldr	r1, [pc, #76]	; 6805af4 <syscall_full_except+0x108>
 6805aa4:	e59f005c 	ldr	r0, [pc, #92]	; 6805b08 <syscall_full_except+0x11c>
 6805aa8:	eb0002f9 	bl	6806694 <printk>
 6805aac:	eb00044f 	bl	6806bf0 <clean_reboot>
 6805ab0:	e59f3054 	ldr	r3, [pc, #84]	; 6805b0c <syscall_full_except+0x120>
 6805ab4:	e58d3000 	str	r3, [sp]
 6805ab8:	e3a03055 	mov	r3, #85, 0	; 0x55
 6805abc:	e59f202c 	ldr	r2, [pc, #44]	; 6805af0 <syscall_full_except+0x104>
 6805ac0:	e59f102c 	ldr	r1, [pc, #44]	; 6805af4 <syscall_full_except+0x108>
 6805ac4:	e59f0044 	ldr	r0, [pc, #68]	; 6805b10 <syscall_full_except+0x124>
 6805ac8:	eb0002f1 	bl	6806694 <printk>
 6805acc:	eb000447 	bl	6806bf0 <clean_reboot>
 6805ad0:	e58d5000 	str	r5, [sp]
 6805ad4:	e3a0305a 	mov	r3, #90, 0	; 0x5a
 6805ad8:	e59f2010 	ldr	r2, [pc, #16]	; 6805af0 <syscall_full_except+0x104>
 6805adc:	e59f1010 	ldr	r1, [pc, #16]	; 6805af4 <syscall_full_except+0x108>
 6805ae0:	e59f002c 	ldr	r0, [pc, #44]	; 6805b14 <syscall_full_except+0x128>
 6805ae4:	eb0002ea 	bl	6806694 <printk>
 6805ae8:	eb000440 	bl	6806bf0 <clean_reboot>
 6805aec:	068095f4 	.word	0x068095f4
 6805af0:	0680986c 	.word	0x0680986c
 6805af4:	068095c4 	.word	0x068095c4
 6805af8:	0680745c 	.word	0x0680745c
 6805afc:	068095d8 	.word	0x068095d8
 6805b00:	000186a0 	.word	0x000186a0
 6805b04:	0680a6ec 	.word	0x0680a6ec
 6805b08:	06809678 	.word	0x06809678
 6805b0c:	068096f8 	.word	0x068096f8
 6805b10:	068096b4 	.word	0x068096b4
 6805b14:	06809710 	.word	0x06809710

06805b18 <full_except_set_prefetch>:
 6805b18:	e59f300c 	ldr	r3, [pc, #12]	; 6805b2c <full_except_set_prefetch+0x14>
 6805b1c:	e5932000 	ldr	r2, [r3]
 6805b20:	e5830000 	str	r0, [r3]
 6805b24:	e1a00002 	mov	r0, r2
 6805b28:	e12fff1e 	bx	lr
 6805b2c:	0680a6ec 	.word	0x0680a6ec

06805b30 <full_except_set_data_abort>:
 6805b30:	e59f300c 	ldr	r3, [pc, #12]	; 6805b44 <full_except_set_data_abort+0x14>
 6805b34:	e5932004 	ldr	r2, [r3, #4]
 6805b38:	e5830004 	str	r0, [r3, #4]
 6805b3c:	e1a00002 	mov	r0, r2
 6805b40:	e12fff1e 	bx	lr
 6805b44:	0680a6ec 	.word	0x0680a6ec

06805b48 <full_except_set_syscall>:
 6805b48:	e59f300c 	ldr	r3, [pc, #12]	; 6805b5c <full_except_set_syscall+0x14>
 6805b4c:	e5932008 	ldr	r2, [r3, #8]
 6805b50:	e5830008 	str	r0, [r3, #8]
 6805b54:	e1a00002 	mov	r0, r2
 6805b58:	e12fff1e 	bx	lr
 6805b5c:	0680a6ec 	.word	0x0680a6ec

06805b60 <full_except_install>:
 6805b60:	e52de004 	push	{lr}		; (str lr, [sp, #-4]!)
 6805b64:	e24dd00c 	sub	sp, sp, #12, 0
 6805b68:	e3500000 	cmp	r0, #0, 0
 6805b6c:	1a000007 	bne	6805b90 <full_except_install+0x30>
 6805b70:	ee1c3f10 	mrc	15, 0, r3, cr12, cr0, {0}
 6805b74:	e3530000 	cmp	r3, #0, 0
 6805b78:	0a000030 	beq	6805c40 <full_except_install+0xe0>
 6805b7c:	e59f217c 	ldr	r2, [pc, #380]	; 6805d00 <full_except_install+0x1a0>
 6805b80:	e1530002 	cmp	r3, r2
 6805b84:	1a000056 	bne	6805ce4 <full_except_install+0x184>
 6805b88:	e28dd00c 	add	sp, sp, #12, 0
 6805b8c:	e49df004 	pop	{pc}		; (ldr pc, [sp], #4)
 6805b90:	e59f3168 	ldr	r3, [pc, #360]	; 6805d00 <full_except_install+0x1a0>
 6805b94:	e313001f 	tst	r3, #31, 0
 6805b98:	1a000017 	bne	6805bfc <full_except_install+0x9c>
 6805b9c:	e3a03001 	mov	r3, #1, 0
 6805ba0:	e3530000 	cmp	r3, #0, 0
 6805ba4:	0a000016 	beq	6805c04 <full_except_install+0xa4>
 6805ba8:	ee1c3f10 	mrc	15, 0, r3, cr12, cr0, {0}
 6805bac:	e59f214c 	ldr	r2, [pc, #332]	; 6805d00 <full_except_install+0x1a0>
 6805bb0:	e1530002 	cmp	r3, r2
 6805bb4:	0afffff3 	beq	6805b88 <full_except_install+0x28>
 6805bb8:	e3530000 	cmp	r3, #0, 0
 6805bbc:	1a000018 	bne	6805c24 <full_except_install+0xc4>
 6805bc0:	e59f3138 	ldr	r3, [pc, #312]	; 6805d00 <full_except_install+0x1a0>
 6805bc4:	ee0c3f10 	mcr	15, 0, r3, cr12, cr0, {0}
 6805bc8:	e3a02000 	mov	r2, #0, 0
 6805bcc:	ee072f95 	mcr	15, 0, r2, cr7, cr5, {4}
 6805bd0:	ee1c2f10 	mrc	15, 0, r2, cr12, cr0, {0}
 6805bd4:	e1520003 	cmp	r2, r3
 6805bd8:	0affffea 	beq	6805b88 <full_except_install+0x28>
 6805bdc:	e58d2004 	str	r2, [sp, #4]
 6805be0:	e58d3000 	str	r3, [sp]
 6805be4:	e3a03036 	mov	r3, #54, 0	; 0x36
 6805be8:	e59f2114 	ldr	r2, [pc, #276]	; 6805d04 <full_except_install+0x1a4>
 6805bec:	e59f1114 	ldr	r1, [pc, #276]	; 6805d08 <full_except_install+0x1a8>
 6805bf0:	e59f0114 	ldr	r0, [pc, #276]	; 6805d0c <full_except_install+0x1ac>
 6805bf4:	eb0002a6 	bl	6806694 <printk>
 6805bf8:	eb0003fc 	bl	6806bf0 <clean_reboot>
 6805bfc:	e3a03000 	mov	r3, #0, 0
 6805c00:	eaffffe6 	b	6805ba0 <full_except_install+0x40>
 6805c04:	e59f30f4 	ldr	r3, [pc, #244]	; 6805d00 <full_except_install+0x1a0>
 6805c08:	e58d3000 	str	r3, [sp]
 6805c0c:	e3a03028 	mov	r3, #40, 0	; 0x28
 6805c10:	e59f20ec 	ldr	r2, [pc, #236]	; 6805d04 <full_except_install+0x1a4>
 6805c14:	e59f10ec 	ldr	r1, [pc, #236]	; 6805d08 <full_except_install+0x1a8>
 6805c18:	e59f00f0 	ldr	r0, [pc, #240]	; 6805d10 <full_except_install+0x1b0>
 6805c1c:	eb00029c 	bl	6806694 <printk>
 6805c20:	eb0003f2 	bl	6806bf0 <clean_reboot>
 6805c24:	e58d3000 	str	r3, [sp]
 6805c28:	e3a03031 	mov	r3, #49, 0	; 0x31
 6805c2c:	e59f20d0 	ldr	r2, [pc, #208]	; 6805d04 <full_except_install+0x1a4>
 6805c30:	e59f10d0 	ldr	r1, [pc, #208]	; 6805d08 <full_except_install+0x1a8>
 6805c34:	e59f00d8 	ldr	r0, [pc, #216]	; 6805d14 <full_except_install+0x1b4>
 6805c38:	eb000295 	bl	6806694 <printk>
 6805c3c:	eb0003eb 	bl	6806bf0 <clean_reboot>
 6805c40:	e59f30b8 	ldr	r3, [pc, #184]	; 6805d00 <full_except_install+0x1a0>
 6805c44:	e313001f 	tst	r3, #31, 0
 6805c48:	03a00001 	moveq	r0, #1, 0
 6805c4c:	e3500000 	cmp	r0, #0, 0
 6805c50:	0a000014 	beq	6805ca8 <full_except_install+0x148>
 6805c54:	ee1c3f10 	mrc	15, 0, r3, cr12, cr0, {0}
 6805c58:	e59f20a0 	ldr	r2, [pc, #160]	; 6805d00 <full_except_install+0x1a0>
 6805c5c:	e1530002 	cmp	r3, r2
 6805c60:	0affffc8 	beq	6805b88 <full_except_install+0x28>
 6805c64:	e3530000 	cmp	r3, #0, 0
 6805c68:	1a000016 	bne	6805cc8 <full_except_install+0x168>
 6805c6c:	e59f308c 	ldr	r3, [pc, #140]	; 6805d00 <full_except_install+0x1a0>
 6805c70:	ee0c3f10 	mcr	15, 0, r3, cr12, cr0, {0}
 6805c74:	e3a02000 	mov	r2, #0, 0
 6805c78:	ee072f95 	mcr	15, 0, r2, cr7, cr5, {4}
 6805c7c:	ee1c2f10 	mrc	15, 0, r2, cr12, cr0, {0}
 6805c80:	e1520003 	cmp	r2, r3
 6805c84:	0affffbf 	beq	6805b88 <full_except_install+0x28>
 6805c88:	e58d2004 	str	r2, [sp, #4]
 6805c8c:	e58d3000 	str	r3, [sp]
 6805c90:	e3a03036 	mov	r3, #54, 0	; 0x36
 6805c94:	e59f2068 	ldr	r2, [pc, #104]	; 6805d04 <full_except_install+0x1a4>
 6805c98:	e59f1068 	ldr	r1, [pc, #104]	; 6805d08 <full_except_install+0x1a8>
 6805c9c:	e59f0068 	ldr	r0, [pc, #104]	; 6805d0c <full_except_install+0x1ac>
 6805ca0:	eb00027b 	bl	6806694 <printk>
 6805ca4:	eb0003d1 	bl	6806bf0 <clean_reboot>
 6805ca8:	e59f3050 	ldr	r3, [pc, #80]	; 6805d00 <full_except_install+0x1a0>
 6805cac:	e58d3000 	str	r3, [sp]
 6805cb0:	e3a03028 	mov	r3, #40, 0	; 0x28
 6805cb4:	e59f2048 	ldr	r2, [pc, #72]	; 6805d04 <full_except_install+0x1a4>
 6805cb8:	e59f1048 	ldr	r1, [pc, #72]	; 6805d08 <full_except_install+0x1a8>
 6805cbc:	e59f004c 	ldr	r0, [pc, #76]	; 6805d10 <full_except_install+0x1b0>
 6805cc0:	eb000273 	bl	6806694 <printk>
 6805cc4:	eb0003c9 	bl	6806bf0 <clean_reboot>
 6805cc8:	e58d3000 	str	r3, [sp]
 6805ccc:	e3a03031 	mov	r3, #49, 0	; 0x31
 6805cd0:	e59f202c 	ldr	r2, [pc, #44]	; 6805d04 <full_except_install+0x1a4>
 6805cd4:	e59f102c 	ldr	r1, [pc, #44]	; 6805d08 <full_except_install+0x1a8>
 6805cd8:	e59f0034 	ldr	r0, [pc, #52]	; 6805d14 <full_except_install+0x1b4>
 6805cdc:	eb00026c 	bl	6806694 <printk>
 6805ce0:	eb0003c2 	bl	6806bf0 <clean_reboot>
 6805ce4:	e58d3000 	str	r3, [sp]
 6805ce8:	e3a03089 	mov	r3, #137, 0	; 0x89
 6805cec:	e59f2024 	ldr	r2, [pc, #36]	; 6805d18 <full_except_install+0x1b8>
 6805cf0:	e59f1024 	ldr	r1, [pc, #36]	; 6805d1c <full_except_install+0x1bc>
 6805cf4:	e59f0024 	ldr	r0, [pc, #36]	; 6805d20 <full_except_install+0x1c0>
 6805cf8:	eb000265 	bl	6806694 <printk>
 6805cfc:	eb0003bb 	bl	6806bf0 <clean_reboot>
 6805d00:	068070e0 	.word	0x068070e0
 6805d04:	06809880 	.word	0x06809880
 6805d08:	06809740 	.word	0x06809740
 6805d0c:	068097b0 	.word	0x068097b0
 6805d10:	06809750 	.word	0x06809750
 6805d14:	06809778 	.word	0x06809778
 6805d18:	06809890 	.word	0x06809890
 6805d1c:	068095c4 	.word	0x068095c4
 6805d20:	068097dc 	.word	0x068097dc

06805d24 <kmalloc_heap_end>:
 6805d24:	e59f3004 	ldr	r3, [pc, #4]	; 6805d30 <kmalloc_heap_end+0xc>
 6805d28:	e5930000 	ldr	r0, [r3]
 6805d2c:	e12fff1e 	bx	lr
 6805d30:	0680a6f8 	.word	0x0680a6f8

06805d34 <kmalloc_heap_start>:
 6805d34:	e59f3004 	ldr	r3, [pc, #4]	; 6805d40 <kmalloc_heap_start+0xc>
 6805d38:	e5930004 	ldr	r0, [r3, #4]
 6805d3c:	e12fff1e 	bx	lr
 6805d40:	0680a6f8 	.word	0x0680a6f8

06805d44 <kmalloc_heap_ptr>:
 6805d44:	e59f3004 	ldr	r3, [pc, #4]	; 6805d50 <kmalloc_heap_ptr+0xc>
 6805d48:	e5930008 	ldr	r0, [r3, #8]
 6805d4c:	e12fff1e 	bx	lr
 6805d50:	0680a6f8 	.word	0x0680a6f8

06805d54 <kmalloc_init_set_start>:
 6805d54:	e92d4030 	push	{r4, r5, lr}
 6805d58:	e24dd00c 	sub	sp, sp, #12, 0
 6805d5c:	e1a04000 	mov	r4, r0
 6805d60:	e1a05001 	mov	r5, r1
 6805d64:	eb0003a9 	bl	6806c10 <program_end>
 6805d68:	e1540000 	cmp	r4, r0
 6805d6c:	3a000010 	bcc	6805db4 <kmalloc_init_set_start+0x60>
 6805d70:	e3550000 	cmp	r5, #0, 0
 6805d74:	0a000014 	beq	6805dcc <kmalloc_init_set_start+0x78>
 6805d78:	e59f30ac 	ldr	r3, [pc, #172]	; 6805e2c <kmalloc_init_set_start+0xd8>
 6805d7c:	e5933004 	ldr	r3, [r3, #4]
 6805d80:	e1530004 	cmp	r3, r4
 6805d84:	8a000018 	bhi	6805dec <kmalloc_init_set_start+0x98>
 6805d88:	e59f309c 	ldr	r3, [pc, #156]	; 6805e2c <kmalloc_init_set_start+0xd8>
 6805d8c:	e5933008 	ldr	r3, [r3, #8]
 6805d90:	e1530004 	cmp	r3, r4
 6805d94:	8a00001a 	bhi	6805e04 <kmalloc_init_set_start+0xb0>
 6805d98:	e59f308c 	ldr	r3, [pc, #140]	; 6805e2c <kmalloc_init_set_start+0xd8>
 6805d9c:	e5834008 	str	r4, [r3, #8]
 6805da0:	e5834004 	str	r4, [r3, #4]
 6805da4:	e0844005 	add	r4, r4, r5
 6805da8:	e5834000 	str	r4, [r3]
 6805dac:	e28dd00c 	add	sp, sp, #12, 0
 6805db0:	e8bd8030 	pop	{r4, r5, pc}
 6805db4:	e3a03030 	mov	r3, #48, 0	; 0x30
 6805db8:	e59f2070 	ldr	r2, [pc, #112]	; 6805e30 <kmalloc_init_set_start+0xdc>
 6805dbc:	e59f1070 	ldr	r1, [pc, #112]	; 6805e34 <kmalloc_init_set_start+0xe0>
 6805dc0:	e59f0070 	ldr	r0, [pc, #112]	; 6805e38 <kmalloc_init_set_start+0xe4>
 6805dc4:	eb000232 	bl	6806694 <printk>
 6805dc8:	eb000388 	bl	6806bf0 <clean_reboot>
 6805dcc:	e59f3068 	ldr	r3, [pc, #104]	; 6805e3c <kmalloc_init_set_start+0xe8>
 6805dd0:	e58d3000 	str	r3, [sp]
 6805dd4:	e3a03032 	mov	r3, #50, 0	; 0x32
 6805dd8:	e59f2050 	ldr	r2, [pc, #80]	; 6805e30 <kmalloc_init_set_start+0xdc>
 6805ddc:	e59f1050 	ldr	r1, [pc, #80]	; 6805e34 <kmalloc_init_set_start+0xe0>
 6805de0:	e59f0058 	ldr	r0, [pc, #88]	; 6805e40 <kmalloc_init_set_start+0xec>
 6805de4:	eb00022a 	bl	6806694 <printk>
 6805de8:	eb000380 	bl	6806bf0 <clean_reboot>
 6805dec:	e3a03034 	mov	r3, #52, 0	; 0x34
 6805df0:	e59f2038 	ldr	r2, [pc, #56]	; 6805e30 <kmalloc_init_set_start+0xdc>
 6805df4:	e59f1038 	ldr	r1, [pc, #56]	; 6805e34 <kmalloc_init_set_start+0xe0>
 6805df8:	e59f0044 	ldr	r0, [pc, #68]	; 6805e44 <kmalloc_init_set_start+0xf0>
 6805dfc:	eb000224 	bl	6806694 <printk>
 6805e00:	eb00037a 	bl	6806bf0 <clean_reboot>
 6805e04:	e59f3020 	ldr	r3, [pc, #32]	; 6805e2c <kmalloc_init_set_start+0xd8>
 6805e08:	e5933000 	ldr	r3, [r3]
 6805e0c:	e58d3004 	str	r3, [sp, #4]
 6805e10:	e58d4000 	str	r4, [sp]
 6805e14:	e3a03038 	mov	r3, #56, 0	; 0x38
 6805e18:	e59f2010 	ldr	r2, [pc, #16]	; 6805e30 <kmalloc_init_set_start+0xdc>
 6805e1c:	e59f1010 	ldr	r1, [pc, #16]	; 6805e34 <kmalloc_init_set_start+0xe0>
 6805e20:	e59f0020 	ldr	r0, [pc, #32]	; 6805e48 <kmalloc_init_set_start+0xf4>
 6805e24:	eb00021a 	bl	6806694 <printk>
 6805e28:	eb000370 	bl	6806bf0 <clean_reboot>
 6805e2c:	0680a6f8 	.word	0x0680a6f8
 6805e30:	06809ab4 	.word	0x06809ab4
 6805e34:	068098a4 	.word	0x068098a4
 6805e38:	068098b0 	.word	0x068098b0
 6805e3c:	068098d8 	.word	0x068098d8
 6805e40:	0680745c 	.word	0x0680745c
 6805e44:	068098e4 	.word	0x068098e4
 6805e48:	06809930 	.word	0x06809930

06805e4c <kmalloc_notzero>:
 6805e4c:	e52de004 	push	{lr}		; (str lr, [sp, #-4]!)
 6805e50:	e24dd00c 	sub	sp, sp, #12, 0
 6805e54:	e3500000 	cmp	r0, #0, 0
 6805e58:	0a00000f 	beq	6805e9c <kmalloc_notzero+0x50>
 6805e5c:	e2800007 	add	r0, r0, #7, 0
 6805e60:	e3c03007 	bic	r3, r0, #7, 0
 6805e64:	e59f20ac 	ldr	r2, [pc, #172]	; 6805f18 <kmalloc_notzero+0xcc>
 6805e68:	e5920008 	ldr	r0, [r2, #8]
 6805e6c:	e3100007 	tst	r0, #7, 0
 6805e70:	1a000011 	bne	6805ebc <kmalloc_notzero+0x70>
 6805e74:	e3500000 	cmp	r0, #0, 0
 6805e78:	0a000017 	beq	6805edc <kmalloc_notzero+0x90>
 6805e7c:	e0802003 	add	r2, r0, r3
 6805e80:	e59f1090 	ldr	r1, [pc, #144]	; 6805f18 <kmalloc_notzero+0xcc>
 6805e84:	e5812008 	str	r2, [r1, #8]
 6805e88:	e5911000 	ldr	r1, [r1]
 6805e8c:	e1520001 	cmp	r2, r1
 6805e90:	8a000017 	bhi	6805ef4 <kmalloc_notzero+0xa8>
 6805e94:	e28dd00c 	add	sp, sp, #12, 0
 6805e98:	e49df004 	pop	{pc}		; (ldr pc, [sp], #4)
 6805e9c:	e59f3078 	ldr	r3, [pc, #120]	; 6805f1c <kmalloc_notzero+0xd0>
 6805ea0:	e58d3000 	str	r3, [sp]
 6805ea4:	e3a03041 	mov	r3, #65, 0	; 0x41
 6805ea8:	e59f2070 	ldr	r2, [pc, #112]	; 6805f20 <kmalloc_notzero+0xd4>
 6805eac:	e59f1070 	ldr	r1, [pc, #112]	; 6805f24 <kmalloc_notzero+0xd8>
 6805eb0:	e59f0070 	ldr	r0, [pc, #112]	; 6805f28 <kmalloc_notzero+0xdc>
 6805eb4:	eb0001f6 	bl	6806694 <printk>
 6805eb8:	eb00034c 	bl	6806bf0 <clean_reboot>
 6805ebc:	e59f3068 	ldr	r3, [pc, #104]	; 6805f2c <kmalloc_notzero+0xe0>
 6805ec0:	e58d3000 	str	r3, [sp]
 6805ec4:	e3a03044 	mov	r3, #68, 0	; 0x44
 6805ec8:	e59f2050 	ldr	r2, [pc, #80]	; 6805f20 <kmalloc_notzero+0xd4>
 6805ecc:	e59f1050 	ldr	r1, [pc, #80]	; 6805f24 <kmalloc_notzero+0xd8>
 6805ed0:	e59f0050 	ldr	r0, [pc, #80]	; 6805f28 <kmalloc_notzero+0xdc>
 6805ed4:	eb0001ee 	bl	6806694 <printk>
 6805ed8:	eb000344 	bl	6806bf0 <clean_reboot>
 6805edc:	e3a03048 	mov	r3, #72, 0	; 0x48
 6805ee0:	e59f2038 	ldr	r2, [pc, #56]	; 6805f20 <kmalloc_notzero+0xd4>
 6805ee4:	e59f1038 	ldr	r1, [pc, #56]	; 6805f24 <kmalloc_notzero+0xd8>
 6805ee8:	e59f0040 	ldr	r0, [pc, #64]	; 6805f30 <kmalloc_notzero+0xe4>
 6805eec:	eb0001e8 	bl	6806694 <printk>
 6805ef0:	eb00033e 	bl	6806bf0 <clean_reboot>
 6805ef4:	e0422001 	sub	r2, r2, r1
 6805ef8:	e58d2004 	str	r2, [sp, #4]
 6805efc:	e58d3000 	str	r3, [sp]
 6805f00:	e3a0304c 	mov	r3, #76, 0	; 0x4c
 6805f04:	e59f2014 	ldr	r2, [pc, #20]	; 6805f20 <kmalloc_notzero+0xd4>
 6805f08:	e59f1014 	ldr	r1, [pc, #20]	; 6805f24 <kmalloc_notzero+0xd8>
 6805f0c:	e59f0020 	ldr	r0, [pc, #32]	; 6805f34 <kmalloc_notzero+0xe8>
 6805f10:	eb0001df 	bl	6806694 <printk>
 6805f14:	eb000335 	bl	6806bf0 <clean_reboot>
 6805f18:	0680a6f8 	.word	0x0680a6f8
 6805f1c:	0680941c 	.word	0x0680941c
 6805f20:	06809acc 	.word	0x06809acc
 6805f24:	068098a4 	.word	0x068098a4
 6805f28:	0680745c 	.word	0x0680745c
 6805f2c:	06809974 	.word	0x06809974
 6805f30:	0680998c 	.word	0x0680998c
 6805f34:	068099b8 	.word	0x068099b8

06805f38 <kmalloc>:
 6805f38:	e92d4030 	push	{r4, r5, lr}
 6805f3c:	e24dd00c 	sub	sp, sp, #12, 0
 6805f40:	e2504000 	subs	r4, r0, #0, 0
 6805f44:	0a000008 	beq	6805f6c <kmalloc+0x34>
 6805f48:	e1a00004 	mov	r0, r4
 6805f4c:	ebffffbe 	bl	6805e4c <kmalloc_notzero>
 6805f50:	e1a05000 	mov	r5, r0
 6805f54:	e1a02004 	mov	r2, r4
 6805f58:	e3a01000 	mov	r1, #0, 0
 6805f5c:	eb0001a4 	bl	68065f4 <memset>
 6805f60:	e1a00005 	mov	r0, r5
 6805f64:	e28dd00c 	add	sp, sp, #12, 0
 6805f68:	e8bd8030 	pop	{r4, r5, pc}
 6805f6c:	e59f3018 	ldr	r3, [pc, #24]	; 6805f8c <kmalloc+0x54>
 6805f70:	e58d3000 	str	r3, [sp]
 6805f74:	e3a03054 	mov	r3, #84, 0	; 0x54
 6805f78:	e59f2010 	ldr	r2, [pc, #16]	; 6805f90 <kmalloc+0x58>
 6805f7c:	e59f1010 	ldr	r1, [pc, #16]	; 6805f94 <kmalloc+0x5c>
 6805f80:	e59f0010 	ldr	r0, [pc, #16]	; 6805f98 <kmalloc+0x60>
 6805f84:	eb0001c2 	bl	6806694 <printk>
 6805f88:	eb000318 	bl	6806bf0 <clean_reboot>
 6805f8c:	0680941c 	.word	0x0680941c
 6805f90:	06809adc 	.word	0x06809adc
 6805f94:	068098a4 	.word	0x068098a4
 6805f98:	0680745c 	.word	0x0680745c

06805f9c <kmalloc_aligned>:
 6805f9c:	e52de004 	push	{lr}		; (str lr, [sp, #-4]!)
 6805fa0:	e24dd00c 	sub	sp, sp, #12, 0
 6805fa4:	e3500000 	cmp	r0, #0, 0
 6805fa8:	0a000014 	beq	6806000 <kmalloc_aligned+0x64>
 6805fac:	e2613000 	rsb	r3, r1, #0, 0
 6805fb0:	e1d13003 	bics	r3, r1, r3
 6805fb4:	1a000019 	bne	6806020 <kmalloc_aligned+0x84>
 6805fb8:	e3510008 	cmp	r1, #8, 0
 6805fbc:	33a01008 	movcc	r1, #8, 0
 6805fc0:	e59f30b8 	ldr	r3, [pc, #184]	; 6806080 <kmalloc_aligned+0xe4>
 6805fc4:	e5932008 	ldr	r2, [r3, #8]
 6805fc8:	e2613000 	rsb	r3, r1, #0, 0
 6805fcc:	e1d1c003 	bics	ip, r1, r3
 6805fd0:	1a00001a 	bne	6806040 <kmalloc_aligned+0xa4>
 6805fd4:	e0822001 	add	r2, r2, r1
 6805fd8:	e2422001 	sub	r2, r2, #1, 0
 6805fdc:	e0033002 	and	r3, r3, r2
 6805fe0:	e2411001 	sub	r1, r1, #1, 0
 6805fe4:	e1110003 	tst	r1, r3
 6805fe8:	1a00001c 	bne	6806060 <kmalloc_aligned+0xc4>
 6805fec:	e59f208c 	ldr	r2, [pc, #140]	; 6806080 <kmalloc_aligned+0xe4>
 6805ff0:	e5823008 	str	r3, [r2, #8]
 6805ff4:	ebffffcf 	bl	6805f38 <kmalloc>
 6805ff8:	e28dd00c 	add	sp, sp, #12, 0
 6805ffc:	e49df004 	pop	{pc}		; (ldr pc, [sp], #4)
 6806000:	e59f307c 	ldr	r3, [pc, #124]	; 6806084 <kmalloc_aligned+0xe8>
 6806004:	e58d3000 	str	r3, [sp]
 6806008:	e3a0305e 	mov	r3, #94, 0	; 0x5e
 680600c:	e59f2074 	ldr	r2, [pc, #116]	; 6806088 <kmalloc_aligned+0xec>
 6806010:	e59f1074 	ldr	r1, [pc, #116]	; 680608c <kmalloc_aligned+0xf0>
 6806014:	e59f0074 	ldr	r0, [pc, #116]	; 6806090 <kmalloc_aligned+0xf4>
 6806018:	eb00019d 	bl	6806694 <printk>
 680601c:	eb0002f3 	bl	6806bf0 <clean_reboot>
 6806020:	e59f306c 	ldr	r3, [pc, #108]	; 6806094 <kmalloc_aligned+0xf8>
 6806024:	e58d3000 	str	r3, [sp]
 6806028:	e3a0305f 	mov	r3, #95, 0	; 0x5f
 680602c:	e59f2054 	ldr	r2, [pc, #84]	; 6806088 <kmalloc_aligned+0xec>
 6806030:	e59f1054 	ldr	r1, [pc, #84]	; 680608c <kmalloc_aligned+0xf0>
 6806034:	e59f005c 	ldr	r0, [pc, #92]	; 6806098 <kmalloc_aligned+0xfc>
 6806038:	eb000195 	bl	6806694 <printk>
 680603c:	eb0002eb 	bl	6806bf0 <clean_reboot>
 6806040:	e59f3054 	ldr	r3, [pc, #84]	; 680609c <kmalloc_aligned+0x100>
 6806044:	e58d3000 	str	r3, [sp]
 6806048:	e3a03011 	mov	r3, #17, 0
 680604c:	e59f204c 	ldr	r2, [pc, #76]	; 68060a0 <kmalloc_aligned+0x104>
 6806050:	e59f1034 	ldr	r1, [pc, #52]	; 680608c <kmalloc_aligned+0xf0>
 6806054:	e59f0034 	ldr	r0, [pc, #52]	; 6806090 <kmalloc_aligned+0xf4>
 6806058:	eb00018d 	bl	6806694 <printk>
 680605c:	eb0002e3 	bl	6806bf0 <clean_reboot>
 6806060:	e59f303c 	ldr	r3, [pc, #60]	; 68060a4 <kmalloc_aligned+0x108>
 6806064:	e58d3000 	str	r3, [sp]
 6806068:	e3a03066 	mov	r3, #102, 0	; 0x66
 680606c:	e59f2014 	ldr	r2, [pc, #20]	; 6806088 <kmalloc_aligned+0xec>
 6806070:	e59f1014 	ldr	r1, [pc, #20]	; 680608c <kmalloc_aligned+0xf0>
 6806074:	e59f002c 	ldr	r0, [pc, #44]	; 68060a8 <kmalloc_aligned+0x10c>
 6806078:	eb000185 	bl	6806694 <printk>
 680607c:	eb0002db 	bl	6806bf0 <clean_reboot>
 6806080:	0680a6f8 	.word	0x0680a6f8
 6806084:	0680941c 	.word	0x0680941c
 6806088:	06809ae4 	.word	0x06809ae4
 680608c:	068098a4 	.word	0x068098a4
 6806090:	0680745c 	.word	0x0680745c
 6806094:	06809a40 	.word	0x06809a40
 6806098:	06809a00 	.word	0x06809a00
 680609c:	06809a54 	.word	0x06809a54
 68060a0:	06809af4 	.word	0x06809af4
 68060a4:	06809a98 	.word	0x06809a98
 68060a8:	06809a60 	.word	0x06809a60

068060ac <kfree_all>:
 68060ac:	e59f3008 	ldr	r3, [pc, #8]	; 68060bc <kfree_all+0x10>
 68060b0:	e5932004 	ldr	r2, [r3, #4]
 68060b4:	e5832008 	str	r2, [r3, #8]
 68060b8:	e12fff1e 	bx	lr
 68060bc:	0680a6f8 	.word	0x0680a6f8

068060c0 <gpio_set_on>:
 68060c0:	e350002f 	cmp	r0, #47, 0	; 0x2f
 68060c4:	1350001f 	cmpne	r0, #31, 0
 68060c8:	812fff1e 	bxhi	lr
 68060cc:	e92d4010 	push	{r4, lr}
 68060d0:	e59f3018 	ldr	r3, [pc, #24]	; 68060f0 <gpio_set_on+0x30>
 68060d4:	e08332a0 	add	r3, r3, r0, lsr #5
 68060d8:	e200001f 	and	r0, r0, #31, 0
 68060dc:	e3a01001 	mov	r1, #1, 0
 68060e0:	e1a01011 	lsl	r1, r1, r0
 68060e4:	e1a00103 	lsl	r0, r3, #2
 68060e8:	ebffe7c9 	bl	6800014 <PUT32>
 68060ec:	e8bd8010 	pop	{r4, pc}
 68060f0:	08080007 	.word	0x08080007

068060f4 <gpio_set_off>:
 68060f4:	e350002f 	cmp	r0, #47, 0	; 0x2f
 68060f8:	1350001f 	cmpne	r0, #31, 0
 68060fc:	812fff1e 	bxhi	lr
 6806100:	e92d4010 	push	{r4, lr}
 6806104:	e59f3018 	ldr	r3, [pc, #24]	; 6806124 <gpio_set_off+0x30>
 6806108:	e08332a0 	add	r3, r3, r0, lsr #5
 680610c:	e200001f 	and	r0, r0, #31, 0
 6806110:	e3a01001 	mov	r1, #1, 0
 6806114:	e1a01011 	lsl	r1, r1, r0
 6806118:	e1a00103 	lsl	r0, r3, #2
 680611c:	ebffe7bc 	bl	6800014 <PUT32>
 6806120:	e8bd8010 	pop	{r4, pc}
 6806124:	0808000a 	.word	0x0808000a

06806128 <gpio_write>:
 6806128:	e92d4010 	push	{r4, lr}
 680612c:	e3510000 	cmp	r1, #0, 0
 6806130:	0a000001 	beq	680613c <gpio_write+0x14>
 6806134:	ebffffe1 	bl	68060c0 <gpio_set_on>
 6806138:	e8bd8010 	pop	{r4, pc}
 680613c:	ebffffec 	bl	68060f4 <gpio_set_off>
 6806140:	e8bd8010 	pop	{r4, pc}

06806144 <gpio_read>:
 6806144:	e350001f 	cmp	r0, #31, 0
 6806148:	8a000008 	bhi	6806170 <gpio_read+0x2c>
 680614c:	e92d4010 	push	{r4, lr}
 6806150:	e1a04000 	mov	r4, r0
 6806154:	e59f001c 	ldr	r0, [pc, #28]	; 6806178 <gpio_read+0x34>
 6806158:	e08002a4 	add	r0, r0, r4, lsr #5
 680615c:	e1a00100 	lsl	r0, r0, #2
 6806160:	ebffe7ad 	bl	680001c <GET32>
 6806164:	e1a00430 	lsr	r0, r0, r4
 6806168:	e2000001 	and	r0, r0, #1, 0
 680616c:	e8bd8010 	pop	{r4, pc}
 6806170:	e3e00000 	mvn	r0, #0, 0
 6806174:	e12fff1e 	bx	lr
 6806178:	0808000d 	.word	0x0808000d

0680617c <gpio_set_function>:
 680617c:	e350002f 	cmp	r0, #47, 0	; 0x2f
 6806180:	1350001f 	cmpne	r0, #31, 0
 6806184:	812fff1e 	bxhi	lr
 6806188:	e92d40f0 	push	{r4, r5, r6, r7, lr}
 680618c:	e24dd00c 	sub	sp, sp, #12, 0
 6806190:	e1a04000 	mov	r4, r0
 6806194:	e1a06001 	mov	r6, r1
 6806198:	e3510007 	cmp	r1, #7, 0
 680619c:	9a000001 	bls	68061a8 <gpio_set_function+0x2c>
 68061a0:	e28dd00c 	add	sp, sp, #12, 0
 68061a4:	e8bd80f0 	pop	{r4, r5, r6, r7, pc}
 68061a8:	e59f5044 	ldr	r5, [pc, #68]	; 68061f4 <gpio_set_function+0x78>
 68061ac:	e0853095 	umull	r3, r5, r5, r0
 68061b0:	e1a051a5 	lsr	r5, r5, #3
 68061b4:	e2857302 	add	r7, r5, #134217728	; 0x8000000
 68061b8:	e2877702 	add	r7, r7, #524288	; 0x80000
 68061bc:	e1a07107 	lsl	r7, r7, #2
 68061c0:	e1a00007 	mov	r0, r7
 68061c4:	ebffe794 	bl	680001c <GET32>
 68061c8:	e58d0004 	str	r0, [sp, #4]
 68061cc:	e0855105 	add	r5, r5, r5, lsl #2
 68061d0:	e0444085 	sub	r4, r4, r5, lsl #1
 68061d4:	e0844084 	add	r4, r4, r4, lsl #1
 68061d8:	e59d1004 	ldr	r1, [sp, #4]
 68061dc:	e3a03007 	mov	r3, #7, 0
 68061e0:	e1c11413 	bic	r1, r1, r3, lsl r4
 68061e4:	e1811416 	orr	r1, r1, r6, lsl r4
 68061e8:	e1a00007 	mov	r0, r7
 68061ec:	ebffe788 	bl	6800014 <PUT32>
 68061f0:	eaffffea 	b	68061a0 <gpio_set_function+0x24>
 68061f4:	cccccccd 	.word	0xcccccccd

068061f8 <gpio_set_output>:
 68061f8:	e92d4010 	push	{r4, lr}
 68061fc:	e3a01001 	mov	r1, #1, 0
 6806200:	ebffffdd 	bl	680617c <gpio_set_function>
 6806204:	e8bd8010 	pop	{r4, pc}

06806208 <gpio_set_input>:
 6806208:	e92d4010 	push	{r4, lr}
 680620c:	e3a01000 	mov	r1, #0, 0
 6806210:	ebffffd9 	bl	680617c <gpio_set_function>
 6806214:	e8bd8010 	pop	{r4, pc}

06806218 <uart_init>:
 6806218:	e92d4010 	push	{r4, lr}
 680621c:	e24dd008 	sub	sp, sp, #8, 0
 6806220:	eb0002e3 	bl	6806db4 <dev_barrier>
 6806224:	e3a01002 	mov	r1, #2, 0
 6806228:	e3a0000e 	mov	r0, #14, 0
 680622c:	ebffffd2 	bl	680617c <gpio_set_function>
 6806230:	e3a01002 	mov	r1, #2, 0
 6806234:	e3a0000f 	mov	r0, #15, 0
 6806238:	ebffffcf 	bl	680617c <gpio_set_function>
 680623c:	eb0002dc 	bl	6806db4 <dev_barrier>
 6806240:	e59f4080 	ldr	r4, [pc, #128]	; 68062c8 <uart_init+0xb0>
 6806244:	e1a00004 	mov	r0, r4
 6806248:	ebffe773 	bl	680001c <GET32>
 680624c:	e58d0004 	str	r0, [sp, #4]
 6806250:	e59d1004 	ldr	r1, [sp, #4]
 6806254:	e3811001 	orr	r1, r1, #1, 0
 6806258:	e1a00004 	mov	r0, r4
 680625c:	ebffe76c 	bl	6800014 <PUT32>
 6806260:	eb0002d3 	bl	6806db4 <dev_barrier>
 6806264:	e284405c 	add	r4, r4, #92, 0	; 0x5c
 6806268:	e3a01000 	mov	r1, #0, 0
 680626c:	e1a00004 	mov	r0, r4
 6806270:	ebffe767 	bl	6800014 <PUT32>
 6806274:	e3a01000 	mov	r1, #0, 0
 6806278:	e59f004c 	ldr	r0, [pc, #76]	; 68062cc <uart_init+0xb4>
 680627c:	ebffe764 	bl	6800014 <PUT32>
 6806280:	e3a01006 	mov	r1, #6, 0
 6806284:	e59f0044 	ldr	r0, [pc, #68]	; 68062d0 <uart_init+0xb8>
 6806288:	ebffe761 	bl	6800014 <PUT32>
 680628c:	e3a01003 	mov	r1, #3, 0
 6806290:	e59f003c 	ldr	r0, [pc, #60]	; 68062d4 <uart_init+0xbc>
 6806294:	ebffe75e 	bl	6800014 <PUT32>
 6806298:	e3a01000 	mov	r1, #0, 0
 680629c:	e59f0034 	ldr	r0, [pc, #52]	; 68062d8 <uart_init+0xc0>
 68062a0:	ebffe75b 	bl	6800014 <PUT32>
 68062a4:	e59f1030 	ldr	r1, [pc, #48]	; 68062dc <uart_init+0xc4>
 68062a8:	e59f0030 	ldr	r0, [pc, #48]	; 68062e0 <uart_init+0xc8>
 68062ac:	ebffe758 	bl	6800014 <PUT32>
 68062b0:	e3a01003 	mov	r1, #3, 0
 68062b4:	e1a00004 	mov	r0, r4
 68062b8:	ebffe755 	bl	6800014 <PUT32>
 68062bc:	eb0002bc 	bl	6806db4 <dev_barrier>
 68062c0:	e28dd008 	add	sp, sp, #8, 0
 68062c4:	e8bd8010 	pop	{r4, pc}
 68062c8:	20215004 	.word	0x20215004
 68062cc:	20215044 	.word	0x20215044
 68062d0:	20215048 	.word	0x20215048
 68062d4:	2021504c 	.word	0x2021504c
 68062d8:	20215050 	.word	0x20215050
 68062dc:	0000010e 	.word	0x0000010e
 68062e0:	20215068 	.word	0x20215068

068062e4 <uart_can_put8>:
 68062e4:	e92d4010 	push	{r4, lr}
 68062e8:	e59f0008 	ldr	r0, [pc, #8]	; 68062f8 <uart_can_put8+0x14>
 68062ec:	ebffe74a 	bl	680001c <GET32>
 68062f0:	e2000002 	and	r0, r0, #2, 0
 68062f4:	e8bd8010 	pop	{r4, pc}
 68062f8:	20215064 	.word	0x20215064

068062fc <uart_put8>:
 68062fc:	e92d4010 	push	{r4, lr}
 6806300:	e1a04000 	mov	r4, r0
 6806304:	eb0002aa 	bl	6806db4 <dev_barrier>
 6806308:	ebfffff5 	bl	68062e4 <uart_can_put8>
 680630c:	e3500000 	cmp	r0, #0, 0
 6806310:	1a000001 	bne	680631c <uart_put8+0x20>
 6806314:	eb0002ba 	bl	6806e04 <rpi_wait>
 6806318:	eafffffa 	b	6806308 <uart_put8+0xc>
 680631c:	e1a01004 	mov	r1, r4
 6806320:	e59f000c 	ldr	r0, [pc, #12]	; 6806334 <uart_put8+0x38>
 6806324:	ebffe73a 	bl	6800014 <PUT32>
 6806328:	eb0002a1 	bl	6806db4 <dev_barrier>
 680632c:	e3a00001 	mov	r0, #1, 0
 6806330:	e8bd8010 	pop	{r4, pc}
 6806334:	20215040 	.word	0x20215040

06806338 <uart_has_data>:
 6806338:	e92d4010 	push	{r4, lr}
 680633c:	e59f0008 	ldr	r0, [pc, #8]	; 680634c <uart_has_data+0x14>
 6806340:	ebffe735 	bl	680001c <GET32>
 6806344:	e2000001 	and	r0, r0, #1, 0
 6806348:	e8bd8010 	pop	{r4, pc}
 680634c:	20215064 	.word	0x20215064

06806350 <uart_get8>:
 6806350:	e92d4010 	push	{r4, lr}
 6806354:	eb000296 	bl	6806db4 <dev_barrier>
 6806358:	ebfffff6 	bl	6806338 <uart_has_data>
 680635c:	e3500000 	cmp	r0, #0, 0
 6806360:	1a000001 	bne	680636c <uart_get8+0x1c>
 6806364:	eb0002a6 	bl	6806e04 <rpi_wait>
 6806368:	eafffffa 	b	6806358 <uart_get8+0x8>
 680636c:	e59f0010 	ldr	r0, [pc, #16]	; 6806384 <uart_get8+0x34>
 6806370:	ebffe729 	bl	680001c <GET32>
 6806374:	e6ef4070 	uxtb	r4, r0
 6806378:	eb00028d 	bl	6806db4 <dev_barrier>
 680637c:	e1a00004 	mov	r0, r4
 6806380:	e8bd8010 	pop	{r4, pc}
 6806384:	20215040 	.word	0x20215040

06806388 <uart_get8_async>:
 6806388:	e92d4010 	push	{r4, lr}
 680638c:	eb000288 	bl	6806db4 <dev_barrier>
 6806390:	ebffffe8 	bl	6806338 <uart_has_data>
 6806394:	e3500000 	cmp	r0, #0, 0
 6806398:	0a000001 	beq	68063a4 <uart_get8_async+0x1c>
 680639c:	ebffffeb 	bl	6806350 <uart_get8>
 68063a0:	e8bd8010 	pop	{r4, pc}
 68063a4:	e3e00000 	mvn	r0, #0, 0
 68063a8:	e8bd8010 	pop	{r4, pc}

068063ac <uart_tx_is_empty>:
 68063ac:	e92d4010 	push	{r4, lr}
 68063b0:	e59f000c 	ldr	r0, [pc, #12]	; 68063c4 <uart_tx_is_empty+0x18>
 68063b4:	ebffe718 	bl	680001c <GET32>
 68063b8:	e1a004a0 	lsr	r0, r0, #9
 68063bc:	e2000001 	and	r0, r0, #1, 0
 68063c0:	e8bd8010 	pop	{r4, pc}
 68063c4:	20215064 	.word	0x20215064

068063c8 <uart_flush_tx>:
 68063c8:	e92d4010 	push	{r4, lr}
 68063cc:	ebfffff6 	bl	68063ac <uart_tx_is_empty>
 68063d0:	e3500000 	cmp	r0, #0, 0
 68063d4:	18bd8010 	popne	{r4, pc}
 68063d8:	eb000289 	bl	6806e04 <rpi_wait>
 68063dc:	eafffffa 	b	68063cc <uart_flush_tx+0x4>

068063e0 <uart_disable>:
 68063e0:	e92d4010 	push	{r4, lr}
 68063e4:	e24dd008 	sub	sp, sp, #8, 0
 68063e8:	eb000271 	bl	6806db4 <dev_barrier>
 68063ec:	ebfffff5 	bl	68063c8 <uart_flush_tx>
 68063f0:	e59f4024 	ldr	r4, [pc, #36]	; 680641c <uart_disable+0x3c>
 68063f4:	e1a00004 	mov	r0, r4
 68063f8:	ebffe707 	bl	680001c <GET32>
 68063fc:	e58d0004 	str	r0, [sp, #4]
 6806400:	e59d1004 	ldr	r1, [sp, #4]
 6806404:	e2011006 	and	r1, r1, #6, 0
 6806408:	e1a00004 	mov	r0, r4
 680640c:	ebffe700 	bl	6800014 <PUT32>
 6806410:	eb000267 	bl	6806db4 <dev_barrier>
 6806414:	e28dd008 	add	sp, sp, #8, 0
 6806418:	e8bd8010 	pop	{r4, pc}
 680641c:	20215004 	.word	0x20215004

06806420 <our_crc32_inc>:
 6806420:	e1e02002 	mvn	r2, r2
 6806424:	e241c001 	sub	ip, r1, #1, 0
 6806428:	e3510000 	cmp	r1, #0, 0
 680642c:	0a000007 	beq	6806450 <our_crc32_inc+0x30>
 6806430:	e4d03001 	ldrb	r3, [r0], #1
 6806434:	e0233002 	eor	r3, r3, r2
 6806438:	e6ef3073 	uxtb	r3, r3
 680643c:	e59f1014 	ldr	r1, [pc, #20]	; 6806458 <our_crc32_inc+0x38>
 6806440:	e7913103 	ldr	r3, [r1, r3, lsl #2]
 6806444:	e0232422 	eor	r2, r3, r2, lsr #8
 6806448:	e1a0100c 	mov	r1, ip
 680644c:	eafffff4 	b	6806424 <our_crc32_inc+0x4>
 6806450:	e1e00002 	mvn	r0, r2
 6806454:	e12fff1e 	bx	lr
 6806458:	06809afc 	.word	0x06809afc

0680645c <our_crc32>:
 680645c:	e92d4010 	push	{r4, lr}
 6806460:	e3a02000 	mov	r2, #0, 0
 6806464:	ebffffed 	bl	6806420 <our_crc32_inc>
 6806468:	e8bd8010 	pop	{r4, pc}

0680646c <memcmp>:
 680646c:	e52de004 	push	{lr}		; (str lr, [sp, #-4]!)
 6806470:	e1a0e000 	mov	lr, r0
 6806474:	e3a03000 	mov	r3, #0, 0
 6806478:	e1530002 	cmp	r3, r2
 680647c:	2a000005 	bcs	6806498 <memcmp+0x2c>
 6806480:	e7dec003 	ldrb	ip, [lr, r3]
 6806484:	e7d10003 	ldrb	r0, [r1, r3]
 6806488:	e05c0000 	subs	r0, ip, r0
 680648c:	149df004 	popne	{pc}		; (ldrne pc, [sp], #4)
 6806490:	e2833001 	add	r3, r3, #1, 0
 6806494:	eafffff7 	b	6806478 <memcmp+0xc>
 6806498:	e3a00000 	mov	r0, #0, 0
 680649c:	e49df004 	pop	{pc}		; (ldr pc, [sp], #4)

068064a0 <memcpy256>:
 68064a0:	e92d40f0 	push	{r4, r5, r6, r7, lr}
 68064a4:	e24dd00c 	sub	sp, sp, #12, 0
 68064a8:	e212401f 	ands	r4, r2, #31, 0
 68064ac:	01a06000 	moveq	r6, r0
 68064b0:	01a07001 	moveq	r7, r1
 68064b4:	01a052a2 	lsreq	r5, r2, #5
 68064b8:	0a00000f 	beq	68064fc <memcpy256+0x5c>
 68064bc:	e3a03020 	mov	r3, #32, 0
 68064c0:	e58d3004 	str	r3, [sp, #4]
 68064c4:	e58d2000 	str	r2, [sp]
 68064c8:	e3a0300f 	mov	r3, #15, 0
 68064cc:	e59f2038 	ldr	r2, [pc, #56]	; 680650c <memcpy256+0x6c>
 68064d0:	e59f1038 	ldr	r1, [pc, #56]	; 6806510 <memcpy256+0x70>
 68064d4:	e59f0038 	ldr	r0, [pc, #56]	; 6806514 <memcpy256+0x74>
 68064d8:	eb00006d 	bl	6806694 <printk>
 68064dc:	eb0001c3 	bl	6806bf0 <clean_reboot>
 68064e0:	e086c284 	add	ip, r6, r4, lsl #5
 68064e4:	e087e284 	add	lr, r7, r4, lsl #5
 68064e8:	e8be000f 	ldm	lr!, {r0, r1, r2, r3}
 68064ec:	e8ac000f 	stmia	ip!, {r0, r1, r2, r3}
 68064f0:	e89e000f 	ldm	lr, {r0, r1, r2, r3}
 68064f4:	e88c000f 	stm	ip, {r0, r1, r2, r3}
 68064f8:	e2844001 	add	r4, r4, #1, 0
 68064fc:	e1540005 	cmp	r4, r5
 6806500:	3afffff6 	bcc	68064e0 <memcpy256+0x40>
 6806504:	e28dd00c 	add	sp, sp, #12, 0
 6806508:	e8bd80f0 	pop	{r4, r5, r6, r7, pc}
 680650c:	06809f48 	.word	0x06809f48
 6806510:	06809efc 	.word	0x06809efc
 6806514:	06809f0c 	.word	0x06809f0c

06806518 <memcpy>:
 6806518:	e3100007 	tst	r0, #7, 0
 680651c:	1a00000f 	bne	6806560 <memcpy+0x48>
 6806520:	e3110007 	tst	r1, #7, 0
 6806524:	1a00000d 	bne	6806560 <memcpy+0x48>
 6806528:	e2123007 	ands	r3, r2, #7, 0
 680652c:	1a00000b 	bne	6806560 <memcpy+0x48>
 6806530:	e1a021a2 	lsr	r2, r2, #3
 6806534:	e1530002 	cmp	r3, r2
 6806538:	212fff1e 	bxcs	lr
 680653c:	e92d0030 	push	{r4, r5}
 6806540:	e1a0c183 	lsl	ip, r3, #3
 6806544:	e18140dc 	ldrd	r4, [r1, ip]
 6806548:	e18040fc 	strd	r4, [r0, ip]
 680654c:	e2833001 	add	r3, r3, #1, 0
 6806550:	e1530002 	cmp	r3, r2
 6806554:	3afffff9 	bcc	6806540 <memcpy+0x28>
 6806558:	e8bd0030 	pop	{r4, r5}
 680655c:	e12fff1e 	bx	lr
 6806560:	e2103003 	ands	r3, r0, #3, 0
 6806564:	1a000011 	bne	68065b0 <memcpy+0x98>
 6806568:	e211c003 	ands	ip, r1, #3, 0
 680656c:	1a00000c 	bne	68065a4 <memcpy+0x8c>
 6806570:	e2123003 	ands	r3, r2, #3, 0
 6806574:	1a00000f 	bne	68065b8 <memcpy+0xa0>
 6806578:	e1a02122 	lsr	r2, r2, #2
 680657c:	ea000002 	b	680658c <memcpy+0x74>
 6806580:	e791c103 	ldr	ip, [r1, r3, lsl #2]
 6806584:	e780c103 	str	ip, [r0, r3, lsl #2]
 6806588:	e2833001 	add	r3, r3, #1, 0
 680658c:	e1530002 	cmp	r3, r2
 6806590:	3afffffa 	bcc	6806580 <memcpy+0x68>
 6806594:	e12fff1e 	bx	lr
 6806598:	e7d1c003 	ldrb	ip, [r1, r3]
 680659c:	e7c0c003 	strb	ip, [r0, r3]
 68065a0:	e2833001 	add	r3, r3, #1, 0
 68065a4:	e1530002 	cmp	r3, r2
 68065a8:	3afffffa 	bcc	6806598 <memcpy+0x80>
 68065ac:	e12fff1e 	bx	lr
 68065b0:	e3a03000 	mov	r3, #0, 0
 68065b4:	eafffffa 	b	68065a4 <memcpy+0x8c>
 68065b8:	e1a0300c 	mov	r3, ip
 68065bc:	eafffff8 	b	68065a4 <memcpy+0x8c>

068065c0 <memcpy_end>:
 68065c0:	e12fff1e 	bx	lr

068065c4 <memiszero>:
 68065c4:	e3a03000 	mov	r3, #0, 0
 68065c8:	e1530001 	cmp	r3, r1
 68065cc:	2a000004 	bcs	68065e4 <memiszero+0x20>
 68065d0:	e7d02003 	ldrb	r2, [r0, r3]
 68065d4:	e3520000 	cmp	r2, #0, 0
 68065d8:	1a000003 	bne	68065ec <memiszero+0x28>
 68065dc:	e2833001 	add	r3, r3, #1, 0
 68065e0:	eafffff8 	b	68065c8 <memiszero+0x4>
 68065e4:	e3a00001 	mov	r0, #1, 0
 68065e8:	e12fff1e 	bx	lr
 68065ec:	e3a00000 	mov	r0, #0, 0
 68065f0:	e12fff1e 	bx	lr

068065f4 <memset>:
 68065f4:	e3520000 	cmp	r2, #0, 0
 68065f8:	012fff1e 	bxeq	lr
 68065fc:	e3510000 	cmp	r1, #0, 0
 6806600:	1a000007 	bne	6806624 <memset+0x30>
 6806604:	e3100007 	tst	r0, #7, 0
 6806608:	1a000001 	bne	6806614 <memset+0x20>
 680660c:	e3120007 	tst	r2, #7, 0
 6806610:	0a000011 	beq	680665c <memset+0x68>
 6806614:	e3100003 	tst	r0, #3, 0
 6806618:	1a000001 	bne	6806624 <memset+0x30>
 680661c:	e3120003 	tst	r2, #3, 0
 6806620:	0a000001 	beq	680662c <memset+0x38>
 6806624:	e0802002 	add	r2, r0, r2
 6806628:	ea000008 	b	6806650 <memset+0x5c>
 680662c:	e1a02122 	lsr	r2, r2, #2
 6806630:	ea000001 	b	680663c <memset+0x48>
 6806634:	e4801004 	str	r1, [r0], #4
 6806638:	e1a02003 	mov	r2, r3
 680663c:	e2423001 	sub	r3, r2, #1, 0
 6806640:	e3520000 	cmp	r2, #0, 0
 6806644:	1afffffa 	bne	6806634 <memset+0x40>
 6806648:	e12fff1e 	bx	lr
 680664c:	e4c01001 	strb	r1, [r0], #1
 6806650:	e1500002 	cmp	r0, r2
 6806654:	3afffffc 	bcc	680664c <memset+0x58>
 6806658:	e12fff1e 	bx	lr
 680665c:	e1a021a2 	lsr	r2, r2, #3
 6806660:	e2423001 	sub	r3, r2, #1, 0
 6806664:	e3520000 	cmp	r2, #0, 0
 6806668:	012fff1e 	bxeq	lr
 680666c:	e92d0030 	push	{r4, r5}
 6806670:	e1a04001 	mov	r4, r1
 6806674:	e1a05fc1 	asr	r5, r1, #31
 6806678:	e0c040f8 	strd	r4, [r0], #8
 680667c:	e1a02003 	mov	r2, r3
 6806680:	e2433001 	sub	r3, r3, #1, 0
 6806684:	e3520000 	cmp	r2, #0, 0
 6806688:	1afffff8 	bne	6806670 <memset+0x7c>
 680668c:	e8bd0030 	pop	{r4, r5}
 6806690:	e12fff1e 	bx	lr

06806694 <printk>:
 6806694:	e92d000f 	push	{r0, r1, r2, r3}
 6806698:	e52de004 	push	{lr}		; (str lr, [sp, #-4]!)
 680669c:	e24dd00c 	sub	sp, sp, #12, 0
 68066a0:	e28d1014 	add	r1, sp, #20, 0
 68066a4:	e58d1004 	str	r1, [sp, #4]
 68066a8:	e59d0010 	ldr	r0, [sp, #16]
 68066ac:	eb000047 	bl	68067d0 <vprintk>
 68066b0:	e28dd00c 	add	sp, sp, #12, 0
 68066b4:	e49de004 	pop	{lr}		; (ldr lr, [sp], #4)
 68066b8:	e28dd010 	add	sp, sp, #16, 0
 68066bc:	e12fff1e 	bx	lr

068066c0 <emit_val>:
 68066c0:	e92d4010 	push	{r4, lr}
 68066c4:	e24dd030 	sub	sp, sp, #48, 0	; 0x30
 68066c8:	e350000a 	cmp	r0, #10, 0
 68066cc:	0a000014 	beq	6806724 <emit_val+0x64>
 68066d0:	e3500010 	cmp	r0, #16, 0
 68066d4:	0a000022 	beq	6806764 <emit_val+0xa4>
 68066d8:	e3500002 	cmp	r0, #2, 0
 68066dc:	0a000006 	beq	68066fc <emit_val+0x3c>
 68066e0:	e58d0000 	str	r0, [sp]
 68066e4:	e3a0301b 	mov	r3, #27, 0
 68066e8:	e59f20c0 	ldr	r2, [pc, #192]	; 68067b0 <emit_val+0xf0>
 68066ec:	e59f10c0 	ldr	r1, [pc, #192]	; 68067b4 <emit_val+0xf4>
 68066f0:	e59f00c0 	ldr	r0, [pc, #192]	; 68067b8 <emit_val+0xf8>
 68066f4:	ebffffe6 	bl	6806694 <printk>
 68066f8:	eb00013c 	bl	6806bf0 <clean_reboot>
 68066fc:	e28d400c 	add	r4, sp, #12, 0
 6806700:	e2012001 	and	r2, r1, #1, 0
 6806704:	e59f00b0 	ldr	r0, [pc, #176]	; 68067bc <emit_val+0xfc>
 6806708:	e7d02002 	ldrb	r2, [r0, r2]
 680670c:	e5c42000 	strb	r2, [r4]
 6806710:	e2844001 	add	r4, r4, #1, 0
 6806714:	e3510001 	cmp	r1, #1, 0
 6806718:	e1a010a1 	lsr	r1, r1, #1
 680671c:	8afffff7 	bhi	6806700 <emit_val+0x40>
 6806720:	ea00001d 	b	680679c <emit_val+0xdc>
 6806724:	e28d400c 	add	r4, sp, #12, 0
 6806728:	e59f3090 	ldr	r3, [pc, #144]	; 68067c0 <emit_val+0x100>
 680672c:	e0832193 	umull	r2, r3, r3, r1
 6806730:	e1a031a3 	lsr	r3, r3, #3
 6806734:	e1a00003 	mov	r0, r3
 6806738:	e0833103 	add	r3, r3, r3, lsl #2
 680673c:	e0413083 	sub	r3, r1, r3, lsl #1
 6806740:	e59fc07c 	ldr	ip, [pc, #124]	; 68067c4 <emit_val+0x104>
 6806744:	e7dcc003 	ldrb	ip, [ip, r3]
 6806748:	e5c4c000 	strb	ip, [r4]
 680674c:	e2844001 	add	r4, r4, #1, 0
 6806750:	e1a03001 	mov	r3, r1
 6806754:	e1a01000 	mov	r1, r0
 6806758:	e3530009 	cmp	r3, #9, 0
 680675c:	8afffff1 	bhi	6806728 <emit_val+0x68>
 6806760:	ea00000d 	b	680679c <emit_val+0xdc>
 6806764:	e28d400c 	add	r4, sp, #12, 0
 6806768:	e201200f 	and	r2, r1, #15, 0
 680676c:	e59f0054 	ldr	r0, [pc, #84]	; 68067c8 <emit_val+0x108>
 6806770:	e7d02002 	ldrb	r2, [r0, r2]
 6806774:	e5c42000 	strb	r2, [r4]
 6806778:	e2844001 	add	r4, r4, #1, 0
 680677c:	e351000f 	cmp	r1, #15, 0
 6806780:	e1a01221 	lsr	r1, r1, #4
 6806784:	8afffff7 	bhi	6806768 <emit_val+0xa8>
 6806788:	ea000003 	b	680679c <emit_val+0xdc>
 680678c:	e59f3038 	ldr	r3, [pc, #56]	; 68067cc <emit_val+0x10c>
 6806790:	e5933000 	ldr	r3, [r3]
 6806794:	e5740001 	ldrb	r0, [r4, #-1]!
 6806798:	e12fff33 	blx	r3
 680679c:	e28d300c 	add	r3, sp, #12, 0
 68067a0:	e1540003 	cmp	r4, r3
 68067a4:	8afffff8 	bhi	680678c <emit_val+0xcc>
 68067a8:	e28dd030 	add	sp, sp, #48, 0	; 0x30
 68067ac:	e8bd8010 	pop	{r4, pc}
 68067b0:	0680a00c 	.word	0x0680a00c
 68067b4:	06809f54 	.word	0x06809f54
 68067b8:	06809f64 	.word	0x06809f64
 68067bc:	06809f88 	.word	0x06809f88
 68067c0:	cccccccd 	.word	0xcccccccd
 68067c4:	06809f8c 	.word	0x06809f8c
 68067c8:	06809f98 	.word	0x06809f98
 68067cc:	068073dc 	.word	0x068073dc

068067d0 <vprintk>:
 68067d0:	e92d4030 	push	{r4, r5, lr}
 68067d4:	e24dd014 	sub	sp, sp, #20, 0
 68067d8:	e1a04000 	mov	r4, r0
 68067dc:	e58d100c 	str	r1, [sp, #12]
 68067e0:	ea000003 	b	68067f4 <vprintk+0x24>
 68067e4:	e59f3288 	ldr	r3, [pc, #648]	; 6806a74 <vprintk+0x2a4>
 68067e8:	e5933000 	ldr	r3, [r3]
 68067ec:	e12fff33 	blx	r3
 68067f0:	e2844001 	add	r4, r4, #1, 0
 68067f4:	e5d40000 	ldrb	r0, [r4]
 68067f8:	e3500000 	cmp	r0, #0, 0
 68067fc:	0a00009a 	beq	6806a6c <vprintk+0x29c>
 6806800:	e3500025 	cmp	r0, #37, 0	; 0x25
 6806804:	1afffff6 	bne	68067e4 <vprintk+0x14>
 6806808:	e2845001 	add	r5, r4, #1, 0
 680680c:	e5d42001 	ldrb	r2, [r4, #1]
 6806810:	e2423062 	sub	r3, r2, #98, 0	; 0x62
 6806814:	e3530016 	cmp	r3, #22, 0
 6806818:	979ff103 	ldrls	pc, [pc, r3, lsl #2]
 680681c:	ea00008b 	b	6806a50 <vprintk+0x280>
 6806820:	0680687c 	.word	0x0680687c
 6806824:	068068bc 	.word	0x068068bc
 6806828:	068069d4 	.word	0x068069d4
 680682c:	06806a50 	.word	0x06806a50
 6806830:	06806a50 	.word	0x06806a50
 6806834:	06806a50 	.word	0x06806a50
 6806838:	06806a50 	.word	0x06806a50
 680683c:	06806a50 	.word	0x06806a50
 6806840:	06806a50 	.word	0x06806a50
 6806844:	06806a50 	.word	0x06806a50
 6806848:	068068e0 	.word	0x068068e0
 680684c:	06806a50 	.word	0x06806a50
 6806850:	06806a50 	.word	0x06806a50
 6806854:	06806a50 	.word	0x06806a50
 6806858:	06806998 	.word	0x06806998
 680685c:	06806a50 	.word	0x06806a50
 6806860:	06806a50 	.word	0x06806a50
 6806864:	06806a18 	.word	0x06806a18
 6806868:	06806a50 	.word	0x06806a50
 680686c:	0680689c 	.word	0x0680689c
 6806870:	06806a50 	.word	0x06806a50
 6806874:	06806a50 	.word	0x06806a50
 6806878:	06806998 	.word	0x06806998
 680687c:	e59d300c 	ldr	r3, [sp, #12]
 6806880:	e2832004 	add	r2, r3, #4, 0
 6806884:	e58d200c 	str	r2, [sp, #12]
 6806888:	e5931000 	ldr	r1, [r3]
 680688c:	e3a00002 	mov	r0, #2, 0
 6806890:	ebffff8a 	bl	68066c0 <emit_val>
 6806894:	e1a04005 	mov	r4, r5
 6806898:	eaffffd4 	b	68067f0 <vprintk+0x20>
 680689c:	e59d300c 	ldr	r3, [sp, #12]
 68068a0:	e2832004 	add	r2, r3, #4, 0
 68068a4:	e58d200c 	str	r2, [sp, #12]
 68068a8:	e5931000 	ldr	r1, [r3]
 68068ac:	e3a0000a 	mov	r0, #10, 0
 68068b0:	ebffff82 	bl	68066c0 <emit_val>
 68068b4:	e1a04005 	mov	r4, r5
 68068b8:	eaffffcc 	b	68067f0 <vprintk+0x20>
 68068bc:	e59f31b0 	ldr	r3, [pc, #432]	; 6806a74 <vprintk+0x2a4>
 68068c0:	e5932000 	ldr	r2, [r3]
 68068c4:	e59d300c 	ldr	r3, [sp, #12]
 68068c8:	e2831004 	add	r1, r3, #4, 0
 68068cc:	e58d100c 	str	r1, [sp, #12]
 68068d0:	e5930000 	ldr	r0, [r3]
 68068d4:	e12fff32 	blx	r2
 68068d8:	e1a04005 	mov	r4, r5
 68068dc:	eaffffc3 	b	68067f0 <vprintk+0x20>
 68068e0:	e2842002 	add	r2, r4, #2, 0
 68068e4:	e5d43002 	ldrb	r3, [r4, #2]
 68068e8:	e353006c 	cmp	r3, #108, 0	; 0x6c
 68068ec:	1a000018 	bne	6806954 <vprintk+0x184>
 68068f0:	e2845003 	add	r5, r4, #3, 0
 68068f4:	e5d43003 	ldrb	r3, [r4, #3]
 68068f8:	e3530078 	cmp	r3, #120, 0	; 0x78
 68068fc:	1a00001b 	bne	6806970 <vprintk+0x1a0>
 6806900:	e59f416c 	ldr	r4, [pc, #364]	; 6806a74 <vprintk+0x2a4>
 6806904:	e5943000 	ldr	r3, [r4]
 6806908:	e3a00030 	mov	r0, #48, 0	; 0x30
 680690c:	e12fff33 	blx	r3
 6806910:	e5943000 	ldr	r3, [r4]
 6806914:	e3a00078 	mov	r0, #120, 0	; 0x78
 6806918:	e12fff33 	blx	r3
 680691c:	e59d300c 	ldr	r3, [sp, #12]
 6806920:	e2833007 	add	r3, r3, #7, 0
 6806924:	e3c33007 	bic	r3, r3, #7, 0
 6806928:	e2832008 	add	r2, r3, #8, 0
 680692c:	e58d200c 	str	r2, [sp, #12]
 6806930:	e5934000 	ldr	r4, [r3]
 6806934:	e5931004 	ldr	r1, [r3, #4]
 6806938:	e3510000 	cmp	r1, #0, 0
 680693c:	1a000012 	bne	680698c <vprintk+0x1bc>
 6806940:	e1a01004 	mov	r1, r4
 6806944:	e3a00010 	mov	r0, #16, 0
 6806948:	ebffff5c 	bl	68066c0 <emit_val>
 680694c:	e1a04005 	mov	r4, r5
 6806950:	eaffffa6 	b	68067f0 <vprintk+0x20>
 6806954:	e58d2000 	str	r2, [sp]
 6806958:	e3a0303b 	mov	r3, #59, 0	; 0x3b
 680695c:	e59f2114 	ldr	r2, [pc, #276]	; 6806a78 <vprintk+0x2a8>
 6806960:	e59f1114 	ldr	r1, [pc, #276]	; 6806a7c <vprintk+0x2ac>
 6806964:	e59f0114 	ldr	r0, [pc, #276]	; 6806a80 <vprintk+0x2b0>
 6806968:	ebffff49 	bl	6806694 <printk>
 680696c:	eb00009f 	bl	6806bf0 <clean_reboot>
 6806970:	e58d5000 	str	r5, [sp]
 6806974:	e3a0303e 	mov	r3, #62, 0	; 0x3e
 6806978:	e59f20f8 	ldr	r2, [pc, #248]	; 6806a78 <vprintk+0x2a8>
 680697c:	e59f10f8 	ldr	r1, [pc, #248]	; 6806a7c <vprintk+0x2ac>
 6806980:	e59f00f8 	ldr	r0, [pc, #248]	; 6806a80 <vprintk+0x2b0>
 6806984:	ebffff42 	bl	6806694 <printk>
 6806988:	eb000098 	bl	6806bf0 <clean_reboot>
 680698c:	e3a00010 	mov	r0, #16, 0
 6806990:	ebffff4a 	bl	68066c0 <emit_val>
 6806994:	eaffffe9 	b	6806940 <vprintk+0x170>
 6806998:	e59f40d4 	ldr	r4, [pc, #212]	; 6806a74 <vprintk+0x2a4>
 680699c:	e5943000 	ldr	r3, [r4]
 68069a0:	e3a00030 	mov	r0, #48, 0	; 0x30
 68069a4:	e12fff33 	blx	r3
 68069a8:	e5943000 	ldr	r3, [r4]
 68069ac:	e3a00078 	mov	r0, #120, 0	; 0x78
 68069b0:	e12fff33 	blx	r3
 68069b4:	e59d300c 	ldr	r3, [sp, #12]
 68069b8:	e2832004 	add	r2, r3, #4, 0
 68069bc:	e58d200c 	str	r2, [sp, #12]
 68069c0:	e5931000 	ldr	r1, [r3]
 68069c4:	e3a00010 	mov	r0, #16, 0
 68069c8:	ebffff3c 	bl	68066c0 <emit_val>
 68069cc:	e1a04005 	mov	r4, r5
 68069d0:	eaffff86 	b	68067f0 <vprintk+0x20>
 68069d4:	e59d300c 	ldr	r3, [sp, #12]
 68069d8:	e2832004 	add	r2, r3, #4, 0
 68069dc:	e58d200c 	str	r2, [sp, #12]
 68069e0:	e5934000 	ldr	r4, [r3]
 68069e4:	e3540000 	cmp	r4, #0, 0
 68069e8:	ba000004 	blt	6806a00 <vprintk+0x230>
 68069ec:	e1a01004 	mov	r1, r4
 68069f0:	e3a0000a 	mov	r0, #10, 0
 68069f4:	ebffff31 	bl	68066c0 <emit_val>
 68069f8:	e1a04005 	mov	r4, r5
 68069fc:	eaffff7b 	b	68067f0 <vprintk+0x20>
 6806a00:	e59f306c 	ldr	r3, [pc, #108]	; 6806a74 <vprintk+0x2a4>
 6806a04:	e5933000 	ldr	r3, [r3]
 6806a08:	e3a0002d 	mov	r0, #45, 0	; 0x2d
 6806a0c:	e12fff33 	blx	r3
 6806a10:	e2644000 	rsb	r4, r4, #0, 0
 6806a14:	eafffff4 	b	68069ec <vprintk+0x21c>
 6806a18:	e59d300c 	ldr	r3, [sp, #12]
 6806a1c:	e2832004 	add	r2, r3, #4, 0
 6806a20:	e58d200c 	str	r2, [sp, #12]
 6806a24:	e5934000 	ldr	r4, [r3]
 6806a28:	e5d40000 	ldrb	r0, [r4]
 6806a2c:	e3500000 	cmp	r0, #0, 0
 6806a30:	0a000004 	beq	6806a48 <vprintk+0x278>
 6806a34:	e59f3038 	ldr	r3, [pc, #56]	; 6806a74 <vprintk+0x2a4>
 6806a38:	e5933000 	ldr	r3, [r3]
 6806a3c:	e12fff33 	blx	r3
 6806a40:	e2844001 	add	r4, r4, #1, 0
 6806a44:	eafffff7 	b	6806a28 <vprintk+0x258>
 6806a48:	e1a04005 	mov	r4, r5
 6806a4c:	eaffff67 	b	68067f0 <vprintk+0x20>
 6806a50:	e58d2000 	str	r2, [sp]
 6806a54:	e3a03062 	mov	r3, #98, 0	; 0x62
 6806a58:	e59f2018 	ldr	r2, [pc, #24]	; 6806a78 <vprintk+0x2a8>
 6806a5c:	e59f1018 	ldr	r1, [pc, #24]	; 6806a7c <vprintk+0x2ac>
 6806a60:	e59f001c 	ldr	r0, [pc, #28]	; 6806a84 <vprintk+0x2b4>
 6806a64:	ebffff0a 	bl	6806694 <printk>
 6806a68:	eb000060 	bl	6806bf0 <clean_reboot>
 6806a6c:	e28dd014 	add	sp, sp, #20, 0
 6806a70:	e8bd8030 	pop	{r4, r5, pc}
 6806a74:	068073dc 	.word	0x068073dc
 6806a78:	0680a018 	.word	0x0680a018
 6806a7c:	06809f54 	.word	0x06809f54
 6806a80:	06809fac 	.word	0x06809fac
 6806a84:	06809fe4 	.word	0x06809fe4

06806a88 <default_putchar>:
 6806a88:	e92d4010 	push	{r4, lr}
 6806a8c:	e1a04000 	mov	r4, r0
 6806a90:	e6ef0070 	uxtb	r0, r0
 6806a94:	ebfffe18 	bl	68062fc <uart_put8>
 6806a98:	e1a00004 	mov	r0, r4
 6806a9c:	e8bd8010 	pop	{r4, pc}

06806aa0 <rpi_putchar_set>:
 6806aa0:	e59f300c 	ldr	r3, [pc, #12]	; 6806ab4 <rpi_putchar_set+0x14>
 6806aa4:	e5932000 	ldr	r2, [r3]
 6806aa8:	e5830000 	str	r0, [r3]
 6806aac:	e1a00002 	mov	r0, r2
 6806ab0:	e12fff1e 	bx	lr
 6806ab4:	068073dc 	.word	0x068073dc

06806ab8 <strcat>:
 6806ab8:	e1a02000 	mov	r2, r0
 6806abc:	e1a03002 	mov	r3, r2
 6806ac0:	e2822001 	add	r2, r2, #1, 0
 6806ac4:	e5d3c000 	ldrb	ip, [r3]
 6806ac8:	e35c0000 	cmp	ip, #0, 0
 6806acc:	1afffffa 	bne	6806abc <strcat+0x4>
 6806ad0:	e2433001 	sub	r3, r3, #1, 0
 6806ad4:	e5d12000 	ldrb	r2, [r1]
 6806ad8:	e2811001 	add	r1, r1, #1, 0
 6806adc:	e5e32001 	strb	r2, [r3, #1]!
 6806ae0:	e3520000 	cmp	r2, #0, 0
 6806ae4:	1afffffa 	bne	6806ad4 <strcat+0x1c>
 6806ae8:	e12fff1e 	bx	lr

06806aec <strcpy>:
 6806aec:	e1a0c000 	mov	ip, r0
 6806af0:	e5d12000 	ldrb	r2, [r1]
 6806af4:	e2811001 	add	r1, r1, #1, 0
 6806af8:	e5cc2000 	strb	r2, [ip]
 6806afc:	e28cc001 	add	ip, ip, #1, 0
 6806b00:	e3520000 	cmp	r2, #0, 0
 6806b04:	1afffff9 	bne	6806af0 <strcpy+0x4>
 6806b08:	e12fff1e 	bx	lr

06806b0c <strlen>:
 6806b0c:	e1a02000 	mov	r2, r0
 6806b10:	e3a00000 	mov	r0, #0, 0
 6806b14:	e7d23000 	ldrb	r3, [r2, r0]
 6806b18:	e3530000 	cmp	r3, #0, 0
 6806b1c:	012fff1e 	bxeq	lr
 6806b20:	e2800001 	add	r0, r0, #1, 0
 6806b24:	eafffffa 	b	6806b14 <strlen+0x8>

06806b28 <strncmp>:
 6806b28:	e3520000 	cmp	r2, #0, 0
 6806b2c:	e2422001 	sub	r2, r2, #1, 0
 6806b30:	0a000005 	beq	6806b4c <strncmp+0x24>
 6806b34:	e4d03001 	ldrb	r3, [r0], #1
 6806b38:	e4d1c001 	ldrb	ip, [r1], #1
 6806b3c:	e153000c 	cmp	r3, ip
 6806b40:	0afffff8 	beq	6806b28 <strncmp>
 6806b44:	e043000c 	sub	r0, r3, ip
 6806b48:	e12fff1e 	bx	lr
 6806b4c:	e3a00000 	mov	r0, #0, 0
 6806b50:	e12fff1e 	bx	lr

06806b54 <asm_not_reached_helper>:
 6806b54:	e92d4010 	push	{r4, lr}
 6806b58:	e1a04000 	mov	r4, r0
 6806b5c:	e59f0010 	ldr	r0, [pc, #16]	; 6806b74 <asm_not_reached_helper+0x20>
 6806b60:	ebfffecb 	bl	6806694 <printk>
 6806b64:	e1a01004 	mov	r1, r4
 6806b68:	e59f0008 	ldr	r0, [pc, #8]	; 6806b78 <asm_not_reached_helper+0x24>
 6806b6c:	ebfffec8 	bl	6806694 <printk>
 6806b70:	eb00001e 	bl	6806bf0 <clean_reboot>
 6806b74:	0680a020 	.word	0x0680a020
 6806b78:	0680a054 	.word	0x0680a054

06806b7c <asm_not_implemented_helper>:
 6806b7c:	e92d4010 	push	{r4, lr}
 6806b80:	e1a04000 	mov	r4, r0
 6806b84:	e59f0010 	ldr	r0, [pc, #16]	; 6806b9c <asm_not_implemented_helper+0x20>
 6806b88:	ebfffec1 	bl	6806694 <printk>
 6806b8c:	e1a01004 	mov	r1, r4
 6806b90:	e59f0008 	ldr	r0, [pc, #8]	; 6806ba0 <asm_not_implemented_helper+0x24>
 6806b94:	ebfffebe 	bl	6806694 <printk>
 6806b98:	eb000014 	bl	6806bf0 <clean_reboot>
 6806b9c:	0680a088 	.word	0x0680a088
 6806ba0:	0680a054 	.word	0x0680a054

06806ba4 <asm_todo_helper>:
 6806ba4:	e92d4010 	push	{r4, lr}
 6806ba8:	e1a04001 	mov	r4, r1
 6806bac:	e59f0018 	ldr	r0, [pc, #24]	; 6806bcc <asm_todo_helper+0x28>
 6806bb0:	ebfffeb7 	bl	6806694 <printk>
 6806bb4:	e59f0014 	ldr	r0, [pc, #20]	; 6806bd0 <asm_todo_helper+0x2c>
 6806bb8:	ebfffeb5 	bl	6806694 <printk>
 6806bbc:	e1a01004 	mov	r1, r4
 6806bc0:	e59f000c 	ldr	r0, [pc, #12]	; 6806bd4 <asm_todo_helper+0x30>
 6806bc4:	ebfffeb2 	bl	6806694 <printk>
 6806bc8:	eb000008 	bl	6806bf0 <clean_reboot>
 6806bcc:	0680a0b4 	.word	0x0680a0b4
 6806bd0:	0680a0ec 	.word	0x0680a0ec
 6806bd4:	0680a120 	.word	0x0680a120

06806bd8 <asm_bad_exception_helper>:
 6806bd8:	e92d4010 	push	{r4, lr}
 6806bdc:	e1a02000 	mov	r2, r0
 6806be0:	e59f0004 	ldr	r0, [pc, #4]	; 6806bec <asm_bad_exception_helper+0x14>
 6806be4:	ebfffeaa 	bl	6806694 <printk>
 6806be8:	eb000000 	bl	6806bf0 <clean_reboot>
 6806bec:	0680a128 	.word	0x0680a128

06806bf0 <clean_reboot>:
 6806bf0:	e92d4010 	push	{r4, lr}
 6806bf4:	e59f0010 	ldr	r0, [pc, #16]	; 6806c0c <clean_reboot+0x1c>
 6806bf8:	eb0000a3 	bl	6806e8c <putk>
 6806bfc:	ebfffdf1 	bl	68063c8 <uart_flush_tx>
 6806c00:	e3a0000a 	mov	r0, #10, 0
 6806c04:	eb000094 	bl	6806e5c <delay_ms>
 6806c08:	eb00006f 	bl	6806dcc <rpi_reboot>
 6806c0c:	0680a148 	.word	0x0680a148

06806c10 <program_end>:
 6806c10:	e59f0000 	ldr	r0, [pc]	; 6806c18 <program_end+0x8>
 6806c14:	e12fff1e 	bx	lr
 6806c18:	0680a908 	.word	0x0680a908

06806c1c <_cstart>:
 6806c1c:	e92d4030 	push	{r4, r5, lr}
 6806c20:	e24dd00c 	sub	sp, sp, #12, 0
 6806c24:	e59f3098 	ldr	r3, [pc, #152]	; 6806cc4 <_cstart+0xa8>
 6806c28:	e59f2098 	ldr	r2, [pc, #152]	; 6806cc8 <_cstart+0xac>
 6806c2c:	e1530002 	cmp	r3, r2
 6806c30:	33a02000 	movcc	r2, #0, 0
 6806c34:	34c32001 	strbcc	r2, [r3], #1
 6806c38:	3afffffa 	bcc	6806c28 <_cstart+0xc>
 6806c3c:	ebfffd75 	bl	6806218 <uart_init>
 6806c40:	e3a03001 	mov	r3, #1, 0
 6806c44:	ee0f3f1c 	mcr	15, 0, r3, cr15, cr12, {0}
 6806c48:	e3a02a01 	mov	r2, #4096	; 0x1000
 6806c4c:	e3a01000 	mov	r1, #0, 0
 6806c50:	e1a00001 	mov	r0, r1
 6806c54:	ebfffe66 	bl	68065f4 <memset>
 6806c58:	e3a04000 	mov	r4, #0, 0
 6806c5c:	e1a05004 	mov	r5, r4
 6806c60:	ea000005 	b	6806c7c <_cstart+0x60>
 6806c64:	e2855001 	add	r5, r5, #1, 0
 6806c68:	e5912000 	ldr	r2, [r1]
 6806c6c:	e1a03005 	mov	r3, r5
 6806c70:	e59f0054 	ldr	r0, [pc, #84]	; 6806ccc <_cstart+0xb0>
 6806c74:	ebfffe86 	bl	6806694 <printk>
 6806c78:	e2844001 	add	r4, r4, #1, 0
 6806c7c:	e3540b01 	cmp	r4, #1024	; 0x400
 6806c80:	2a000004 	bcs	6806c98 <_cstart+0x7c>
 6806c84:	e1a01104 	lsl	r1, r4, #2
 6806c88:	e5913000 	ldr	r3, [r1]
 6806c8c:	e3530000 	cmp	r3, #0, 0
 6806c90:	0afffff8 	beq	6806c78 <_cstart+0x5c>
 6806c94:	eafffff2 	b	6806c64 <_cstart+0x48>
 6806c98:	e3550000 	cmp	r5, #0, 0
 6806c9c:	1a000001 	bne	6806ca8 <_cstart+0x8c>
 6806ca0:	ebffe578 	bl	6800288 <notmain>
 6806ca4:	ebffffd1 	bl	6806bf0 <clean_reboot>
 6806ca8:	e58d5000 	str	r5, [sp]
 6806cac:	e3a0301b 	mov	r3, #27, 0
 6806cb0:	e59f2018 	ldr	r2, [pc, #24]	; 6806cd0 <_cstart+0xb4>
 6806cb4:	e59f1018 	ldr	r1, [pc, #24]	; 6806cd4 <_cstart+0xb8>
 6806cb8:	e59f0018 	ldr	r0, [pc, #24]	; 6806cd8 <_cstart+0xbc>
 6806cbc:	ebfffe74 	bl	6806694 <printk>
 6806cc0:	ebffffca 	bl	6806bf0 <clean_reboot>
 6806cc4:	0680a3c0 	.word	0x0680a3c0
 6806cc8:	0680a908 	.word	0x0680a908
 6806ccc:	0680a154 	.word	0x0680a154
 6806cd0:	0680a1f0 	.word	0x0680a1f0
 6806cd4:	0680a180 	.word	0x0680a180
 6806cd8:	0680a1c0 	.word	0x0680a1c0

06806cdc <int_vector>:
 6806cdc:	e52de004 	push	{lr}		; (str lr, [sp, #-4]!)
 6806ce0:	e24dd00c 	sub	sp, sp, #12, 0
 6806ce4:	e58d0000 	str	r0, [sp]
 6806ce8:	e3a03003 	mov	r3, #3, 0
 6806cec:	e59f200c 	ldr	r2, [pc, #12]	; 6806d00 <int_vector+0x24>
 6806cf0:	e59f100c 	ldr	r1, [pc, #12]	; 6806d04 <int_vector+0x28>
 6806cf4:	e59f000c 	ldr	r0, [pc, #12]	; 6806d08 <int_vector+0x2c>
 6806cf8:	ebfffe65 	bl	6806694 <printk>
 6806cfc:	ebffffbb 	bl	6806bf0 <clean_reboot>
 6806d00:	0680a250 	.word	0x0680a250
 6806d04:	0680a200 	.word	0x0680a200
 6806d08:	0680a224 	.word	0x0680a224

06806d0c <prefetch_abort_vector>:
 6806d0c:	e52de004 	push	{lr}		; (str lr, [sp, #-4]!)
 6806d10:	e24dd00c 	sub	sp, sp, #12, 0
 6806d14:	e58d0000 	str	r0, [sp]
 6806d18:	e3a03003 	mov	r3, #3, 0
 6806d1c:	e59f200c 	ldr	r2, [pc, #12]	; 6806d30 <prefetch_abort_vector+0x24>
 6806d20:	e59f100c 	ldr	r1, [pc, #12]	; 6806d34 <prefetch_abort_vector+0x28>
 6806d24:	e59f000c 	ldr	r0, [pc, #12]	; 6806d38 <prefetch_abort_vector+0x2c>
 6806d28:	ebfffe59 	bl	6806694 <printk>
 6806d2c:	ebffffaf 	bl	6806bf0 <clean_reboot>
 6806d30:	0680a2b4 	.word	0x0680a2b4
 6806d34:	0680a25c 	.word	0x0680a25c
 6806d38:	0680a284 	.word	0x0680a284

06806d3c <reset_vector>:
 6806d3c:	e52de004 	push	{lr}		; (str lr, [sp, #-4]!)
 6806d40:	e24dd00c 	sub	sp, sp, #12, 0
 6806d44:	e58d0000 	str	r0, [sp]
 6806d48:	e3a03003 	mov	r3, #3, 0
 6806d4c:	e59f200c 	ldr	r2, [pc, #12]	; 6806d60 <reset_vector+0x24>
 6806d50:	e59f100c 	ldr	r1, [pc, #12]	; 6806d64 <reset_vector+0x28>
 6806d54:	e59f000c 	ldr	r0, [pc, #12]	; 6806d68 <reset_vector+0x2c>
 6806d58:	ebfffe4d 	bl	6806694 <printk>
 6806d5c:	ebffffa3 	bl	6806bf0 <clean_reboot>
 6806d60:	0680a324 	.word	0x0680a324
 6806d64:	0680a2cc 	.word	0x0680a2cc
 6806d68:	0680a2f0 	.word	0x0680a2f0

06806d6c <undefined_instruction_vector>:
 6806d6c:	e52de004 	push	{lr}		; (str lr, [sp, #-4]!)
 6806d70:	e24dd00c 	sub	sp, sp, #12, 0
 6806d74:	e58d0000 	str	r0, [sp]
 6806d78:	e3a03003 	mov	r3, #3, 0
 6806d7c:	e59f200c 	ldr	r2, [pc, #12]	; 6806d90 <undefined_instruction_vector+0x24>
 6806d80:	e59f100c 	ldr	r1, [pc, #12]	; 6806d94 <undefined_instruction_vector+0x28>
 6806d84:	e59f000c 	ldr	r0, [pc, #12]	; 6806d98 <undefined_instruction_vector+0x2c>
 6806d88:	ebfffe41 	bl	6806694 <printk>
 6806d8c:	ebffff97 	bl	6806bf0 <clean_reboot>
 6806d90:	0680a3a0 	.word	0x0680a3a0
 6806d94:	0680a334 	.word	0x0680a334
 6806d98:	0680a364 	.word	0x0680a364

06806d9c <delay_cycles>:
 6806d9c:	e2403001 	sub	r3, r0, #1, 0
 6806da0:	e3500000 	cmp	r0, #0, 0
 6806da4:	012fff1e 	bxeq	lr
 6806da8:	e2811000 	add	r1, r1, #0, 0
 6806dac:	e1a00003 	mov	r0, r3
 6806db0:	eafffff9 	b	6806d9c <delay_cycles>

06806db4 <dev_barrier>:
 6806db4:	ea000002 	b	6806dc4 <dsb>

06806db8 <dmb>:
 6806db8:	e3a00000 	mov	r0, #0, 0
 6806dbc:	ee070fba 	mcr	15, 0, r0, cr7, cr10, {5}
 6806dc0:	e12fff1e 	bx	lr

06806dc4 <dsb>:
 6806dc4:	ee070f9a 	mcr	15, 0, r0, cr7, cr10, {4}
 6806dc8:	e12fff1e 	bx	lr

06806dcc <rpi_reboot>:
 6806dcc:	e92d4010 	push	{r4, lr}
 6806dd0:	e3a0000a 	mov	r0, #10, 0
 6806dd4:	eb000020 	bl	6806e5c <delay_ms>
 6806dd8:	e59f1014 	ldr	r1, [pc, #20]	; 6806df4 <rpi_reboot+0x28>
 6806ddc:	e59f0014 	ldr	r0, [pc, #20]	; 6806df8 <rpi_reboot+0x2c>
 6806de0:	ebffe48b 	bl	6800014 <PUT32>
 6806de4:	e59f1010 	ldr	r1, [pc, #16]	; 6806dfc <rpi_reboot+0x30>
 6806de8:	e59f0010 	ldr	r0, [pc, #16]	; 6806e00 <rpi_reboot+0x34>
 6806dec:	ebffe488 	bl	6800014 <PUT32>
 6806df0:	eafffffe 	b	6806df0 <rpi_reboot+0x24>
 6806df4:	5a000001 	.word	0x5a000001
 6806df8:	20100024 	.word	0x20100024
 6806dfc:	5a000020 	.word	0x5a000020
 6806e00:	2010001c 	.word	0x2010001c

06806e04 <rpi_wait>:
 6806e04:	e12fff1e 	bx	lr

06806e08 <timer_get_usec_raw>:
 6806e08:	e92d4010 	push	{r4, lr}
 6806e0c:	e59f0004 	ldr	r0, [pc, #4]	; 6806e18 <timer_get_usec_raw+0x10>
 6806e10:	ebffe481 	bl	680001c <GET32>
 6806e14:	e8bd8010 	pop	{r4, pc}
 6806e18:	20003004 	.word	0x20003004

06806e1c <timer_get_usec>:
 6806e1c:	e92d4010 	push	{r4, lr}
 6806e20:	ebffffe3 	bl	6806db4 <dev_barrier>
 6806e24:	ebfffff7 	bl	6806e08 <timer_get_usec_raw>
 6806e28:	e1a04000 	mov	r4, r0
 6806e2c:	ebffffe0 	bl	6806db4 <dev_barrier>
 6806e30:	e1a00004 	mov	r0, r4
 6806e34:	e8bd8010 	pop	{r4, pc}

06806e38 <delay_us>:
 6806e38:	e92d4070 	push	{r4, r5, r6, lr}
 6806e3c:	e1a05000 	mov	r5, r0
 6806e40:	ebfffff5 	bl	6806e1c <timer_get_usec>
 6806e44:	e1a04000 	mov	r4, r0
 6806e48:	ebfffff3 	bl	6806e1c <timer_get_usec>
 6806e4c:	e0400004 	sub	r0, r0, r4
 6806e50:	e1500005 	cmp	r0, r5
 6806e54:	3afffffb 	bcc	6806e48 <delay_us+0x10>
 6806e58:	e8bd8070 	pop	{r4, r5, r6, pc}

06806e5c <delay_ms>:
 6806e5c:	e92d4010 	push	{r4, lr}
 6806e60:	e0603280 	rsb	r3, r0, r0, lsl #5
 6806e64:	e0800103 	add	r0, r0, r3, lsl #2
 6806e68:	e1a00180 	lsl	r0, r0, #3
 6806e6c:	ebfffff1 	bl	6806e38 <delay_us>
 6806e70:	e8bd8010 	pop	{r4, pc}

06806e74 <delay_sec>:
 6806e74:	e92d4010 	push	{r4, lr}
 6806e78:	e0603280 	rsb	r3, r0, r0, lsl #5
 6806e7c:	e0800103 	add	r0, r0, r3, lsl #2
 6806e80:	e1a00180 	lsl	r0, r0, #3
 6806e84:	ebfffff4 	bl	6806e5c <delay_ms>
 6806e88:	e8bd8010 	pop	{r4, pc}

06806e8c <putk>:
 6806e8c:	e92d4010 	push	{r4, lr}
 6806e90:	e1a04000 	mov	r4, r0
 6806e94:	e5d40000 	ldrb	r0, [r4]
 6806e98:	e3500000 	cmp	r0, #0, 0
 6806e9c:	0a000004 	beq	6806eb4 <putk+0x28>
 6806ea0:	e59f3014 	ldr	r3, [pc, #20]	; 6806ebc <putk+0x30>
 6806ea4:	e5933000 	ldr	r3, [r3]
 6806ea8:	e12fff33 	blx	r3
 6806eac:	e2844001 	add	r4, r4, #1, 0
 6806eb0:	eafffff7 	b	6806e94 <putk+0x8>
 6806eb4:	e3a00001 	mov	r0, #1, 0
 6806eb8:	e8bd8010 	pop	{r4, pc}
 6806ebc:	068073dc 	.word	0x068073dc
