
objs/tests/recieve.elf:     file format elf32-littlearm


Disassembly of section .text:

00008000 <__code_start__>:
    8000:	e3a00013 	mov	r0, #19, 0
    8004:	e3800080 	orr	r0, r0, #128, 0	; 0x80
    8008:	e129f000 	msr	CPSR_fc, r0
    800c:	e3a01000 	mov	r1, #0, 0
    8010:	ee071f95 	mcr	15, 0, r1, cr7, cr5, {4}
    8014:	e3a0d302 	mov	sp, #134217728	; 0x8000000
    8018:	e3a0b000 	mov	fp, #0, 0
    801c:	eb0016ed 	bl	dbd8 <_cstart>
    8020:	eb001728 	bl	dcc8 <rpi_reboot>

00008024 <PUT32>:
    8024:	e5801000 	str	r1, [r0]
    8028:	e12fff1e 	bx	lr

0000802c <GET32>:
    802c:	e5900000 	ldr	r0, [r0]
    8030:	e12fff1e 	bx	lr

00008034 <BRANCHTO>:
    8034:	e12fff10 	bx	r0

00008038 <net_get32>:
    8038:	e92d4010 	push	{r4, lr}
    803c:	e3a03ffa 	mov	r3, #1000	; 0x3e8
    8040:	e3a02004 	mov	r2, #4, 0
    8044:	eb000561 	bl	95d0 <nrf_read_exact_timeout>
    8048:	e3500004 	cmp	r0, #4, 0
    804c:	1a000001 	bne	8058 <net_get32+0x20>
    8050:	e3a00001 	mov	r0, #1, 0
    8054:	e8bd8010 	pop	{r4, pc}
    8058:	e3a00000 	mov	r0, #0, 0
    805c:	e8bd8010 	pop	{r4, pc}

00008060 <recieve>:
    8060:	e92d40f0 	push	{r4, r5, r6, r7, lr}
    8064:	e24dd701 	sub	sp, sp, #262144	; 0x40000
    8068:	e24dd00c 	sub	sp, sp, #12, 0
    806c:	e1a04000 	mov	r4, r0
    8070:	e5901020 	ldr	r1, [r0, #32]
    8074:	e59f00c4 	ldr	r0, [pc, #196]	; 8140 <recieve+0xe0>
    8078:	eb0015c2 	bl	d788 <printk>
    807c:	e3a05000 	mov	r5, #0, 0
    8080:	ea000000 	b	8088 <recieve+0x28>
    8084:	e2855001 	add	r5, r5, #1, 0
    8088:	e28d1701 	add	r1, sp, #262144	; 0x40000
    808c:	e2811004 	add	r1, r1, #4, 0
    8090:	e1a00004 	mov	r0, r4
    8094:	ebffffe7 	bl	8038 <net_get32>
    8098:	e3500000 	cmp	r0, #0, 0
    809c:	1a00000a 	bne	80cc <recieve+0x6c>
    80a0:	e59f309c 	ldr	r3, [pc, #156]	; 8144 <recieve+0xe4>
    80a4:	e0832593 	umull	r2, r3, r3, r5
    80a8:	e1a03323 	lsr	r3, r3, #6
    80ac:	e0632283 	rsb	r2, r3, r3, lsl #5
    80b0:	e0833102 	add	r3, r3, r2, lsl #2
    80b4:	e1550183 	cmp	r5, r3, lsl #3
    80b8:	1afffff1 	bne	8084 <recieve+0x24>
    80bc:	e1a01005 	mov	r1, r5
    80c0:	e59f0080 	ldr	r0, [pc, #128]	; 8148 <recieve+0xe8>
    80c4:	eb0015af 	bl	d788 <printk>
    80c8:	eaffffed 	b	8084 <recieve+0x24>
    80cc:	e28d3701 	add	r3, sp, #262144	; 0x40000
    80d0:	e2833004 	add	r3, r3, #4, 0
    80d4:	e5937000 	ldr	r7, [r3]
    80d8:	e1a01007 	mov	r1, r7
    80dc:	e59f0068 	ldr	r0, [pc, #104]	; 814c <recieve+0xec>
    80e0:	eb0015a8 	bl	d788 <printk>
    80e4:	e3a05000 	mov	r5, #0, 0
    80e8:	ea00000b 	b	811c <recieve+0xbc>
    80ec:	e28d1701 	add	r1, sp, #262144	; 0x40000
    80f0:	e2811004 	add	r1, r1, #4, 0
    80f4:	e1a00004 	mov	r0, r4
    80f8:	ebffffce 	bl	8038 <net_get32>
    80fc:	e3500000 	cmp	r0, #0, 0
    8100:	0afffff9 	beq	80ec <recieve+0x8c>
    8104:	e28d3701 	add	r3, sp, #262144	; 0x40000
    8108:	e2833004 	add	r3, r3, #4, 0
    810c:	e5932000 	ldr	r2, [r3]
    8110:	e28d3004 	add	r3, sp, #4, 0
    8114:	e7832106 	str	r2, [r3, r6, lsl #2]
    8118:	e2855001 	add	r5, r5, #1, 0
    811c:	e1a06005 	mov	r6, r5
    8120:	e1550007 	cmp	r5, r7
    8124:	3afffff0 	bcc	80ec <recieve+0x8c>
    8128:	e28d1004 	add	r1, sp, #4, 0
    812c:	e59f001c 	ldr	r0, [pc, #28]	; 8150 <recieve+0xf0>
    8130:	eb001594 	bl	d788 <printk>
    8134:	e28dd701 	add	sp, sp, #262144	; 0x40000
    8138:	e28dd00c 	add	sp, sp, #12, 0
    813c:	e8bd80f0 	pop	{r4, r5, r6, r7, pc}
    8140:	0000e150 	.word	0x0000e150
    8144:	10624dd3 	.word	0x10624dd3
    8148:	0000e170 	.word	0x0000e170
    814c:	0000e180 	.word	0x0000e180
    8150:	0000e18c 	.word	0x0000e18c

00008154 <notmain>:
    8154:	e92d4030 	push	{r4, r5, lr}
    8158:	e24dd014 	sub	sp, sp, #20, 0
    815c:	e1a0200d 	mov	r2, sp
    8160:	e3a04000 	mov	r4, #0, 0
    8164:	e3a03004 	mov	r3, #4, 0
    8168:	e5cd3003 	strb	r3, [sp, #3]
    816c:	e3a03071 	mov	r3, #113, 0	; 0x71
    8170:	e5cd3004 	strb	r3, [sp, #4]
    8174:	e3a03001 	mov	r3, #1, 0
    8178:	e5cd3000 	strb	r3, [sp]
    817c:	e3a01005 	mov	r1, #5, 0
    8180:	e5cd1001 	strb	r1, [sp, #1]
    8184:	e3a01017 	mov	r1, #23, 0
    8188:	e5cd1002 	strb	r1, [sp, #2]
    818c:	e8920003 	ldm	r2, {r0, r1}
    8190:	e58d0008 	str	r0, [sp, #8]
    8194:	e5cd100c 	strb	r1, [sp, #12]
    8198:	e59f2040 	ldr	r2, [pc, #64]	; 81e0 <notmain+0x8c>
    819c:	e28d1010 	add	r1, sp, #16, 0
    81a0:	e9110003 	ldmdb	r1, {r0, r1}
    81a4:	eb0005e1 	bl	9930 <nrf_init>
    81a8:	e1a05000 	mov	r5, r0
    81ac:	eb0016d9 	bl	dd18 <timer_get_usec>
    81b0:	e2853a02 	add	r3, r5, #8192	; 0x2000
    81b4:	e583003c 	str	r0, [r3, #60]	; 0x3c
    81b8:	e5834040 	str	r4, [r3, #64]	; 0x40
    81bc:	e5834044 	str	r4, [r3, #68]	; 0x44
    81c0:	e5834048 	str	r4, [r3, #72]	; 0x48
    81c4:	e583404c 	str	r4, [r3, #76]	; 0x4c
    81c8:	e5834050 	str	r4, [r3, #80]	; 0x50
    81cc:	e5834054 	str	r4, [r3, #84]	; 0x54
    81d0:	e1a00005 	mov	r0, r5
    81d4:	ebffffa1 	bl	8060 <recieve>
    81d8:	e28dd014 	add	sp, sp, #20, 0
    81dc:	e8bd8030 	pop	{r4, r5, pc}
    81e0:	00d3d3d3 	.word	0x00d3d3d3

000081e4 <nrf_set_verbose>:
    81e4:	e59f3004 	ldr	r3, [pc, #4]	; 81f0 <nrf_set_verbose+0xc>
    81e8:	e5830000 	str	r0, [r3]
    81ec:	e12fff1e 	bx	lr
    81f0:	0000f974 	.word	0x0000f974

000081f4 <nrf_spi_init>:
    81f4:	e92d4070 	push	{r4, r5, r6, lr}
    81f8:	e24dd008 	sub	sp, sp, #8, 0
    81fc:	e1a05000 	mov	r5, r0
    8200:	e1a06001 	mov	r6, r1
    8204:	e1a04002 	mov	r4, r2
    8208:	e3a00064 	mov	r0, #100, 0	; 0x64
    820c:	eb0016d1 	bl	dd58 <delay_ms>
    8210:	e3540001 	cmp	r4, #1, 0
    8214:	8a000013 	bhi	8268 <nrf_spi_init+0x74>
    8218:	e3a02014 	mov	r2, #20, 0
    821c:	e1a01004 	mov	r1, r4
    8220:	e1a00005 	mov	r0, r5
    8224:	eb0012f7 	bl	ce08 <spi_n_init>
    8228:	e5953000 	ldr	r3, [r5]
    822c:	e1530004 	cmp	r3, r4
    8230:	1a000014 	bne	8288 <nrf_spi_init+0x94>
    8234:	e3a00064 	mov	r0, #100, 0	; 0x64
    8238:	eb0016c6 	bl	dd58 <delay_ms>
    823c:	eb00169b 	bl	dcb0 <dev_barrier>
    8240:	e1a00006 	mov	r0, r6
    8244:	eb0014d6 	bl	d5a4 <gpio_set_output>
    8248:	e1a00006 	mov	r0, r6
    824c:	eb001715 	bl	dea8 <gpio_set_pulldown>
    8250:	e1a00006 	mov	r0, r6
    8254:	eb001491 	bl	d4a0 <gpio_set_off>
    8258:	eb001694 	bl	dcb0 <dev_barrier>
    825c:	e1a00005 	mov	r0, r5
    8260:	e28dd008 	add	sp, sp, #8, 0
    8264:	e8bd8070 	pop	{r4, r5, r6, pc}
    8268:	e59f3038 	ldr	r3, [pc, #56]	; 82a8 <nrf_spi_init+0xb4>
    826c:	e58d3000 	str	r3, [sp]
    8270:	e3a03018 	mov	r3, #24, 0
    8274:	e59f2030 	ldr	r2, [pc, #48]	; 82ac <nrf_spi_init+0xb8>
    8278:	e59f1030 	ldr	r1, [pc, #48]	; 82b0 <nrf_spi_init+0xbc>
    827c:	e59f0030 	ldr	r0, [pc, #48]	; 82b4 <nrf_spi_init+0xc0>
    8280:	eb001540 	bl	d788 <printk>
    8284:	eb001648 	bl	dbac <clean_reboot>
    8288:	e59f3028 	ldr	r3, [pc, #40]	; 82b8 <nrf_spi_init+0xc4>
    828c:	e58d3000 	str	r3, [sp]
    8290:	e3a0301f 	mov	r3, #31, 0
    8294:	e59f2010 	ldr	r2, [pc, #16]	; 82ac <nrf_spi_init+0xb8>
    8298:	e59f1010 	ldr	r1, [pc, #16]	; 82b0 <nrf_spi_init+0xbc>
    829c:	e59f0010 	ldr	r0, [pc, #16]	; 82b4 <nrf_spi_init+0xc0>
    82a0:	eb001538 	bl	d788 <printk>
    82a4:	eb001640 	bl	dbac <clean_reboot>
    82a8:	0000e1f4 	.word	0x0000e1f4
    82ac:	0000e90c 	.word	0x0000e90c
    82b0:	0000e1b0 	.word	0x0000e1b0
    82b4:	0000e1c4 	.word	0x0000e1c4
    82b8:	0000e214 	.word	0x0000e214

000082bc <nrf_get8>:
    82bc:	e52de004 	push	{lr}		; (str lr, [sp, #-4]!)
    82c0:	e24dd024 	sub	sp, sp, #36, 0	; 0x24
    82c4:	e1a03000 	mov	r3, r0
    82c8:	e5cd1018 	strb	r1, [sp, #24]
    82cc:	e3e02000 	mvn	r2, #0, 0
    82d0:	e5cd2019 	strb	r2, [sp, #25]
    82d4:	e3a02002 	mov	r2, #2, 0
    82d8:	e58d2010 	str	r2, [sp, #16]
    82dc:	e28d2018 	add	r2, sp, #24, 0
    82e0:	e58d200c 	str	r2, [sp, #12]
    82e4:	e28d201c 	add	r2, sp, #28, 0
    82e8:	e58d2008 	str	r2, [sp, #8]
    82ec:	e590101c 	ldr	r1, [r0, #28]
    82f0:	e5900018 	ldr	r0, [r0, #24]
    82f4:	e88d0003 	stm	sp, {r0, r1}
    82f8:	e2830008 	add	r0, r3, #8, 0
    82fc:	e890000f 	ldm	r0, {r0, r1, r2, r3}
    8300:	eb001297 	bl	cd64 <spi_n_transfer>
    8304:	e5dd001d 	ldrb	r0, [sp, #29]
    8308:	e28dd024 	add	sp, sp, #36, 0	; 0x24
    830c:	e49df004 	pop	{pc}		; (ldr pc, [sp], #4)

00008310 <nrf_put8>:
    8310:	e52de004 	push	{lr}		; (str lr, [sp, #-4]!)
    8314:	e24dd024 	sub	sp, sp, #36, 0	; 0x24
    8318:	e1a03000 	mov	r3, r0
    831c:	e3811020 	orr	r1, r1, #32, 0
    8320:	e5cd1018 	strb	r1, [sp, #24]
    8324:	e5cd2019 	strb	r2, [sp, #25]
    8328:	e3a02002 	mov	r2, #2, 0
    832c:	e58d2010 	str	r2, [sp, #16]
    8330:	e28d2018 	add	r2, sp, #24, 0
    8334:	e58d200c 	str	r2, [sp, #12]
    8338:	e28d201c 	add	r2, sp, #28, 0
    833c:	e58d2008 	str	r2, [sp, #8]
    8340:	e590101c 	ldr	r1, [r0, #28]
    8344:	e5900018 	ldr	r0, [r0, #24]
    8348:	e88d0003 	stm	sp, {r0, r1}
    834c:	e2830008 	add	r0, r3, #8, 0
    8350:	e890000f 	ldm	r0, {r0, r1, r2, r3}
    8354:	eb001282 	bl	cd64 <spi_n_transfer>
    8358:	e5dd001c 	ldrb	r0, [sp, #28]
    835c:	e28dd024 	add	sp, sp, #36, 0	; 0x24
    8360:	e49df004 	pop	{pc}		; (ldr pc, [sp], #4)

00008364 <nrf_put8_chk_helper>:
    8364:	e92d40f0 	push	{r4, r5, r6, r7, lr}
    8368:	e24dd014 	sub	sp, sp, #20, 0
    836c:	e28dc010 	add	ip, sp, #16, 0
    8370:	e90c0007 	stmdb	ip, {r0, r1, r2}
    8374:	e1a04003 	mov	r4, r3
    8378:	e5dd6028 	ldrb	r6, [sp, #40]	; 0x28
    837c:	e5dd702c 	ldrb	r7, [sp, #44]	; 0x2c
    8380:	e1a02007 	mov	r2, r7
    8384:	e1a01006 	mov	r1, r6
    8388:	e1a00003 	mov	r0, r3
    838c:	ebffffdf 	bl	8310 <nrf_put8>
    8390:	e1a05000 	mov	r5, r0
    8394:	e1a01006 	mov	r1, r6
    8398:	e1a00004 	mov	r0, r4
    839c:	ebffffc6 	bl	82bc <nrf_get8>
    83a0:	e1570000 	cmp	r7, r0
    83a4:	1a000002 	bne	83b4 <nrf_put8_chk_helper+0x50>
    83a8:	e1a00005 	mov	r0, r5
    83ac:	e28dd014 	add	sp, sp, #20, 0
    83b0:	e8bd80f0 	pop	{r4, r5, r6, r7, pc}
    83b4:	e1a04000 	mov	r4, r0
    83b8:	e59d300c 	ldr	r3, [sp, #12]
    83bc:	e59d2008 	ldr	r2, [sp, #8]
    83c0:	e59d1004 	ldr	r1, [sp, #4]
    83c4:	e59f0018 	ldr	r0, [pc, #24]	; 83e4 <nrf_put8_chk_helper+0x80>
    83c8:	eb0014ee 	bl	d788 <printk>
    83cc:	e1a03007 	mov	r3, r7
    83d0:	e1a02004 	mov	r2, r4
    83d4:	e1a01006 	mov	r1, r6
    83d8:	e59f0008 	ldr	r0, [pc, #8]	; 83e8 <nrf_put8_chk_helper+0x84>
    83dc:	eb0014e9 	bl	d788 <printk>
    83e0:	eb0015f1 	bl	dbac <clean_reboot>
    83e4:	0000e228 	.word	0x0000e228
    83e8:	0000e240 	.word	0x0000e240

000083ec <nrf_getn>:
    83ec:	e92d4070 	push	{r4, r5, r6, lr}
    83f0:	e24dd098 	sub	sp, sp, #152, 0	; 0x98
    83f4:	e3530040 	cmp	r3, #64, 0	; 0x40
    83f8:	8a00001c 	bhi	8470 <nrf_getn+0x84>
    83fc:	e1a04000 	mov	r4, r0
    8400:	e1a06002 	mov	r6, r2
    8404:	e1a05003 	mov	r5, r3
    8408:	e3530000 	cmp	r3, #0, 0
    840c:	0a00001f 	beq	8490 <nrf_getn+0xa4>
    8410:	e5cd1018 	strb	r1, [sp, #24]
    8414:	e1a02003 	mov	r2, r3
    8418:	e3a010ff 	mov	r1, #255, 0	; 0xff
    841c:	e28d0019 	add	r0, sp, #25, 0
    8420:	eb0014b0 	bl	d6e8 <memset>
    8424:	e2853001 	add	r3, r5, #1, 0
    8428:	e58d3010 	str	r3, [sp, #16]
    842c:	e28d3018 	add	r3, sp, #24, 0
    8430:	e58d300c 	str	r3, [sp, #12]
    8434:	e28d3058 	add	r3, sp, #88, 0	; 0x58
    8438:	e58d3008 	str	r3, [sp, #8]
    843c:	e594101c 	ldr	r1, [r4, #28]
    8440:	e5940018 	ldr	r0, [r4, #24]
    8444:	e88d0003 	stm	sp, {r0, r1}
    8448:	e2840008 	add	r0, r4, #8, 0
    844c:	e890000f 	ldm	r0, {r0, r1, r2, r3}
    8450:	eb001243 	bl	cd64 <spi_n_transfer>
    8454:	e1a02005 	mov	r2, r5
    8458:	e28d1059 	add	r1, sp, #89, 0	; 0x59
    845c:	e1a00006 	mov	r0, r6
    8460:	eb001475 	bl	d63c <memcpy>
    8464:	e5dd0058 	ldrb	r0, [sp, #88]	; 0x58
    8468:	e28dd098 	add	sp, sp, #152, 0	; 0x98
    846c:	e8bd8070 	pop	{r4, r5, r6, pc}
    8470:	e59f3038 	ldr	r3, [pc, #56]	; 84b0 <nrf_getn+0xc4>
    8474:	e58d3000 	str	r3, [sp]
    8478:	e3a0306b 	mov	r3, #107, 0	; 0x6b
    847c:	e59f2030 	ldr	r2, [pc, #48]	; 84b4 <nrf_getn+0xc8>
    8480:	e59f1030 	ldr	r1, [pc, #48]	; 84b8 <nrf_getn+0xcc>
    8484:	e59f0030 	ldr	r0, [pc, #48]	; 84bc <nrf_getn+0xd0>
    8488:	eb0014be 	bl	d788 <printk>
    848c:	eb0015c6 	bl	dbac <clean_reboot>
    8490:	e59f3028 	ldr	r3, [pc, #40]	; 84c0 <nrf_getn+0xd4>
    8494:	e58d3000 	str	r3, [sp]
    8498:	e3a0306c 	mov	r3, #108, 0	; 0x6c
    849c:	e59f2010 	ldr	r2, [pc, #16]	; 84b4 <nrf_getn+0xc8>
    84a0:	e59f1010 	ldr	r1, [pc, #16]	; 84b8 <nrf_getn+0xcc>
    84a4:	e59f0010 	ldr	r0, [pc, #16]	; 84bc <nrf_getn+0xd0>
    84a8:	eb0014b6 	bl	d788 <printk>
    84ac:	eb0015be 	bl	dbac <clean_reboot>
    84b0:	0000e264 	.word	0x0000e264
    84b4:	0000e91c 	.word	0x0000e91c
    84b8:	0000e1b0 	.word	0x0000e1b0
    84bc:	0000e1c4 	.word	0x0000e1c4
    84c0:	0000e280 	.word	0x0000e280

000084c4 <nrf_putn>:
    84c4:	e92d4030 	push	{r4, r5, lr}
    84c8:	e24dd09c 	sub	sp, sp, #156, 0	; 0x9c
    84cc:	e3530040 	cmp	r3, #64, 0	; 0x40
    84d0:	8a000018 	bhi	8538 <nrf_putn+0x74>
    84d4:	e1a05000 	mov	r5, r0
    84d8:	e1a00001 	mov	r0, r1
    84dc:	e1a01002 	mov	r1, r2
    84e0:	e1a04003 	mov	r4, r3
    84e4:	e3530000 	cmp	r3, #0, 0
    84e8:	0a00001a 	beq	8558 <nrf_putn+0x94>
    84ec:	e5cd0018 	strb	r0, [sp, #24]
    84f0:	e1a02003 	mov	r2, r3
    84f4:	e28d0019 	add	r0, sp, #25, 0
    84f8:	eb00144f 	bl	d63c <memcpy>
    84fc:	e2844001 	add	r4, r4, #1, 0
    8500:	e58d4010 	str	r4, [sp, #16]
    8504:	e28d3018 	add	r3, sp, #24, 0
    8508:	e58d300c 	str	r3, [sp, #12]
    850c:	e28d3058 	add	r3, sp, #88, 0	; 0x58
    8510:	e58d3008 	str	r3, [sp, #8]
    8514:	e595101c 	ldr	r1, [r5, #28]
    8518:	e5950018 	ldr	r0, [r5, #24]
    851c:	e88d0003 	stm	sp, {r0, r1}
    8520:	e2850008 	add	r0, r5, #8, 0
    8524:	e890000f 	ldm	r0, {r0, r1, r2, r3}
    8528:	eb00120d 	bl	cd64 <spi_n_transfer>
    852c:	e5dd0058 	ldrb	r0, [sp, #88]	; 0x58
    8530:	e28dd09c 	add	sp, sp, #156, 0	; 0x9c
    8534:	e8bd8030 	pop	{r4, r5, pc}
    8538:	e59f3038 	ldr	r3, [pc, #56]	; 8578 <nrf_putn+0xb4>
    853c:	e58d3000 	str	r3, [sp]
    8540:	e3a0307b 	mov	r3, #123, 0	; 0x7b
    8544:	e59f2030 	ldr	r2, [pc, #48]	; 857c <nrf_putn+0xb8>
    8548:	e59f1030 	ldr	r1, [pc, #48]	; 8580 <nrf_putn+0xbc>
    854c:	e59f0030 	ldr	r0, [pc, #48]	; 8584 <nrf_putn+0xc0>
    8550:	eb00148c 	bl	d788 <printk>
    8554:	eb001594 	bl	dbac <clean_reboot>
    8558:	e59f3028 	ldr	r3, [pc, #40]	; 8588 <nrf_putn+0xc4>
    855c:	e58d3000 	str	r3, [sp]
    8560:	e3a0307c 	mov	r3, #124, 0	; 0x7c
    8564:	e59f2010 	ldr	r2, [pc, #16]	; 857c <nrf_putn+0xb8>
    8568:	e59f1010 	ldr	r1, [pc, #16]	; 8580 <nrf_putn+0xbc>
    856c:	e59f0010 	ldr	r0, [pc, #16]	; 8584 <nrf_putn+0xc0>
    8570:	eb001484 	bl	d788 <printk>
    8574:	eb00158c 	bl	dbac <clean_reboot>
    8578:	0000e264 	.word	0x0000e264
    857c:	0000e928 	.word	0x0000e928
    8580:	0000e1b0 	.word	0x0000e1b0
    8584:	0000e1c4 	.word	0x0000e1c4
    8588:	0000e280 	.word	0x0000e280

0000858c <nrf_or8>:
    858c:	e92d4070 	push	{r4, r5, r6, lr}
    8590:	e1a04000 	mov	r4, r0
    8594:	e1a05001 	mov	r5, r1
    8598:	e1a06002 	mov	r6, r2
    859c:	ebffff46 	bl	82bc <nrf_get8>
    85a0:	e1802006 	orr	r2, r0, r6
    85a4:	e6ef2072 	uxtb	r2, r2
    85a8:	e1a01005 	mov	r1, r5
    85ac:	e1a00004 	mov	r0, r4
    85b0:	ebffff56 	bl	8310 <nrf_put8>
    85b4:	e8bd8070 	pop	{r4, r5, r6, pc}

000085b8 <nrf_bit_clr>:
    85b8:	e92d4070 	push	{r4, r5, r6, lr}
    85bc:	e24dd018 	sub	sp, sp, #24, 0
    85c0:	e3520007 	cmp	r2, #7, 0
    85c4:	8a000016 	bhi	8624 <nrf_bit_clr+0x6c>
    85c8:	e1a05000 	mov	r5, r0
    85cc:	e1a06001 	mov	r6, r1
    85d0:	e1a04002 	mov	r4, r2
    85d4:	e59f3088 	ldr	r3, [pc, #136]	; 8664 <nrf_bit_clr+0xac>
    85d8:	e58d300c 	str	r3, [sp, #12]
    85dc:	e59f3084 	ldr	r3, [pc, #132]	; 8668 <nrf_bit_clr+0xb0>
    85e0:	e58d3010 	str	r3, [sp, #16]
    85e4:	e3a0308e 	mov	r3, #142, 0	; 0x8e
    85e8:	e58d3014 	str	r3, [sp, #20]
    85ec:	ebffff32 	bl	82bc <nrf_get8>
    85f0:	e354001f 	cmp	r4, #31, 0
    85f4:	8a000012 	bhi	8644 <nrf_bit_clr+0x8c>
    85f8:	e3a02001 	mov	r2, #1, 0
    85fc:	e1c02412 	bic	r2, r0, r2, lsl r4
    8600:	e6ef2072 	uxtb	r2, r2
    8604:	e58d2004 	str	r2, [sp, #4]
    8608:	e58d6000 	str	r6, [sp]
    860c:	e1a03005 	mov	r3, r5
    8610:	e28d2018 	add	r2, sp, #24, 0
    8614:	e9120007 	ldmdb	r2, {r0, r1, r2}
    8618:	ebffff51 	bl	8364 <nrf_put8_chk_helper>
    861c:	e28dd018 	add	sp, sp, #24, 0
    8620:	e8bd8070 	pop	{r4, r5, r6, pc}
    8624:	e59f3040 	ldr	r3, [pc, #64]	; 866c <nrf_bit_clr+0xb4>
    8628:	e58d3000 	str	r3, [sp]
    862c:	e3a0308d 	mov	r3, #141, 0	; 0x8d
    8630:	e59f2030 	ldr	r2, [pc, #48]	; 8668 <nrf_bit_clr+0xb0>
    8634:	e59f1028 	ldr	r1, [pc, #40]	; 8664 <nrf_bit_clr+0xac>
    8638:	e59f0030 	ldr	r0, [pc, #48]	; 8670 <nrf_bit_clr+0xb8>
    863c:	eb001451 	bl	d788 <printk>
    8640:	eb001559 	bl	dbac <clean_reboot>
    8644:	e59f3028 	ldr	r3, [pc, #40]	; 8674 <nrf_bit_clr+0xbc>
    8648:	e58d3000 	str	r3, [sp]
    864c:	e3a03008 	mov	r3, #8, 0
    8650:	e59f2020 	ldr	r2, [pc, #32]	; 8678 <nrf_bit_clr+0xc0>
    8654:	e59f1020 	ldr	r1, [pc, #32]	; 867c <nrf_bit_clr+0xc4>
    8658:	e59f0010 	ldr	r0, [pc, #16]	; 8670 <nrf_bit_clr+0xb8>
    865c:	eb001449 	bl	d788 <printk>
    8660:	eb001551 	bl	dbac <clean_reboot>
    8664:	0000e1b0 	.word	0x0000e1b0
    8668:	0000e934 	.word	0x0000e934
    866c:	0000e28c 	.word	0x0000e28c
    8670:	0000e1c4 	.word	0x0000e1c4
    8674:	0000e2d8 	.word	0x0000e2d8
    8678:	0000e940 	.word	0x0000e940
    867c:	0000e294 	.word	0x0000e294

00008680 <nrf_bit_set>:
    8680:	e92d4070 	push	{r4, r5, r6, lr}
    8684:	e24dd018 	sub	sp, sp, #24, 0
    8688:	e3520007 	cmp	r2, #7, 0
    868c:	8a000016 	bhi	86ec <nrf_bit_set+0x6c>
    8690:	e1a05000 	mov	r5, r0
    8694:	e1a06001 	mov	r6, r1
    8698:	e1a04002 	mov	r4, r2
    869c:	e59f3088 	ldr	r3, [pc, #136]	; 872c <nrf_bit_set+0xac>
    86a0:	e58d300c 	str	r3, [sp, #12]
    86a4:	e59f3084 	ldr	r3, [pc, #132]	; 8730 <nrf_bit_set+0xb0>
    86a8:	e58d3010 	str	r3, [sp, #16]
    86ac:	e3a03093 	mov	r3, #147, 0	; 0x93
    86b0:	e58d3014 	str	r3, [sp, #20]
    86b4:	ebffff00 	bl	82bc <nrf_get8>
    86b8:	e354001f 	cmp	r4, #31, 0
    86bc:	8a000012 	bhi	870c <nrf_bit_set+0x8c>
    86c0:	e3a02001 	mov	r2, #1, 0
    86c4:	e1802412 	orr	r2, r0, r2, lsl r4
    86c8:	e6ef2072 	uxtb	r2, r2
    86cc:	e58d2004 	str	r2, [sp, #4]
    86d0:	e58d6000 	str	r6, [sp]
    86d4:	e1a03005 	mov	r3, r5
    86d8:	e28d2018 	add	r2, sp, #24, 0
    86dc:	e9120007 	ldmdb	r2, {r0, r1, r2}
    86e0:	ebffff1f 	bl	8364 <nrf_put8_chk_helper>
    86e4:	e28dd018 	add	sp, sp, #24, 0
    86e8:	e8bd8070 	pop	{r4, r5, r6, pc}
    86ec:	e59f3040 	ldr	r3, [pc, #64]	; 8734 <nrf_bit_set+0xb4>
    86f0:	e58d3000 	str	r3, [sp]
    86f4:	e3a03092 	mov	r3, #146, 0	; 0x92
    86f8:	e59f2030 	ldr	r2, [pc, #48]	; 8730 <nrf_bit_set+0xb0>
    86fc:	e59f1028 	ldr	r1, [pc, #40]	; 872c <nrf_bit_set+0xac>
    8700:	e59f0030 	ldr	r0, [pc, #48]	; 8738 <nrf_bit_set+0xb8>
    8704:	eb00141f 	bl	d788 <printk>
    8708:	eb001527 	bl	dbac <clean_reboot>
    870c:	e59f3028 	ldr	r3, [pc, #40]	; 873c <nrf_bit_set+0xbc>
    8710:	e58d3000 	str	r3, [sp]
    8714:	e3a0300f 	mov	r3, #15, 0
    8718:	e59f2020 	ldr	r2, [pc, #32]	; 8740 <nrf_bit_set+0xc0>
    871c:	e59f1020 	ldr	r1, [pc, #32]	; 8744 <nrf_bit_set+0xc4>
    8720:	e59f0010 	ldr	r0, [pc, #16]	; 8738 <nrf_bit_set+0xb8>
    8724:	eb001417 	bl	d788 <printk>
    8728:	eb00151f 	bl	dbac <clean_reboot>
    872c:	0000e1b0 	.word	0x0000e1b0
    8730:	0000e948 	.word	0x0000e948
    8734:	0000e28c 	.word	0x0000e28c
    8738:	0000e1c4 	.word	0x0000e1c4
    873c:	0000e2d8 	.word	0x0000e2d8
    8740:	0000e954 	.word	0x0000e954
    8744:	0000e294 	.word	0x0000e294

00008748 <nrf_bit_isset>:
    8748:	e92d4010 	push	{r4, lr}
    874c:	e24dd008 	sub	sp, sp, #8, 0
    8750:	e3520007 	cmp	r2, #7, 0
    8754:	8a000007 	bhi	8778 <nrf_bit_isset+0x30>
    8758:	e1a04002 	mov	r4, r2
    875c:	ebfffed6 	bl	82bc <nrf_get8>
    8760:	e354001f 	cmp	r4, #31, 0
    8764:	8a00000b 	bhi	8798 <nrf_bit_isset+0x50>
    8768:	e1a00430 	lsr	r0, r0, r4
    876c:	e2000001 	and	r0, r0, #1, 0
    8770:	e28dd008 	add	sp, sp, #8, 0
    8774:	e8bd8010 	pop	{r4, pc}
    8778:	e59f3038 	ldr	r3, [pc, #56]	; 87b8 <nrf_bit_isset+0x70>
    877c:	e58d3000 	str	r3, [sp]
    8780:	e3a03097 	mov	r3, #151, 0	; 0x97
    8784:	e59f2030 	ldr	r2, [pc, #48]	; 87bc <nrf_bit_isset+0x74>
    8788:	e59f1030 	ldr	r1, [pc, #48]	; 87c0 <nrf_bit_isset+0x78>
    878c:	e59f0030 	ldr	r0, [pc, #48]	; 87c4 <nrf_bit_isset+0x7c>
    8790:	eb0013fc 	bl	d788 <printk>
    8794:	eb001504 	bl	dbac <clean_reboot>
    8798:	e59f3028 	ldr	r3, [pc, #40]	; 87c8 <nrf_bit_isset+0x80>
    879c:	e58d3000 	str	r3, [sp]
    87a0:	e3a0301f 	mov	r3, #31, 0
    87a4:	e59f2020 	ldr	r2, [pc, #32]	; 87cc <nrf_bit_isset+0x84>
    87a8:	e59f1020 	ldr	r1, [pc, #32]	; 87d0 <nrf_bit_isset+0x88>
    87ac:	e59f0010 	ldr	r0, [pc, #16]	; 87c4 <nrf_bit_isset+0x7c>
    87b0:	eb0013f4 	bl	d788 <printk>
    87b4:	eb0014fc 	bl	dbac <clean_reboot>
    87b8:	0000e2e0 	.word	0x0000e2e0
    87bc:	0000e95c 	.word	0x0000e95c
    87c0:	0000e1b0 	.word	0x0000e1b0
    87c4:	0000e1c4 	.word	0x0000e1c4
    87c8:	0000e2d8 	.word	0x0000e2d8
    87cc:	0000e96c 	.word	0x0000e96c
    87d0:	0000e294 	.word	0x0000e294

000087d4 <nrf_get_addr>:
    87d4:	e52de004 	push	{lr}		; (str lr, [sp, #-4]!)
    87d8:	e24dd014 	sub	sp, sp, #20, 0
    87dc:	e1a03002 	mov	r3, r2
    87e0:	e2422003 	sub	r2, r2, #3, 0
    87e4:	e3520001 	cmp	r2, #1, 0
    87e8:	8a000008 	bhi	8810 <nrf_get_addr+0x3c>
    87ec:	e3a02000 	mov	r2, #0, 0
    87f0:	e58d200c 	str	r2, [sp, #12]
    87f4:	e3530003 	cmp	r3, #3, 0
    87f8:	1a00000c 	bne	8830 <nrf_get_addr+0x5c>
    87fc:	e28d200c 	add	r2, sp, #12, 0
    8800:	ebfffef9 	bl	83ec <nrf_getn>
    8804:	e59d000c 	ldr	r0, [sp, #12]
    8808:	e28dd014 	add	sp, sp, #20, 0
    880c:	e49df004 	pop	{pc}		; (ldr pc, [sp], #4)
    8810:	e59f3038 	ldr	r3, [pc, #56]	; 8850 <nrf_get_addr+0x7c>
    8814:	e58d3000 	str	r3, [sp]
    8818:	e3a0309f 	mov	r3, #159, 0	; 0x9f
    881c:	e59f2030 	ldr	r2, [pc, #48]	; 8854 <nrf_get_addr+0x80>
    8820:	e59f1030 	ldr	r1, [pc, #48]	; 8858 <nrf_get_addr+0x84>
    8824:	e59f0030 	ldr	r0, [pc, #48]	; 885c <nrf_get_addr+0x88>
    8828:	eb0013d6 	bl	d788 <printk>
    882c:	eb0014de 	bl	dbac <clean_reboot>
    8830:	e59f3028 	ldr	r3, [pc, #40]	; 8860 <nrf_get_addr+0x8c>
    8834:	e58d3000 	str	r3, [sp]
    8838:	e3a030a1 	mov	r3, #161, 0	; 0xa1
    883c:	e59f2010 	ldr	r2, [pc, #16]	; 8854 <nrf_get_addr+0x80>
    8840:	e59f1010 	ldr	r1, [pc, #16]	; 8858 <nrf_get_addr+0x84>
    8844:	e59f0010 	ldr	r0, [pc, #16]	; 885c <nrf_get_addr+0x88>
    8848:	eb0013ce 	bl	d788 <printk>
    884c:	eb0014d6 	bl	dbac <clean_reboot>
    8850:	0000e2e8 	.word	0x0000e2e8
    8854:	0000e978 	.word	0x0000e978
    8858:	0000e1b0 	.word	0x0000e1b0
    885c:	0000e1c4 	.word	0x0000e1c4
    8860:	0000e300 	.word	0x0000e300

00008864 <nrf_tx_flush>:
    8864:	e52de004 	push	{lr}		; (str lr, [sp, #-4]!)
    8868:	e24dd024 	sub	sp, sp, #36, 0	; 0x24
    886c:	e1a03000 	mov	r3, r0
    8870:	e3e0201e 	mvn	r2, #30, 0
    8874:	e5cd201f 	strb	r2, [sp, #31]
    8878:	e3a02000 	mov	r2, #0, 0
    887c:	e5cd201e 	strb	r2, [sp, #30]
    8880:	e3a02001 	mov	r2, #1, 0
    8884:	e58d2010 	str	r2, [sp, #16]
    8888:	e28d201f 	add	r2, sp, #31, 0
    888c:	e58d200c 	str	r2, [sp, #12]
    8890:	e28d201e 	add	r2, sp, #30, 0
    8894:	e58d2008 	str	r2, [sp, #8]
    8898:	e590101c 	ldr	r1, [r0, #28]
    889c:	e5900018 	ldr	r0, [r0, #24]
    88a0:	e88d0003 	stm	sp, {r0, r1}
    88a4:	e2830008 	add	r0, r3, #8, 0
    88a8:	e890000f 	ldm	r0, {r0, r1, r2, r3}
    88ac:	eb00112c 	bl	cd64 <spi_n_transfer>
    88b0:	e5dd001e 	ldrb	r0, [sp, #30]
    88b4:	e28dd024 	add	sp, sp, #36, 0	; 0x24
    88b8:	e49df004 	pop	{pc}		; (ldr pc, [sp], #4)

000088bc <nrf_rx_flush>:
    88bc:	e52de004 	push	{lr}		; (str lr, [sp, #-4]!)
    88c0:	e24dd024 	sub	sp, sp, #36, 0	; 0x24
    88c4:	e1a03000 	mov	r3, r0
    88c8:	e3e0201d 	mvn	r2, #29, 0
    88cc:	e5cd201f 	strb	r2, [sp, #31]
    88d0:	e3a02000 	mov	r2, #0, 0
    88d4:	e5cd201e 	strb	r2, [sp, #30]
    88d8:	e3a02001 	mov	r2, #1, 0
    88dc:	e58d2010 	str	r2, [sp, #16]
    88e0:	e28d201f 	add	r2, sp, #31, 0
    88e4:	e58d200c 	str	r2, [sp, #12]
    88e8:	e28d201e 	add	r2, sp, #30, 0
    88ec:	e58d2008 	str	r2, [sp, #8]
    88f0:	e590101c 	ldr	r1, [r0, #28]
    88f4:	e5900018 	ldr	r0, [r0, #24]
    88f8:	e88d0003 	stm	sp, {r0, r1}
    88fc:	e2830008 	add	r0, r3, #8, 0
    8900:	e890000f 	ldm	r0, {r0, r1, r2, r3}
    8904:	eb001116 	bl	cd64 <spi_n_transfer>
    8908:	e5dd001e 	ldrb	r0, [sp, #30]
    890c:	e28dd024 	add	sp, sp, #36, 0	; 0x24
    8910:	e49df004 	pop	{pc}		; (ldr pc, [sp], #4)

00008914 <nrf_compat>:
    8914:	e52de004 	push	{lr}		; (str lr, [sp, #-4]!)
    8918:	e24dd00c 	sub	sp, sp, #12, 0
    891c:	e5902020 	ldr	r2, [r0, #32]
    8920:	e5913020 	ldr	r3, [r1, #32]
    8924:	e1520003 	cmp	r2, r3
    8928:	0a000016 	beq	8988 <nrf_compat+0x74>
    892c:	e5d03000 	ldrb	r3, [r0]
    8930:	e5d12000 	ldrb	r2, [r1]
    8934:	e1530002 	cmp	r3, r2
    8938:	0a000018 	beq	89a0 <nrf_compat+0x8c>
    893c:	e5d02001 	ldrb	r2, [r0, #1]
    8940:	e5d13001 	ldrb	r3, [r1, #1]
    8944:	e1520003 	cmp	r2, r3
    8948:	0a00001c 	beq	89c0 <nrf_compat+0xac>
    894c:	e5d02002 	ldrb	r2, [r0, #2]
    8950:	e5d13002 	ldrb	r3, [r1, #2]
    8954:	e1520003 	cmp	r2, r3
    8958:	0a00001e 	beq	89d8 <nrf_compat+0xc4>
    895c:	e5d03003 	ldrb	r3, [r0, #3]
    8960:	e5d12003 	ldrb	r2, [r1, #3]
    8964:	e1530002 	cmp	r3, r2
    8968:	1a000020 	bne	89f0 <nrf_compat+0xdc>
    896c:	e5d03004 	ldrb	r3, [r0, #4]
    8970:	e5d12004 	ldrb	r2, [r1, #4]
    8974:	e1530002 	cmp	r3, r2
    8978:	1a000024 	bne	8a10 <nrf_compat+0xfc>
    897c:	e3a00001 	mov	r0, #1, 0
    8980:	e28dd00c 	add	sp, sp, #12, 0
    8984:	e49df004 	pop	{pc}		; (ldr pc, [sp], #4)
    8988:	e3a030cc 	mov	r3, #204, 0	; 0xcc
    898c:	e59f209c 	ldr	r2, [pc, #156]	; 8a30 <nrf_compat+0x11c>
    8990:	e59f109c 	ldr	r1, [pc, #156]	; 8a34 <nrf_compat+0x120>
    8994:	e59f009c 	ldr	r0, [pc, #156]	; 8a38 <nrf_compat+0x124>
    8998:	eb00137a 	bl	d788 <printk>
    899c:	eb001482 	bl	dbac <clean_reboot>
    89a0:	e58d2004 	str	r2, [sp, #4]
    89a4:	e58d3000 	str	r3, [sp]
    89a8:	e3a030d6 	mov	r3, #214, 0	; 0xd6
    89ac:	e59f207c 	ldr	r2, [pc, #124]	; 8a30 <nrf_compat+0x11c>
    89b0:	e59f107c 	ldr	r1, [pc, #124]	; 8a34 <nrf_compat+0x120>
    89b4:	e59f0080 	ldr	r0, [pc, #128]	; 8a3c <nrf_compat+0x128>
    89b8:	eb001372 	bl	d788 <printk>
    89bc:	eb00147a 	bl	dbac <clean_reboot>
    89c0:	e3a030da 	mov	r3, #218, 0	; 0xda
    89c4:	e59f2064 	ldr	r2, [pc, #100]	; 8a30 <nrf_compat+0x11c>
    89c8:	e59f1064 	ldr	r1, [pc, #100]	; 8a34 <nrf_compat+0x120>
    89cc:	e59f006c 	ldr	r0, [pc, #108]	; 8a40 <nrf_compat+0x12c>
    89d0:	eb00136c 	bl	d788 <printk>
    89d4:	eb001474 	bl	dbac <clean_reboot>
    89d8:	e3a030dc 	mov	r3, #220, 0	; 0xdc
    89dc:	e59f204c 	ldr	r2, [pc, #76]	; 8a30 <nrf_compat+0x11c>
    89e0:	e59f104c 	ldr	r1, [pc, #76]	; 8a34 <nrf_compat+0x120>
    89e4:	e59f0054 	ldr	r0, [pc, #84]	; 8a40 <nrf_compat+0x12c>
    89e8:	eb001366 	bl	d788 <printk>
    89ec:	eb00146e 	bl	dbac <clean_reboot>
    89f0:	e58d2004 	str	r2, [sp, #4]
    89f4:	e58d3000 	str	r3, [sp]
    89f8:	e3a030e1 	mov	r3, #225, 0	; 0xe1
    89fc:	e59f202c 	ldr	r2, [pc, #44]	; 8a30 <nrf_compat+0x11c>
    8a00:	e59f102c 	ldr	r1, [pc, #44]	; 8a34 <nrf_compat+0x120>
    8a04:	e59f0038 	ldr	r0, [pc, #56]	; 8a44 <nrf_compat+0x130>
    8a08:	eb00135e 	bl	d788 <printk>
    8a0c:	eb001466 	bl	dbac <clean_reboot>
    8a10:	e58d2004 	str	r2, [sp, #4]
    8a14:	e58d3000 	str	r3, [sp]
    8a18:	e3a030e7 	mov	r3, #231, 0	; 0xe7
    8a1c:	e59f200c 	ldr	r2, [pc, #12]	; 8a30 <nrf_compat+0x11c>
    8a20:	e59f100c 	ldr	r1, [pc, #12]	; 8a34 <nrf_compat+0x120>
    8a24:	e59f001c 	ldr	r0, [pc, #28]	; 8a48 <nrf_compat+0x134>
    8a28:	eb001356 	bl	d788 <printk>
    8a2c:	eb00145e 	bl	dbac <clean_reboot>
    8a30:	0000e988 	.word	0x0000e988
    8a34:	0000e1b0 	.word	0x0000e1b0
    8a38:	0000e324 	.word	0x0000e324
    8a3c:	0000e34c 	.word	0x0000e34c
    8a40:	0000e388 	.word	0x0000e388
    8a44:	0000e3ac 	.word	0x0000e3ac
    8a48:	0000e3dc 	.word	0x0000e3dc

00008a4c <nrf_conf_print>:
    8a4c:	e92d4030 	push	{r4, r5, lr}
    8a50:	e24dd00c 	sub	sp, sp, #12, 0
    8a54:	e1a05000 	mov	r5, r0
    8a58:	e1a04001 	mov	r4, r1
    8a5c:	e59f0024 	ldr	r0, [pc, #36]	; 8a88 <nrf_conf_print+0x3c>
    8a60:	eb001348 	bl	d788 <printk>
    8a64:	e5d43000 	ldrb	r3, [r4]
    8a68:	e58d3000 	str	r3, [sp]
    8a6c:	e5d43002 	ldrb	r3, [r4, #2]
    8a70:	e5d42001 	ldrb	r2, [r4, #1]
    8a74:	e1a01005 	mov	r1, r5
    8a78:	e59f000c 	ldr	r0, [pc, #12]	; 8a8c <nrf_conf_print+0x40>
    8a7c:	eb001341 	bl	d788 <printk>
    8a80:	e28dd00c 	add	sp, sp, #12, 0
    8a84:	e8bd8030 	pop	{r4, r5, pc}
    8a88:	0000e40c 	.word	0x0000e40c
    8a8c:	0000e414 	.word	0x0000e414

00008a90 <nrf_dump>:
    8a90:	e92d43f0 	push	{r4, r5, r6, r7, r8, r9, lr}
    8a94:	e24dd024 	sub	sp, sp, #36, 0	; 0x24
    8a98:	e1a04000 	mov	r4, r0
    8a9c:	e1a05001 	mov	r5, r1
    8aa0:	e59f75bc 	ldr	r7, [pc, #1468]	; 9064 <nrf_dump+0x5d4>
    8aa4:	e1a00007 	mov	r0, r7
    8aa8:	eb001336 	bl	d788 <printk>
    8aac:	e59f05b4 	ldr	r0, [pc, #1460]	; 9068 <nrf_dump+0x5d8>
    8ab0:	eb001334 	bl	d788 <printk>
    8ab4:	e1a00007 	mov	r0, r7
    8ab8:	eb001332 	bl	d788 <printk>
    8abc:	e1a01004 	mov	r1, r4
    8ac0:	e59f05a4 	ldr	r0, [pc, #1444]	; 906c <nrf_dump+0x5dc>
    8ac4:	eb00132f 	bl	d788 <printk>
    8ac8:	e1a01005 	mov	r1, r5
    8acc:	e59f059c 	ldr	r0, [pc, #1436]	; 9070 <nrf_dump+0x5e0>
    8ad0:	ebffffdd 	bl	8a4c <nrf_conf_print>
    8ad4:	e3a01000 	mov	r1, #0, 0
    8ad8:	e1a00005 	mov	r0, r5
    8adc:	ebfffdf6 	bl	82bc <nrf_get8>
    8ae0:	e1a04000 	mov	r4, r0
    8ae4:	e1a00007 	mov	r0, r7
    8ae8:	eb001326 	bl	d788 <printk>
    8aec:	e1a020a4 	lsr	r2, r4, #1
    8af0:	e1a03124 	lsr	r3, r4, #2
    8af4:	e2033001 	and	r3, r3, #1, 0
    8af8:	e1a011a4 	lsr	r1, r4, #3
    8afc:	e2011001 	and	r1, r1, #1, 0
    8b00:	e58d1004 	str	r1, [sp, #4]
    8b04:	e58d3000 	str	r3, [sp]
    8b08:	e2043001 	and	r3, r4, #1, 0
    8b0c:	e2022001 	and	r2, r2, #1, 0
    8b10:	e1a01004 	mov	r1, r4
    8b14:	e59f0558 	ldr	r0, [pc, #1368]	; 9074 <nrf_dump+0x5e4>
    8b18:	eb00131a 	bl	d788 <printk>
    8b1c:	e1a01324 	lsr	r1, r4, #6
    8b20:	e1a022a4 	lsr	r2, r4, #5
    8b24:	e1a03224 	lsr	r3, r4, #4
    8b28:	e2033001 	and	r3, r3, #1, 0
    8b2c:	e2022001 	and	r2, r2, #1, 0
    8b30:	e2011001 	and	r1, r1, #1, 0
    8b34:	e59f053c 	ldr	r0, [pc, #1340]	; 9078 <nrf_dump+0x5e8>
    8b38:	eb001312 	bl	d788 <printk>
    8b3c:	e3a01001 	mov	r1, #1, 0
    8b40:	e1a00005 	mov	r0, r5
    8b44:	ebfffddc 	bl	82bc <nrf_get8>
    8b48:	e1a06000 	mov	r6, r0
    8b4c:	e1a00007 	mov	r0, r7
    8b50:	eb00130c 	bl	d788 <printk>
    8b54:	e1a01006 	mov	r1, r6
    8b58:	e59f051c 	ldr	r0, [pc, #1308]	; 907c <nrf_dump+0x5ec>
    8b5c:	eb001309 	bl	d788 <printk>
    8b60:	e356003f 	cmp	r6, #63, 0	; 0x3f
    8b64:	0a000003 	beq	8b78 <nrf_dump+0xe8>
    8b68:	e59f0510 	ldr	r0, [pc, #1296]	; 9080 <nrf_dump+0x5f0>
    8b6c:	eb001305 	bl	d788 <printk>
    8b70:	e3a04000 	mov	r4, #0, 0
    8b74:	ea00000e 	b	8bb4 <nrf_dump+0x124>
    8b78:	e59f0504 	ldr	r0, [pc, #1284]	; 9084 <nrf_dump+0x5f4>
    8b7c:	eb001301 	bl	d788 <printk>
    8b80:	ea000015 	b	8bdc <nrf_dump+0x14c>
    8b84:	e59f34fc 	ldr	r3, [pc, #1276]	; 9088 <nrf_dump+0x5f8>
    8b88:	e58d3000 	str	r3, [sp]
    8b8c:	e3a0301f 	mov	r3, #31, 0
    8b90:	e59f24f4 	ldr	r2, [pc, #1268]	; 908c <nrf_dump+0x5fc>
    8b94:	e59f14f4 	ldr	r1, [pc, #1268]	; 9090 <nrf_dump+0x600>
    8b98:	e59f04f4 	ldr	r0, [pc, #1268]	; 9094 <nrf_dump+0x604>
    8b9c:	eb0012f9 	bl	d788 <printk>
    8ba0:	eb001401 	bl	dbac <clean_reboot>
    8ba4:	e1a01004 	mov	r1, r4
    8ba8:	e59f04e8 	ldr	r0, [pc, #1256]	; 9098 <nrf_dump+0x608>
    8bac:	eb0012f5 	bl	d788 <printk>
    8bb0:	e2844001 	add	r4, r4, #1, 0
    8bb4:	e3540005 	cmp	r4, #5, 0
    8bb8:	ca000005 	bgt	8bd4 <nrf_dump+0x144>
    8bbc:	e354001f 	cmp	r4, #31, 0
    8bc0:	8affffef 	bhi	8b84 <nrf_dump+0xf4>
    8bc4:	e1a03436 	lsr	r3, r6, r4
    8bc8:	e3130001 	tst	r3, #1, 0
    8bcc:	0afffff7 	beq	8bb0 <nrf_dump+0x120>
    8bd0:	eafffff3 	b	8ba4 <nrf_dump+0x114>
    8bd4:	e59f04c0 	ldr	r0, [pc, #1216]	; 909c <nrf_dump+0x60c>
    8bd8:	eb0012ea 	bl	d788 <printk>
    8bdc:	e3a01002 	mov	r1, #2, 0
    8be0:	e1a00005 	mov	r0, r5
    8be4:	ebfffdb4 	bl	82bc <nrf_get8>
    8be8:	e1a06000 	mov	r6, r0
    8bec:	e59f0470 	ldr	r0, [pc, #1136]	; 9064 <nrf_dump+0x5d4>
    8bf0:	eb0012e4 	bl	d788 <printk>
    8bf4:	e1a01006 	mov	r1, r6
    8bf8:	e59f04a0 	ldr	r0, [pc, #1184]	; 90a0 <nrf_dump+0x610>
    8bfc:	eb0012e1 	bl	d788 <printk>
    8c00:	e356003f 	cmp	r6, #63, 0	; 0x3f
    8c04:	0a000003 	beq	8c18 <nrf_dump+0x188>
    8c08:	e59f0494 	ldr	r0, [pc, #1172]	; 90a4 <nrf_dump+0x614>
    8c0c:	eb0012dd 	bl	d788 <printk>
    8c10:	e3a04000 	mov	r4, #0, 0
    8c14:	ea00000e 	b	8c54 <nrf_dump+0x1c4>
    8c18:	e59f0488 	ldr	r0, [pc, #1160]	; 90a8 <nrf_dump+0x618>
    8c1c:	eb0012d9 	bl	d788 <printk>
    8c20:	ea000015 	b	8c7c <nrf_dump+0x1ec>
    8c24:	e59f345c 	ldr	r3, [pc, #1116]	; 9088 <nrf_dump+0x5f8>
    8c28:	e58d3000 	str	r3, [sp]
    8c2c:	e3a0301f 	mov	r3, #31, 0
    8c30:	e59f2454 	ldr	r2, [pc, #1108]	; 908c <nrf_dump+0x5fc>
    8c34:	e59f1454 	ldr	r1, [pc, #1108]	; 9090 <nrf_dump+0x600>
    8c38:	e59f0454 	ldr	r0, [pc, #1108]	; 9094 <nrf_dump+0x604>
    8c3c:	eb0012d1 	bl	d788 <printk>
    8c40:	eb0013d9 	bl	dbac <clean_reboot>
    8c44:	e1a01004 	mov	r1, r4
    8c48:	e59f045c 	ldr	r0, [pc, #1116]	; 90ac <nrf_dump+0x61c>
    8c4c:	eb0012cd 	bl	d788 <printk>
    8c50:	e2844001 	add	r4, r4, #1, 0
    8c54:	e3540005 	cmp	r4, #5, 0
    8c58:	ca000005 	bgt	8c74 <nrf_dump+0x1e4>
    8c5c:	e354001f 	cmp	r4, #31, 0
    8c60:	8affffef 	bhi	8c24 <nrf_dump+0x194>
    8c64:	e1a03436 	lsr	r3, r6, r4
    8c68:	e3130001 	tst	r3, #1, 0
    8c6c:	0afffff7 	beq	8c50 <nrf_dump+0x1c0>
    8c70:	eafffff3 	b	8c44 <nrf_dump+0x1b4>
    8c74:	e59f0420 	ldr	r0, [pc, #1056]	; 909c <nrf_dump+0x60c>
    8c78:	eb0012c2 	bl	d788 <printk>
    8c7c:	e3a01003 	mov	r1, #3, 0
    8c80:	e1a00005 	mov	r0, r5
    8c84:	ebfffd8c 	bl	82bc <nrf_get8>
    8c88:	e2403001 	sub	r3, r0, #1, 0
    8c8c:	e6ef3073 	uxtb	r3, r3
    8c90:	e3530002 	cmp	r3, #2, 0
    8c94:	8a000036 	bhi	8d74 <nrf_dump+0x2e4>
    8c98:	e3500001 	cmp	r0, #1, 0
    8c9c:	1a00003c 	bne	8d94 <nrf_dump+0x304>
    8ca0:	e59f63bc 	ldr	r6, [pc, #956]	; 9064 <nrf_dump+0x5d4>
    8ca4:	e1a00006 	mov	r0, r6
    8ca8:	eb0012b6 	bl	d788 <printk>
    8cac:	e3a01003 	mov	r1, #3, 0
    8cb0:	e59f03f8 	ldr	r0, [pc, #1016]	; 90b0 <nrf_dump+0x620>
    8cb4:	eb0012b3 	bl	d788 <printk>
    8cb8:	e3a01004 	mov	r1, #4, 0
    8cbc:	e1a00005 	mov	r0, r5
    8cc0:	ebfffd7d 	bl	82bc <nrf_get8>
    8cc4:	e1a07000 	mov	r7, r0
    8cc8:	e1a03220 	lsr	r3, r0, #4
    8ccc:	e6ef3073 	uxtb	r3, r3
    8cd0:	e2833001 	add	r3, r3, #1, 0
    8cd4:	e0634283 	rsb	r4, r3, r3, lsl #5
    8cd8:	e0833104 	add	r3, r3, r4, lsl #2
    8cdc:	e1a04083 	lsl	r4, r3, #1
    8ce0:	e200800f 	and	r8, r0, #15, 0
    8ce4:	e1a00006 	mov	r0, r6
    8ce8:	eb0012a6 	bl	d788 <printk>
    8cec:	e1a03008 	mov	r3, r8
    8cf0:	e1a02004 	mov	r2, r4
    8cf4:	e1a01007 	mov	r1, r7
    8cf8:	e59f03b4 	ldr	r0, [pc, #948]	; 90b4 <nrf_dump+0x624>
    8cfc:	eb0012a1 	bl	d788 <printk>
    8d00:	e3a01005 	mov	r1, #5, 0
    8d04:	e1a00005 	mov	r0, r5
    8d08:	ebfffd6b 	bl	82bc <nrf_get8>
    8d0c:	e1a04000 	mov	r4, r0
    8d10:	e1a00006 	mov	r0, r6
    8d14:	eb00129b 	bl	d788 <printk>
    8d18:	e2842e19 	add	r2, r4, #400	; 0x190
    8d1c:	e1a01004 	mov	r1, r4
    8d20:	e59f0390 	ldr	r0, [pc, #912]	; 90b8 <nrf_dump+0x628>
    8d24:	eb001297 	bl	d788 <printk>
    8d28:	e3a01006 	mov	r1, #6, 0
    8d2c:	e1a00005 	mov	r0, r5
    8d30:	ebfffd61 	bl	82bc <nrf_get8>
    8d34:	e1a06000 	mov	r6, r0
    8d38:	e1a042a0 	lsr	r4, r0, #5
    8d3c:	e2144001 	ands	r4, r4, #1, 0
    8d40:	1a00001b 	bne	8db4 <nrf_dump+0x324>
    8d44:	e3100008 	tst	r0, #8, 0
    8d48:	0a000021 	beq	8dd4 <nrf_dump+0x344>
    8d4c:	e3a08002 	mov	r8, #2, 0
    8d50:	e1a030a6 	lsr	r3, r6, #1
    8d54:	e2033003 	and	r3, r3, #3, 0
    8d58:	e3530003 	cmp	r3, #3, 0
    8d5c:	979ff103 	ldrls	pc, [pc, r3, lsl #2]
    8d60:	ea000021 	b	8dec <nrf_dump+0x35c>
    8d64:	00008e04 	.word	0x00008e04
    8d68:	00008ed4 	.word	0x00008ed4
    8d6c:	00008ddc 	.word	0x00008ddc
    8d70:	00008de4 	.word	0x00008de4
    8d74:	e59f3340 	ldr	r3, [pc, #832]	; 90bc <nrf_dump+0x62c>
    8d78:	e58d3000 	str	r3, [sp]
    8d7c:	e59f333c 	ldr	r3, [pc, #828]	; 90c0 <nrf_dump+0x630>
    8d80:	e59f233c 	ldr	r2, [pc, #828]	; 90c4 <nrf_dump+0x634>
    8d84:	e59f133c 	ldr	r1, [pc, #828]	; 90c8 <nrf_dump+0x638>
    8d88:	e59f0304 	ldr	r0, [pc, #772]	; 9094 <nrf_dump+0x604>
    8d8c:	eb00127d 	bl	d788 <printk>
    8d90:	eb001385 	bl	dbac <clean_reboot>
    8d94:	e59f3330 	ldr	r3, [pc, #816]	; 90cc <nrf_dump+0x63c>
    8d98:	e58d3000 	str	r3, [sp]
    8d9c:	e3a03f49 	mov	r3, #292	; 0x124
    8da0:	e59f231c 	ldr	r2, [pc, #796]	; 90c4 <nrf_dump+0x634>
    8da4:	e59f131c 	ldr	r1, [pc, #796]	; 90c8 <nrf_dump+0x638>
    8da8:	e59f02e4 	ldr	r0, [pc, #740]	; 9094 <nrf_dump+0x604>
    8dac:	eb001275 	bl	d788 <printk>
    8db0:	eb00137d 	bl	dbac <clean_reboot>
    8db4:	e59f3314 	ldr	r3, [pc, #788]	; 90d0 <nrf_dump+0x640>
    8db8:	e58d3000 	str	r3, [sp]
    8dbc:	e59f3310 	ldr	r3, [pc, #784]	; 90d4 <nrf_dump+0x644>
    8dc0:	e59f22fc 	ldr	r2, [pc, #764]	; 90c4 <nrf_dump+0x634>
    8dc4:	e59f12fc 	ldr	r1, [pc, #764]	; 90c8 <nrf_dump+0x638>
    8dc8:	e59f02c4 	ldr	r0, [pc, #708]	; 9094 <nrf_dump+0x604>
    8dcc:	eb00126d 	bl	d788 <printk>
    8dd0:	eb001375 	bl	dbac <clean_reboot>
    8dd4:	e3a08001 	mov	r8, #1, 0
    8dd8:	eaffffdc 	b	8d50 <nrf_dump+0x2c0>
    8ddc:	e3e09005 	mvn	r9, #5, 0
    8de0:	ea000008 	b	8e08 <nrf_dump+0x378>
    8de4:	e3a09000 	mov	r9, #0, 0
    8de8:	ea000006 	b	8e08 <nrf_dump+0x378>
    8dec:	e59f32e4 	ldr	r3, [pc, #740]	; 90d8 <nrf_dump+0x648>
    8df0:	e59f22cc 	ldr	r2, [pc, #716]	; 90c4 <nrf_dump+0x634>
    8df4:	e59f12cc 	ldr	r1, [pc, #716]	; 90c8 <nrf_dump+0x638>
    8df8:	e59f02dc 	ldr	r0, [pc, #732]	; 90dc <nrf_dump+0x64c>
    8dfc:	eb001261 	bl	d788 <printk>
    8e00:	eb001369 	bl	dbac <clean_reboot>
    8e04:	e3e09011 	mvn	r9, #17, 0
    8e08:	e59f7254 	ldr	r7, [pc, #596]	; 9064 <nrf_dump+0x5d4>
    8e0c:	e1a00007 	mov	r0, r7
    8e10:	eb00125c 	bl	d788 <printk>
    8e14:	e1a03009 	mov	r3, r9
    8e18:	e1a02008 	mov	r2, r8
    8e1c:	e1a01006 	mov	r1, r6
    8e20:	e59f02b8 	ldr	r0, [pc, #696]	; 90e0 <nrf_dump+0x650>
    8e24:	eb001257 	bl	d788 <printk>
    8e28:	e3a01007 	mov	r1, #7, 0
    8e2c:	e1a00005 	mov	r0, r5
    8e30:	ebfffd21 	bl	82bc <nrf_get8>
    8e34:	e1a06000 	mov	r6, r0
    8e38:	e1a00007 	mov	r0, r7
    8e3c:	eb001251 	bl	d788 <printk>
    8e40:	e1a02326 	lsr	r2, r6, #6
    8e44:	e2022001 	and	r2, r2, #1, 0
    8e48:	e1a032a6 	lsr	r3, r6, #5
    8e4c:	e2033001 	and	r3, r3, #1, 0
    8e50:	e1a00226 	lsr	r0, r6, #4
    8e54:	e2000001 	and	r0, r0, #1, 0
    8e58:	e1a010a6 	lsr	r1, r6, #1
    8e5c:	e2011007 	and	r1, r1, #7, 0
    8e60:	e3510007 	cmp	r1, #7, 0
    8e64:	0a00001c 	beq	8edc <nrf_dump+0x44c>
    8e68:	e59fc274 	ldr	ip, [pc, #628]	; 90e4 <nrf_dump+0x654>
    8e6c:	e206e001 	and	lr, r6, #1, 0
    8e70:	e58de00c 	str	lr, [sp, #12]
    8e74:	e58dc008 	str	ip, [sp, #8]
    8e78:	e58d1004 	str	r1, [sp, #4]
    8e7c:	e58d0000 	str	r0, [sp]
    8e80:	e1a01006 	mov	r1, r6
    8e84:	e59f025c 	ldr	r0, [pc, #604]	; 90e8 <nrf_dump+0x658>
    8e88:	eb00123e 	bl	d788 <printk>
    8e8c:	e3a02000 	mov	r2, #0, 0
    8e90:	e3a03000 	mov	r3, #0, 0
    8e94:	e1cd21f8 	strd	r2, [sp, #24]
    8e98:	e3a03003 	mov	r3, #3, 0
    8e9c:	e28d2018 	add	r2, sp, #24, 0
    8ea0:	e3a01010 	mov	r1, #16, 0
    8ea4:	e1a00005 	mov	r0, r5
    8ea8:	ebfffd4f 	bl	83ec <nrf_getn>
    8eac:	e59f01b0 	ldr	r0, [pc, #432]	; 9064 <nrf_dump+0x5d4>
    8eb0:	eb001234 	bl	d788 <printk>
    8eb4:	e1cd21d8 	ldrd	r2, [sp, #24]
    8eb8:	e59f022c 	ldr	r0, [pc, #556]	; 90ec <nrf_dump+0x65c>
    8ebc:	eb001231 	bl	d788 <printk>
    8ec0:	e3a01002 	mov	r1, #2, 0
    8ec4:	e1a00005 	mov	r0, r5
    8ec8:	ebfffcfb 	bl	82bc <nrf_get8>
    8ecc:	e1a07000 	mov	r7, r0
    8ed0:	ea00000c 	b	8f08 <nrf_dump+0x478>
    8ed4:	e3e0900b 	mvn	r9, #11, 0
    8ed8:	eaffffca 	b	8e08 <nrf_dump+0x378>
    8edc:	e59fc20c 	ldr	ip, [pc, #524]	; 90f0 <nrf_dump+0x660>
    8ee0:	eaffffe1 	b	8e6c <nrf_dump+0x3dc>
    8ee4:	e59f319c 	ldr	r3, [pc, #412]	; 9088 <nrf_dump+0x5f8>
    8ee8:	e58d3000 	str	r3, [sp]
    8eec:	e3a0301f 	mov	r3, #31, 0
    8ef0:	e59f2194 	ldr	r2, [pc, #404]	; 908c <nrf_dump+0x5fc>
    8ef4:	e59f1194 	ldr	r1, [pc, #404]	; 9090 <nrf_dump+0x600>
    8ef8:	e59f0194 	ldr	r0, [pc, #404]	; 9094 <nrf_dump+0x604>
    8efc:	eb001221 	bl	d788 <printk>
    8f00:	eb001329 	bl	dbac <clean_reboot>
    8f04:	e2844001 	add	r4, r4, #1, 0
    8f08:	e3540005 	cmp	r4, #5, 0
    8f0c:	8a000022 	bhi	8f9c <nrf_dump+0x50c>
    8f10:	e354001f 	cmp	r4, #31, 0
    8f14:	8afffff2 	bhi	8ee4 <nrf_dump+0x454>
    8f18:	e1a03437 	lsr	r3, r7, r4
    8f1c:	e3130001 	tst	r3, #1, 0
    8f20:	0afffff7 	beq	8f04 <nrf_dump+0x474>
    8f24:	e3a02000 	mov	r2, #0, 0
    8f28:	e3a03000 	mov	r3, #0, 0
    8f2c:	e1cd21f0 	strd	r2, [sp, #16]
    8f30:	e6ef6074 	uxtb	r6, r4
    8f34:	e286100a 	add	r1, r6, #10, 0
    8f38:	e3a03003 	mov	r3, #3, 0
    8f3c:	e28d2010 	add	r2, sp, #16, 0
    8f40:	e6ef1071 	uxtb	r1, r1
    8f44:	e1a00005 	mov	r0, r5
    8f48:	ebfffd27 	bl	83ec <nrf_getn>
    8f4c:	e59f8110 	ldr	r8, [pc, #272]	; 9064 <nrf_dump+0x5d4>
    8f50:	e1a00008 	mov	r0, r8
    8f54:	eb00120b 	bl	d788 <printk>
    8f58:	e1cd21d0 	ldrd	r2, [sp, #16]
    8f5c:	e1a01004 	mov	r1, r4
    8f60:	e59f018c 	ldr	r0, [pc, #396]	; 90f4 <nrf_dump+0x664>
    8f64:	eb001207 	bl	d788 <printk>
    8f68:	e2861011 	add	r1, r6, #17, 0
    8f6c:	e6ef1071 	uxtb	r1, r1
    8f70:	e1a00005 	mov	r0, r5
    8f74:	ebfffcd0 	bl	82bc <nrf_get8>
    8f78:	e1a06000 	mov	r6, r0
    8f7c:	e1a00008 	mov	r0, r8
    8f80:	eb001200 	bl	d788 <printk>
    8f84:	e1a03006 	mov	r3, r6
    8f88:	e1a02006 	mov	r2, r6
    8f8c:	e1a01004 	mov	r1, r4
    8f90:	e59f0160 	ldr	r0, [pc, #352]	; 90f8 <nrf_dump+0x668>
    8f94:	eb0011fb 	bl	d788 <printk>
    8f98:	eaffffd9 	b	8f04 <nrf_dump+0x474>
    8f9c:	e3a01017 	mov	r1, #23, 0
    8fa0:	e1a00005 	mov	r0, r5
    8fa4:	ebfffcc4 	bl	82bc <nrf_get8>
    8fa8:	e1a04000 	mov	r4, r0
    8fac:	e59f00b0 	ldr	r0, [pc, #176]	; 9064 <nrf_dump+0x5d4>
    8fb0:	eb0011f4 	bl	d788 <printk>
    8fb4:	e1a022a4 	lsr	r2, r4, #5
    8fb8:	e1a03224 	lsr	r3, r4, #4
    8fbc:	e1a010a4 	lsr	r1, r4, #1
    8fc0:	e2011001 	and	r1, r1, #1, 0
    8fc4:	e2040001 	and	r0, r4, #1, 0
    8fc8:	e58d0004 	str	r0, [sp, #4]
    8fcc:	e58d1000 	str	r1, [sp]
    8fd0:	e2033001 	and	r3, r3, #1, 0
    8fd4:	e2022001 	and	r2, r2, #1, 0
    8fd8:	e1a01004 	mov	r1, r4
    8fdc:	e59f0118 	ldr	r0, [pc, #280]	; 90fc <nrf_dump+0x66c>
    8fe0:	eb0011e8 	bl	d788 <printk>
    8fe4:	e3a0101d 	mov	r1, #29, 0
    8fe8:	e1a00005 	mov	r0, r5
    8fec:	ebfffcb2 	bl	82bc <nrf_get8>
    8ff0:	e3500000 	cmp	r0, #0, 0
    8ff4:	1a00000a 	bne	9024 <nrf_dump+0x594>
    8ff8:	e3a0101c 	mov	r1, #28, 0
    8ffc:	e1a00005 	mov	r0, r5
    9000:	ebfffcad 	bl	82bc <nrf_get8>
    9004:	e3500000 	cmp	r0, #0, 0
    9008:	1a00000d 	bne	9044 <nrf_dump+0x5b4>
    900c:	e59f0050 	ldr	r0, [pc, #80]	; 9064 <nrf_dump+0x5d4>
    9010:	eb0011dc 	bl	d788 <printk>
    9014:	e59f004c 	ldr	r0, [pc, #76]	; 9068 <nrf_dump+0x5d8>
    9018:	eb0011da 	bl	d788 <printk>
    901c:	e28dd024 	add	sp, sp, #36, 0	; 0x24
    9020:	e8bd83f0 	pop	{r4, r5, r6, r7, r8, r9, pc}
    9024:	e59f30d4 	ldr	r3, [pc, #212]	; 9100 <nrf_dump+0x670>
    9028:	e58d3000 	str	r3, [sp]
    902c:	e59f30d0 	ldr	r3, [pc, #208]	; 9104 <nrf_dump+0x674>
    9030:	e59f208c 	ldr	r2, [pc, #140]	; 90c4 <nrf_dump+0x634>
    9034:	e59f108c 	ldr	r1, [pc, #140]	; 90c8 <nrf_dump+0x638>
    9038:	e59f0054 	ldr	r0, [pc, #84]	; 9094 <nrf_dump+0x604>
    903c:	eb0011d1 	bl	d788 <printk>
    9040:	eb0012d9 	bl	dbac <clean_reboot>
    9044:	e59f30bc 	ldr	r3, [pc, #188]	; 9108 <nrf_dump+0x678>
    9048:	e58d3000 	str	r3, [sp]
    904c:	e59f30b8 	ldr	r3, [pc, #184]	; 910c <nrf_dump+0x67c>
    9050:	e59f206c 	ldr	r2, [pc, #108]	; 90c4 <nrf_dump+0x634>
    9054:	e59f106c 	ldr	r1, [pc, #108]	; 90c8 <nrf_dump+0x638>
    9058:	e59f0034 	ldr	r0, [pc, #52]	; 9094 <nrf_dump+0x604>
    905c:	eb0011c9 	bl	d788 <printk>
    9060:	eb0012d1 	bl	dbac <clean_reboot>
    9064:	0000e40c 	.word	0x0000e40c
    9068:	0000e450 	.word	0x0000e450
    906c:	0000e480 	.word	0x0000e480
    9070:	0000e488 	.word	0x0000e488
    9074:	0000e490 	.word	0x0000e490
    9078:	0000e4c8 	.word	0x0000e4c8
    907c:	0000e4f8 	.word	0x0000e4f8
    9080:	0000e52c 	.word	0x0000e52c
    9084:	0000e508 	.word	0x0000e508
    9088:	0000e2d8 	.word	0x0000e2d8
    908c:	0000e96c 	.word	0x0000e96c
    9090:	0000e294 	.word	0x0000e294
    9094:	0000e1c4 	.word	0x0000e1c4
    9098:	0000e53c 	.word	0x0000e53c
    909c:	0000f190 	.word	0x0000f190
    90a0:	0000e550 	.word	0x0000e550
    90a4:	0000e578 	.word	0x0000e578
    90a8:	0000e564 	.word	0x0000e564
    90ac:	0000e588 	.word	0x0000e588
    90b0:	0000e5cc 	.word	0x0000e5cc
    90b4:	0000e5ec 	.word	0x0000e5ec
    90b8:	0000e624 	.word	0x0000e624
    90bc:	0000e594 	.word	0x0000e594
    90c0:	00000122 	.word	0x00000122
    90c4:	0000e994 	.word	0x0000e994
    90c8:	0000e1b0 	.word	0x0000e1b0
    90cc:	0000e5a8 	.word	0x0000e5a8
    90d0:	0000e63c 	.word	0x0000e63c
    90d4:	00000131 	.word	0x00000131
    90d8:	00000139 	.word	0x00000139
    90dc:	0000e64c 	.word	0x0000e64c
    90e0:	0000e66c 	.word	0x0000e66c
    90e4:	0000e43c 	.word	0x0000e43c
    90e8:	0000e69c 	.word	0x0000e69c
    90ec:	0000e6e8 	.word	0x0000e6e8
    90f0:	0000e448 	.word	0x0000e448
    90f4:	0000e6fc 	.word	0x0000e6fc
    90f8:	0000e714 	.word	0x0000e714
    90fc:	0000e744 	.word	0x0000e744
    9100:	0000e78c 	.word	0x0000e78c
    9104:	00000162 	.word	0x00000162
    9108:	0000e7ac 	.word	0x0000e7ac
    910c:	00000163 	.word	0x00000163

00009110 <nrf_set_addr>:
    9110:	e92d4070 	push	{r4, r5, r6, lr}
    9114:	e24dd010 	sub	sp, sp, #16, 0
    9118:	e58d200c 	str	r2, [sp, #12]
    911c:	e3530003 	cmp	r3, #3, 0
    9120:	1a000012 	bne	9170 <nrf_set_addr+0x60>
    9124:	e1a05000 	mov	r5, r0
    9128:	e1a06001 	mov	r6, r1
    912c:	e1a04003 	mov	r4, r3
    9130:	e2433003 	sub	r3, r3, #3, 0
    9134:	e3530001 	cmp	r3, #1, 0
    9138:	8a000014 	bhi	9190 <nrf_set_addr+0x80>
    913c:	e1a03004 	mov	r3, r4
    9140:	e28d200c 	add	r2, sp, #12, 0
    9144:	e3811020 	orr	r1, r1, #32, 0
    9148:	ebfffcdd 	bl	84c4 <nrf_putn>
    914c:	e1a02004 	mov	r2, r4
    9150:	e1a01006 	mov	r1, r6
    9154:	e1a00005 	mov	r0, r5
    9158:	ebfffd9d 	bl	87d4 <nrf_get_addr>
    915c:	e59d300c 	ldr	r3, [sp, #12]
    9160:	e1500003 	cmp	r0, r3
    9164:	1a000011 	bne	91b0 <nrf_set_addr+0xa0>
    9168:	e28dd010 	add	sp, sp, #16, 0
    916c:	e8bd8070 	pop	{r4, r5, r6, pc}
    9170:	e59f3064 	ldr	r3, [pc, #100]	; 91dc <nrf_set_addr+0xcc>
    9174:	e58d3000 	str	r3, [sp]
    9178:	e3a030a7 	mov	r3, #167, 0	; 0xa7
    917c:	e59f205c 	ldr	r2, [pc, #92]	; 91e0 <nrf_set_addr+0xd0>
    9180:	e59f105c 	ldr	r1, [pc, #92]	; 91e4 <nrf_set_addr+0xd4>
    9184:	e59f005c 	ldr	r0, [pc, #92]	; 91e8 <nrf_set_addr+0xd8>
    9188:	eb00117e 	bl	d788 <printk>
    918c:	eb001286 	bl	dbac <clean_reboot>
    9190:	e59f3054 	ldr	r3, [pc, #84]	; 91ec <nrf_set_addr+0xdc>
    9194:	e58d3000 	str	r3, [sp]
    9198:	e3a030a8 	mov	r3, #168, 0	; 0xa8
    919c:	e59f203c 	ldr	r2, [pc, #60]	; 91e0 <nrf_set_addr+0xd0>
    91a0:	e59f103c 	ldr	r1, [pc, #60]	; 91e4 <nrf_set_addr+0xd4>
    91a4:	e59f003c 	ldr	r0, [pc, #60]	; 91e8 <nrf_set_addr+0xd8>
    91a8:	eb001176 	bl	d788 <printk>
    91ac:	eb00127e 	bl	dbac <clean_reboot>
    91b0:	e1a01005 	mov	r1, r5
    91b4:	e59f0034 	ldr	r0, [pc, #52]	; 91f0 <nrf_set_addr+0xe0>
    91b8:	ebfffe34 	bl	8a90 <nrf_dump>
    91bc:	e59f3030 	ldr	r3, [pc, #48]	; 91f4 <nrf_set_addr+0xe4>
    91c0:	e58d3000 	str	r3, [sp]
    91c4:	e3a030ae 	mov	r3, #174, 0	; 0xae
    91c8:	e59f2010 	ldr	r2, [pc, #16]	; 91e0 <nrf_set_addr+0xd0>
    91cc:	e59f1010 	ldr	r1, [pc, #16]	; 91e4 <nrf_set_addr+0xd4>
    91d0:	e59f0020 	ldr	r0, [pc, #32]	; 91f8 <nrf_set_addr+0xe8>
    91d4:	eb00116b 	bl	d788 <printk>
    91d8:	eb001273 	bl	dbac <clean_reboot>
    91dc:	0000e300 	.word	0x0000e300
    91e0:	0000e9a0 	.word	0x0000e9a0
    91e4:	0000e1b0 	.word	0x0000e1b0
    91e8:	0000e1c4 	.word	0x0000e1c4
    91ec:	0000e2e8 	.word	0x0000e2e8
    91f0:	0000e7cc 	.word	0x0000e7cc
    91f4:	0000e7f4 	.word	0x0000e7f4
    91f8:	0000e7e0 	.word	0x0000e7e0

000091fc <nrf_stat_print>:
    91fc:	e92d000e 	push	{r1, r2, r3}
    9200:	e92d41f0 	push	{r4, r5, r6, r7, r8, lr}
    9204:	e24dd024 	sub	sp, sp, #36, 0	; 0x24
    9208:	e1a04000 	mov	r4, r0
    920c:	e2803a02 	add	r3, r0, #8192	; 0x2000
    9210:	e593603c 	ldr	r6, [r3, #60]	; 0x3c
    9214:	eb0012bf 	bl	dd18 <timer_get_usec>
    9218:	e0405006 	sub	r5, r0, r6
    921c:	e59f7234 	ldr	r7, [pc, #564]	; 9458 <nrf_stat_print+0x25c>
    9220:	e1a00007 	mov	r0, r7
    9224:	eb001157 	bl	d788 <printk>
    9228:	e28d1040 	add	r1, sp, #64, 0	; 0x40
    922c:	e58d1010 	str	r1, [sp, #16]
    9230:	e59d003c 	ldr	r0, [sp, #60]	; 0x3c
    9234:	eb0011a2 	bl	d8c4 <vprintk>
    9238:	e59f021c 	ldr	r0, [pc, #540]	; 945c <nrf_stat_print+0x260>
    923c:	eb001151 	bl	d788 <printk>
    9240:	e1a00007 	mov	r0, r7
    9244:	eb00114f 	bl	d788 <printk>
    9248:	e59f0210 	ldr	r0, [pc, #528]	; 9460 <nrf_stat_print+0x264>
    924c:	eb00114d 	bl	d788 <printk>
    9250:	eb0012b0 	bl	dd18 <timer_get_usec>
    9254:	e0400006 	sub	r0, r0, r6
    9258:	e59f1204 	ldr	r1, [pc, #516]	; 9464 <nrf_stat_print+0x268>
    925c:	e0813091 	umull	r3, r1, r1, r0
    9260:	e1a01921 	lsr	r1, r1, #18
    9264:	e0613281 	rsb	r3, r1, r1, lsl #5
    9268:	e0632303 	rsb	r2, r3, r3, lsl #6
    926c:	e0812182 	add	r2, r1, r2, lsl #3
    9270:	e0402302 	sub	r2, r0, r2, lsl #6
    9274:	e59f31ec 	ldr	r3, [pc, #492]	; 9468 <nrf_stat_print+0x26c>
    9278:	e082c293 	umull	ip, r2, r3, r2
    927c:	e1a02322 	lsr	r2, r2, #6
    9280:	e083c093 	umull	ip, r3, r3, r0
    9284:	e1a03323 	lsr	r3, r3, #6
    9288:	e063c283 	rsb	ip, r3, r3, lsl #5
    928c:	e083310c 	add	r3, r3, ip, lsl #2
    9290:	e0403183 	sub	r3, r0, r3, lsl #3
    9294:	e58d1014 	str	r1, [sp, #20]
    9298:	e58d2018 	str	r2, [sp, #24]
    929c:	e58d301c 	str	r3, [sp, #28]
    92a0:	e28d3004 	add	r3, sp, #4, 0
    92a4:	e28d2020 	add	r2, sp, #32, 0
    92a8:	e9120007 	ldmdb	r2, {r0, r1, r2}
    92ac:	e8830007 	stm	r3, {r0, r1, r2}
    92b0:	e3500000 	cmp	r0, #0, 0
    92b4:	1a000023 	bne	9348 <nrf_stat_print+0x14c>
    92b8:	e59d1008 	ldr	r1, [sp, #8]
    92bc:	e3510000 	cmp	r1, #0, 0
    92c0:	1a000024 	bne	9358 <nrf_stat_print+0x15c>
    92c4:	e59d100c 	ldr	r1, [sp, #12]
    92c8:	e3510000 	cmp	r1, #0, 0
    92cc:	1a000024 	bne	9364 <nrf_stat_print+0x168>
    92d0:	e59f0194 	ldr	r0, [pc, #404]	; 946c <nrf_stat_print+0x270>
    92d4:	eb00112b 	bl	d788 <printk>
    92d8:	e2843a02 	add	r3, r4, #8192	; 0x2000
    92dc:	e5936040 	ldr	r6, [r3, #64]	; 0x40
    92e0:	e3560000 	cmp	r6, #0, 0
    92e4:	1a000021 	bne	9370 <nrf_stat_print+0x174>
    92e8:	e2843a02 	add	r3, r4, #8192	; 0x2000
    92ec:	e5936044 	ldr	r6, [r3, #68]	; 0x44
    92f0:	e3560000 	cmp	r6, #0, 0
    92f4:	1a000023 	bne	9388 <nrf_stat_print+0x18c>
    92f8:	e2843a02 	add	r3, r4, #8192	; 0x2000
    92fc:	e5931048 	ldr	r1, [r3, #72]	; 0x48
    9300:	e3510000 	cmp	r1, #0, 0
    9304:	1a000033 	bne	93d8 <nrf_stat_print+0x1dc>
    9308:	e2843a02 	add	r3, r4, #8192	; 0x2000
    930c:	e593104c 	ldr	r1, [r3, #76]	; 0x4c
    9310:	e3510000 	cmp	r1, #0, 0
    9314:	1a000032 	bne	93e4 <nrf_stat_print+0x1e8>
    9318:	e2843a02 	add	r3, r4, #8192	; 0x2000
    931c:	e5936050 	ldr	r6, [r3, #80]	; 0x50
    9320:	e3560000 	cmp	r6, #0, 0
    9324:	1a000031 	bne	93f0 <nrf_stat_print+0x1f4>
    9328:	e2844a02 	add	r4, r4, #8192	; 0x2000
    932c:	e5944054 	ldr	r4, [r4, #84]	; 0x54
    9330:	e3540000 	cmp	r4, #0, 0
    9334:	1a000033 	bne	9408 <nrf_stat_print+0x20c>
    9338:	e28dd024 	add	sp, sp, #36, 0	; 0x24
    933c:	e8bd41f0 	pop	{r4, r5, r6, r7, r8, lr}
    9340:	e28dd00c 	add	sp, sp, #12, 0
    9344:	e12fff1e 	bx	lr
    9348:	e1a01000 	mov	r1, r0
    934c:	e59f011c 	ldr	r0, [pc, #284]	; 9470 <nrf_stat_print+0x274>
    9350:	eb00110c 	bl	d788 <printk>
    9354:	eaffffd7 	b	92b8 <nrf_stat_print+0xbc>
    9358:	e59f0114 	ldr	r0, [pc, #276]	; 9474 <nrf_stat_print+0x278>
    935c:	eb001109 	bl	d788 <printk>
    9360:	eaffffd7 	b	92c4 <nrf_stat_print+0xc8>
    9364:	e59f010c 	ldr	r0, [pc, #268]	; 9478 <nrf_stat_print+0x27c>
    9368:	eb001106 	bl	d788 <printk>
    936c:	eaffffd7 	b	92d0 <nrf_stat_print+0xd4>
    9370:	e59f00e0 	ldr	r0, [pc, #224]	; 9458 <nrf_stat_print+0x25c>
    9374:	eb001103 	bl	d788 <printk>
    9378:	e1a01006 	mov	r1, r6
    937c:	e59f00f8 	ldr	r0, [pc, #248]	; 947c <nrf_stat_print+0x280>
    9380:	eb001100 	bl	d788 <printk>
    9384:	eaffffd7 	b	92e8 <nrf_stat_print+0xec>
    9388:	e59f70d8 	ldr	r7, [pc, #216]	; 9468 <nrf_stat_print+0x26c>
    938c:	e0813597 	umull	r3, r1, r7, r5
    9390:	e0660286 	rsb	r0, r6, r6, lsl #5
    9394:	e0860100 	add	r0, r6, r0, lsl #2
    9398:	e1a01321 	lsr	r1, r1, #6
    939c:	e1a00180 	lsl	r0, r0, #3
    93a0:	eb000feb 	bl	d354 <__udivsi3>
    93a4:	e0873097 	umull	r3, r7, r7, r0
    93a8:	e1a07327 	lsr	r7, r7, #6
    93ac:	e0678287 	rsb	r8, r7, r7, lsl #5
    93b0:	e0878108 	add	r8, r7, r8, lsl #2
    93b4:	e0408188 	sub	r8, r0, r8, lsl #3
    93b8:	e59f0098 	ldr	r0, [pc, #152]	; 9458 <nrf_stat_print+0x25c>
    93bc:	eb0010f1 	bl	d788 <printk>
    93c0:	e1a03008 	mov	r3, r8
    93c4:	e1a02007 	mov	r2, r7
    93c8:	e1a01006 	mov	r1, r6
    93cc:	e59f00ac 	ldr	r0, [pc, #172]	; 9480 <nrf_stat_print+0x284>
    93d0:	eb0010ec 	bl	d788 <printk>
    93d4:	eaffffc7 	b	92f8 <nrf_stat_print+0xfc>
    93d8:	e59f00a4 	ldr	r0, [pc, #164]	; 9484 <nrf_stat_print+0x288>
    93dc:	eb0010e9 	bl	d788 <printk>
    93e0:	eaffffc8 	b	9308 <nrf_stat_print+0x10c>
    93e4:	e59f009c 	ldr	r0, [pc, #156]	; 9488 <nrf_stat_print+0x28c>
    93e8:	eb0010e6 	bl	d788 <printk>
    93ec:	eaffffc9 	b	9318 <nrf_stat_print+0x11c>
    93f0:	e59f0060 	ldr	r0, [pc, #96]	; 9458 <nrf_stat_print+0x25c>
    93f4:	eb0010e3 	bl	d788 <printk>
    93f8:	e1a01006 	mov	r1, r6
    93fc:	e59f0088 	ldr	r0, [pc, #136]	; 948c <nrf_stat_print+0x290>
    9400:	eb0010e0 	bl	d788 <printk>
    9404:	eaffffc7 	b	9328 <nrf_stat_print+0x12c>
    9408:	e59f6058 	ldr	r6, [pc, #88]	; 9468 <nrf_stat_print+0x26c>
    940c:	e0813596 	umull	r3, r1, r6, r5
    9410:	e0640284 	rsb	r0, r4, r4, lsl #5
    9414:	e0840100 	add	r0, r4, r0, lsl #2
    9418:	e1a01321 	lsr	r1, r1, #6
    941c:	e1a00180 	lsl	r0, r0, #3
    9420:	eb000fcb 	bl	d354 <__udivsi3>
    9424:	e0853096 	umull	r3, r5, r6, r0
    9428:	e1a05325 	lsr	r5, r5, #6
    942c:	e0656285 	rsb	r6, r5, r5, lsl #5
    9430:	e0856106 	add	r6, r5, r6, lsl #2
    9434:	e0406186 	sub	r6, r0, r6, lsl #3
    9438:	e59f0018 	ldr	r0, [pc, #24]	; 9458 <nrf_stat_print+0x25c>
    943c:	eb0010d1 	bl	d788 <printk>
    9440:	e1a03006 	mov	r3, r6
    9444:	e1a02005 	mov	r2, r5
    9448:	e1a01004 	mov	r1, r4
    944c:	e59f003c 	ldr	r0, [pc, #60]	; 9490 <nrf_stat_print+0x294>
    9450:	eb0010cc 	bl	d788 <printk>
    9454:	eaffffb7 	b	9338 <nrf_stat_print+0x13c>
    9458:	0000e40c 	.word	0x0000e40c
    945c:	0000f190 	.word	0x0000f190
    9460:	0000e81c 	.word	0x0000e81c
    9464:	431bde83 	.word	0x431bde83
    9468:	10624dd3 	.word	0x10624dd3
    946c:	0000e844 	.word	0x0000e844
    9470:	0000e82c 	.word	0x0000e82c
    9474:	0000e834 	.word	0x0000e834
    9478:	0000e83c 	.word	0x0000e83c
    947c:	0000e848 	.word	0x0000e848
    9480:	0000e864 	.word	0x0000e864
    9484:	0000e894 	.word	0x0000e894
    9488:	0000e8a8 	.word	0x0000e8a8
    948c:	0000e8b8 	.word	0x0000e8b8
    9490:	0000e8d8 	.word	0x0000e8d8

00009494 <timeout_start>:
    9494:	e92d4010 	push	{r4, lr}
    9498:	e1a04000 	mov	r4, r0
    949c:	eb00121d 	bl	dd18 <timer_get_usec>
    94a0:	e5840000 	str	r0, [r4]
    94a4:	e3a02000 	mov	r2, #0, 0
    94a8:	e3a03000 	mov	r3, #0, 0
    94ac:	e1c420f8 	strd	r2, [r4, #8]
    94b0:	e1a00004 	mov	r0, r4
    94b4:	e8bd8010 	pop	{r4, pc}

000094b8 <nrf_nbytes_avail>:
    94b8:	e92d4010 	push	{r4, lr}
    94bc:	e1a04000 	mov	r4, r0
    94c0:	e1a00004 	mov	r0, r4
    94c4:	eb0004b3 	bl	a798 <nrf_get_pkts>
    94c8:	e3500000 	cmp	r0, #0, 0
    94cc:	1afffffb 	bne	94c0 <nrf_nbytes_avail+0x8>
    94d0:	e2844a02 	add	r4, r4, #8192	; 0x2000
    94d4:	e5940028 	ldr	r0, [r4, #40]	; 0x28
    94d8:	e594302c 	ldr	r3, [r4, #44]	; 0x2c
    94dc:	e0400003 	sub	r0, r0, r3
    94e0:	e1a00980 	lsl	r0, r0, #19
    94e4:	e1a009a0 	lsr	r0, r0, #19
    94e8:	e8bd8010 	pop	{r4, pc}

000094ec <nrf_read_exact_noblk>:
    94ec:	e92d4070 	push	{r4, r5, r6, lr}
    94f0:	e24dd008 	sub	sp, sp, #8, 0
    94f4:	e2525000 	subs	r5, r2, #0, 0
    94f8:	0a000007 	beq	951c <nrf_read_exact_noblk+0x30>
    94fc:	e1a04000 	mov	r4, r0
    9500:	e1a06001 	mov	r6, r1
    9504:	ebffffeb 	bl	94b8 <nrf_nbytes_avail>
    9508:	e1550000 	cmp	r5, r0
    950c:	8a000026 	bhi	95ac <nrf_read_exact_noblk+0xc0>
    9510:	e284e024 	add	lr, r4, #36, 0	; 0x24
    9514:	e3a0c000 	mov	ip, #0, 0
    9518:	ea00000f 	b	955c <nrf_read_exact_noblk+0x70>
    951c:	e59f3090 	ldr	r3, [pc, #144]	; 95b4 <nrf_read_exact_noblk+0xc8>
    9520:	e58d3000 	str	r3, [sp]
    9524:	e3a0301b 	mov	r3, #27, 0
    9528:	e59f2088 	ldr	r2, [pc, #136]	; 95b8 <nrf_read_exact_noblk+0xcc>
    952c:	e59f1088 	ldr	r1, [pc, #136]	; 95bc <nrf_read_exact_noblk+0xd0>
    9530:	e59f0088 	ldr	r0, [pc, #136]	; 95c0 <nrf_read_exact_noblk+0xd4>
    9534:	eb001093 	bl	d788 <printk>
    9538:	eb00119b 	bl	dbac <clean_reboot>
    953c:	e7de2003 	ldrb	r2, [lr, r3]
    9540:	e2833001 	add	r3, r3, #1, 0
    9544:	e1a03983 	lsl	r3, r3, #19
    9548:	e1a039a3 	lsr	r3, r3, #19
    954c:	e28e0a02 	add	r0, lr, #8192	; 0x2000
    9550:	e5803008 	str	r3, [r0, #8]
    9554:	e5c12000 	strb	r2, [r1]
    9558:	e28cc001 	add	ip, ip, #1, 0
    955c:	e155000c 	cmp	r5, ip
    9560:	9a00000e 	bls	95a0 <nrf_read_exact_noblk+0xb4>
    9564:	e086100c 	add	r1, r6, ip
    9568:	e28e3a02 	add	r3, lr, #8192	; 0x2000
    956c:	e5932004 	ldr	r2, [r3, #4]
    9570:	e5933008 	ldr	r3, [r3, #8]
    9574:	e1520003 	cmp	r2, r3
    9578:	1affffef 	bne	953c <nrf_read_exact_noblk+0x50>
    957c:	e10f3000 	mrs	r3, CPSR
    9580:	e3130080 	tst	r3, #128, 0	; 0x80
    9584:	0afffff7 	beq	9568 <nrf_read_exact_noblk+0x7c>
    9588:	e3a0305f 	mov	r3, #95, 0	; 0x5f
    958c:	e59f2030 	ldr	r2, [pc, #48]	; 95c4 <nrf_read_exact_noblk+0xd8>
    9590:	e59f1030 	ldr	r1, [pc, #48]	; 95c8 <nrf_read_exact_noblk+0xdc>
    9594:	e59f0030 	ldr	r0, [pc, #48]	; 95cc <nrf_read_exact_noblk+0xe0>
    9598:	eb00107a 	bl	d788 <printk>
    959c:	eb001182 	bl	dbac <clean_reboot>
    95a0:	e1a00005 	mov	r0, r5
    95a4:	e28dd008 	add	sp, sp, #8, 0
    95a8:	e8bd8070 	pop	{r4, r5, r6, pc}
    95ac:	e3a00000 	mov	r0, #0, 0
    95b0:	eafffffb 	b	95a4 <nrf_read_exact_noblk+0xb8>
    95b4:	0000e280 	.word	0x0000e280
    95b8:	0000ea90 	.word	0x0000ea90
    95bc:	0000e9b0 	.word	0x0000e9b0
    95c0:	0000e1c4 	.word	0x0000e1c4
    95c4:	0000eaa8 	.word	0x0000eaa8
    95c8:	0000e9c0 	.word	0x0000e9c0
    95cc:	0000ea00 	.word	0x0000ea00

000095d0 <nrf_read_exact_timeout>:
    95d0:	e92d43f0 	push	{r4, r5, r6, r7, r8, r9, lr}
    95d4:	e24dd014 	sub	sp, sp, #20, 0
    95d8:	e1a08000 	mov	r8, r0
    95dc:	e1a07001 	mov	r7, r1
    95e0:	e1a06002 	mov	r6, r2
    95e4:	e1a09003 	mov	r9, r3
    95e8:	e1a0000d 	mov	r0, sp
    95ec:	ebffffa8 	bl	9494 <timeout_start>
    95f0:	e1a02006 	mov	r2, r6
    95f4:	e1a01007 	mov	r1, r7
    95f8:	e1a00008 	mov	r0, r8
    95fc:	ebffffba 	bl	94ec <nrf_read_exact_noblk>
    9600:	e3500000 	cmp	r0, #0, 0
    9604:	1a00000e 	bne	9644 <nrf_read_exact_timeout+0x74>
    9608:	eb0011c2 	bl	dd18 <timer_get_usec>
    960c:	e59d3000 	ldr	r3, [sp]
    9610:	e0403003 	sub	r3, r0, r3
    9614:	e1cd40d8 	ldrd	r4, [sp, #8]
    9618:	e0944003 	adds	r4, r4, r3
    961c:	e2a55000 	adc	r5, r5, #0, 0
    9620:	e1cd40f8 	strd	r4, [sp, #8]
    9624:	e58d0000 	str	r0, [sp]
    9628:	e3a03000 	mov	r3, #0, 0
    962c:	e1530005 	cmp	r3, r5
    9630:	01590004 	cmpeq	r9, r4
    9634:	9a000001 	bls	9640 <nrf_read_exact_timeout+0x70>
    9638:	eb0011b0 	bl	dd00 <rpi_wait>
    963c:	eaffffeb 	b	95f0 <nrf_read_exact_timeout+0x20>
    9640:	e3e00000 	mvn	r0, #0, 0
    9644:	e28dd014 	add	sp, sp, #20, 0
    9648:	e8bd83f0 	pop	{r4, r5, r6, r7, r8, r9, pc}

0000964c <nrf_read_exact>:
    964c:	e92d4030 	push	{r4, r5, lr}
    9650:	e24dd014 	sub	sp, sp, #20, 0
    9654:	e1a05000 	mov	r5, r0
    9658:	e1a04002 	mov	r4, r2
    965c:	e59f303c 	ldr	r3, [pc, #60]	; 96a0 <nrf_read_exact+0x54>
    9660:	ebffffda 	bl	95d0 <nrf_read_exact_timeout>
    9664:	e1500004 	cmp	r0, r4
    9668:	1a000001 	bne	9674 <nrf_read_exact+0x28>
    966c:	e28dd014 	add	sp, sp, #20, 0
    9670:	e8bd8030 	pop	{r4, r5, pc}
    9674:	e3a0300a 	mov	r3, #10, 0
    9678:	e58d3008 	str	r3, [sp, #8]
    967c:	e58d0004 	str	r0, [sp, #4]
    9680:	e5953020 	ldr	r3, [r5, #32]
    9684:	e58d3000 	str	r3, [sp]
    9688:	e3a03048 	mov	r3, #72, 0	; 0x48
    968c:	e59f2010 	ldr	r2, [pc, #16]	; 96a4 <nrf_read_exact+0x58>
    9690:	e59f1010 	ldr	r1, [pc, #16]	; 96a8 <nrf_read_exact+0x5c>
    9694:	e59f0010 	ldr	r0, [pc, #16]	; 96ac <nrf_read_exact+0x60>
    9698:	eb00103a 	bl	d788 <printk>
    969c:	eb001142 	bl	dbac <clean_reboot>
    96a0:	00989680 	.word	0x00989680
    96a4:	0000eab0 	.word	0x0000eab0
    96a8:	0000e9b0 	.word	0x0000e9b0
    96ac:	0000ea40 	.word	0x0000ea40

000096b0 <nrf_send_ack>:
    96b0:	e92d4010 	push	{r4, lr}
    96b4:	eb000508 	bl	aadc <nrf_tx_send_ack>
    96b8:	e8bd8010 	pop	{r4, pc}

000096bc <nrf_send_noack>:
    96bc:	e92d4010 	push	{r4, lr}
    96c0:	eb0005dd 	bl	ae3c <nrf_tx_send_noack>
    96c4:	e8bd8010 	pop	{r4, pc}

000096c8 <nrf_rx_has_packet>:
    96c8:	e92d4010 	push	{r4, lr}
    96cc:	e3a02000 	mov	r2, #0, 0
    96d0:	e3a01017 	mov	r1, #23, 0
    96d4:	ebfffc1b 	bl	8748 <nrf_bit_isset>
    96d8:	e16f0f10 	clz	r0, r0
    96dc:	e1a002a0 	lsr	r0, r0, #5
    96e0:	e8bd8010 	pop	{r4, pc}

000096e4 <nrf_tx_mode>:
    96e4:	e92d4030 	push	{r4, r5, lr}
    96e8:	e24dd01c 	sub	sp, sp, #28, 0
    96ec:	e5d05001 	ldrb	r5, [r0, #1]
    96f0:	e2453005 	sub	r3, r5, #5, 0
    96f4:	e6ef3073 	uxtb	r3, r3
    96f8:	e3530001 	cmp	r3, #1, 0
    96fc:	8a000022 	bhi	978c <nrf_tx_mode+0xa8>
    9700:	e1a04000 	mov	r4, r0
    9704:	eb001169 	bl	dcb0 <dev_barrier>
    9708:	e1a00005 	mov	r0, r5
    970c:	eb000f63 	bl	d4a0 <gpio_set_off>
    9710:	eb001166 	bl	dcb0 <dev_barrier>
    9714:	e59f30d4 	ldr	r3, [pc, #212]	; 97f0 <nrf_tx_mode+0x10c>
    9718:	e58d300c 	str	r3, [sp, #12]
    971c:	e59f30d0 	ldr	r3, [pc, #208]	; 97f4 <nrf_tx_mode+0x110>
    9720:	e58d3010 	str	r3, [sp, #16]
    9724:	e59f30cc 	ldr	r3, [pc, #204]	; 97f8 <nrf_tx_mode+0x114>
    9728:	e58d3014 	str	r3, [sp, #20]
    972c:	e3a0307e 	mov	r3, #126, 0	; 0x7e
    9730:	e58d3004 	str	r3, [sp, #4]
    9734:	e3a03000 	mov	r3, #0, 0
    9738:	e58d3000 	str	r3, [sp]
    973c:	e1a03004 	mov	r3, r4
    9740:	e28d2018 	add	r2, sp, #24, 0
    9744:	e9120007 	ldmdb	r2, {r0, r1, r2}
    9748:	ebfffb05 	bl	8364 <nrf_put8_chk_helper>
    974c:	e5d45001 	ldrb	r5, [r4, #1]
    9750:	e2453005 	sub	r3, r5, #5, 0
    9754:	e6ef3073 	uxtb	r3, r3
    9758:	e3530001 	cmp	r3, #1, 0
    975c:	8a000011 	bhi	97a8 <nrf_tx_mode+0xc4>
    9760:	eb001152 	bl	dcb0 <dev_barrier>
    9764:	e1a00005 	mov	r0, r5
    9768:	eb000f3f 	bl	d46c <gpio_set_on>
    976c:	eb00114f 	bl	dcb0 <dev_barrier>
    9770:	e3a01000 	mov	r1, #0, 0
    9774:	e1a00004 	mov	r0, r4
    9778:	ebfffacf 	bl	82bc <nrf_get8>
    977c:	e3100001 	tst	r0, #1, 0
    9780:	1a00000f 	bne	97c4 <nrf_tx_mode+0xe0>
    9784:	e28dd01c 	add	sp, sp, #28, 0
    9788:	e8bd8030 	pop	{r4, r5, pc}
    978c:	e58d5000 	str	r5, [sp]
    9790:	e3a03046 	mov	r3, #70, 0	; 0x46
    9794:	e59f2060 	ldr	r2, [pc, #96]	; 97fc <nrf_tx_mode+0x118>
    9798:	e59f1050 	ldr	r1, [pc, #80]	; 97f0 <nrf_tx_mode+0x10c>
    979c:	e59f005c 	ldr	r0, [pc, #92]	; 9800 <nrf_tx_mode+0x11c>
    97a0:	eb000ff8 	bl	d788 <printk>
    97a4:	eb001100 	bl	dbac <clean_reboot>
    97a8:	e58d5000 	str	r5, [sp]
    97ac:	e3a03052 	mov	r3, #82, 0	; 0x52
    97b0:	e59f204c 	ldr	r2, [pc, #76]	; 9804 <nrf_tx_mode+0x120>
    97b4:	e59f1034 	ldr	r1, [pc, #52]	; 97f0 <nrf_tx_mode+0x10c>
    97b8:	e59f0040 	ldr	r0, [pc, #64]	; 9800 <nrf_tx_mode+0x11c>
    97bc:	eb000ff1 	bl	d788 <printk>
    97c0:	eb0010f9 	bl	dbac <clean_reboot>
    97c4:	e1a01004 	mov	r1, r4
    97c8:	e59f0038 	ldr	r0, [pc, #56]	; 9808 <nrf_tx_mode+0x124>
    97cc:	ebfffcaf 	bl	8a90 <nrf_dump>
    97d0:	e59f3034 	ldr	r3, [pc, #52]	; 980c <nrf_tx_mode+0x128>
    97d4:	e58d3000 	str	r3, [sp]
    97d8:	e59f3030 	ldr	r3, [pc, #48]	; 9810 <nrf_tx_mode+0x12c>
    97dc:	e59f2010 	ldr	r2, [pc, #16]	; 97f4 <nrf_tx_mode+0x110>
    97e0:	e59f1008 	ldr	r1, [pc, #8]	; 97f0 <nrf_tx_mode+0x10c>
    97e4:	e59f0028 	ldr	r0, [pc, #40]	; 9814 <nrf_tx_mode+0x130>
    97e8:	eb000fe6 	bl	d788 <printk>
    97ec:	eb0010ee 	bl	dbac <clean_reboot>
    97f0:	0000eac0 	.word	0x0000eac0
    97f4:	0000ee0c 	.word	0x0000ee0c
    97f8:	00000156 	.word	0x00000156
    97fc:	0000ee04 	.word	0x0000ee04
    9800:	0000ead0 	.word	0x0000ead0
    9804:	0000ee18 	.word	0x0000ee18
    9808:	0000e7cc 	.word	0x0000e7cc
    980c:	0000eafc 	.word	0x0000eafc
    9810:	00000159 	.word	0x00000159
    9814:	0000e7e0 	.word	0x0000e7e0

00009818 <nrf_rx_mode>:
    9818:	e92d40f0 	push	{r4, r5, r6, r7, lr}
    981c:	e24dd024 	sub	sp, sp, #36, 0	; 0x24
    9820:	e1a04000 	mov	r4, r0
    9824:	e59f70e0 	ldr	r7, [pc, #224]	; 990c <nrf_rx_mode+0xf4>
    9828:	e58d7008 	str	r7, [sp, #8]
    982c:	e59f60dc 	ldr	r6, [pc, #220]	; 9910 <nrf_rx_mode+0xf8>
    9830:	e58d600c 	str	r6, [sp, #12]
    9834:	e59f30d8 	ldr	r3, [pc, #216]	; 9914 <nrf_rx_mode+0xfc>
    9838:	e58d3010 	str	r3, [sp, #16]
    983c:	e3a05000 	mov	r5, #0, 0
    9840:	e58d5004 	str	r5, [sp, #4]
    9844:	e58d5000 	str	r5, [sp]
    9848:	e1a03000 	mov	r3, r0
    984c:	e28d2008 	add	r2, sp, #8, 0
    9850:	e8920007 	ldm	r2, {r0, r1, r2}
    9854:	ebfffac2 	bl	8364 <nrf_put8_chk_helper>
    9858:	e58d7014 	str	r7, [sp, #20]
    985c:	e58d6018 	str	r6, [sp, #24]
    9860:	e59f30b0 	ldr	r3, [pc, #176]	; 9918 <nrf_rx_mode+0x100>
    9864:	e58d301c 	str	r3, [sp, #28]
    9868:	e3a0307f 	mov	r3, #127, 0	; 0x7f
    986c:	e58d3004 	str	r3, [sp, #4]
    9870:	e58d5000 	str	r5, [sp]
    9874:	e1a03004 	mov	r3, r4
    9878:	e28d2020 	add	r2, sp, #32, 0
    987c:	e9120007 	ldmdb	r2, {r0, r1, r2}
    9880:	ebfffab7 	bl	8364 <nrf_put8_chk_helper>
    9884:	e5d45001 	ldrb	r5, [r4, #1]
    9888:	e2453005 	sub	r3, r5, #5, 0
    988c:	e6ef3073 	uxtb	r3, r3
    9890:	e3530001 	cmp	r3, #1, 0
    9894:	8a00000a 	bhi	98c4 <nrf_rx_mode+0xac>
    9898:	eb001104 	bl	dcb0 <dev_barrier>
    989c:	e1a00005 	mov	r0, r5
    98a0:	eb000ef1 	bl	d46c <gpio_set_on>
    98a4:	eb001101 	bl	dcb0 <dev_barrier>
    98a8:	e3a01000 	mov	r1, #0, 0
    98ac:	e1a00004 	mov	r0, r4
    98b0:	ebfffa81 	bl	82bc <nrf_get8>
    98b4:	e3100001 	tst	r0, #1, 0
    98b8:	0a000008 	beq	98e0 <nrf_rx_mode+0xc8>
    98bc:	e28dd024 	add	sp, sp, #36, 0	; 0x24
    98c0:	e8bd80f0 	pop	{r4, r5, r6, r7, pc}
    98c4:	e58d5000 	str	r5, [sp]
    98c8:	e3a03052 	mov	r3, #82, 0	; 0x52
    98cc:	e2462008 	sub	r2, r6, #8, 0
    98d0:	e1a01007 	mov	r1, r7
    98d4:	e59f0040 	ldr	r0, [pc, #64]	; 991c <nrf_rx_mode+0x104>
    98d8:	eb000faa 	bl	d788 <printk>
    98dc:	eb0010b2 	bl	dbac <clean_reboot>
    98e0:	e1a01004 	mov	r1, r4
    98e4:	e59f0034 	ldr	r0, [pc, #52]	; 9920 <nrf_rx_mode+0x108>
    98e8:	ebfffc68 	bl	8a90 <nrf_dump>
    98ec:	e59f3030 	ldr	r3, [pc, #48]	; 9924 <nrf_rx_mode+0x10c>
    98f0:	e58d3000 	str	r3, [sp]
    98f4:	e59f302c 	ldr	r3, [pc, #44]	; 9928 <nrf_rx_mode+0x110>
    98f8:	e59f2010 	ldr	r2, [pc, #16]	; 9910 <nrf_rx_mode+0xf8>
    98fc:	e59f1008 	ldr	r1, [pc, #8]	; 990c <nrf_rx_mode+0xf4>
    9900:	e59f0024 	ldr	r0, [pc, #36]	; 992c <nrf_rx_mode+0x114>
    9904:	eb000f9f 	bl	d788 <printk>
    9908:	eb0010a7 	bl	dbac <clean_reboot>
    990c:	0000eac0 	.word	0x0000eac0
    9910:	0000ee20 	.word	0x0000ee20
    9914:	0000013b 	.word	0x0000013b
    9918:	0000013f 	.word	0x0000013f
    991c:	0000ead0 	.word	0x0000ead0
    9920:	0000e7cc 	.word	0x0000e7cc
    9924:	0000eb0c 	.word	0x0000eb0c
    9928:	00000143 	.word	0x00000143
    992c:	0000e7e0 	.word	0x0000e7e0

00009930 <nrf_init>:
    9930:	e92d4ff0 	push	{r4, r5, r6, r7, r8, r9, sl, fp, lr}
    9934:	e24ddf51 	sub	sp, sp, #324	; 0x144
    9938:	e28d5020 	add	r5, sp, #32, 0
    993c:	e8850003 	stm	r5, {r0, r1}
    9940:	e1a06002 	mov	r6, r2
    9944:	e1a07003 	mov	r7, r3
    9948:	e59f0d90 	ldr	r0, [pc, #3472]	; a6e0 <nrf_init+0xdb0>
    994c:	eb000e1e 	bl	d1cc <kmalloc>
    9950:	e1a04000 	mov	r4, r0
    9954:	e8950003 	ldm	r5, {r0, r1}
    9958:	e5840000 	str	r0, [r4]
    995c:	e5c41004 	strb	r1, [r4, #4]
    9960:	eb0010ec 	bl	dd18 <timer_get_usec>
    9964:	e2843a02 	add	r3, r4, #8192	; 0x2000
    9968:	e583003c 	str	r0, [r3, #60]	; 0x3c
    996c:	e3a05000 	mov	r5, #0, 0
    9970:	e5835040 	str	r5, [r3, #64]	; 0x40
    9974:	e5835044 	str	r5, [r3, #68]	; 0x44
    9978:	e5835048 	str	r5, [r3, #72]	; 0x48
    997c:	e583504c 	str	r5, [r3, #76]	; 0x4c
    9980:	e5835050 	str	r5, [r3, #80]	; 0x50
    9984:	e5835054 	str	r5, [r3, #84]	; 0x54
    9988:	e5dd8021 	ldrb	r8, [sp, #33]	; 0x21
    998c:	e5dd2020 	ldrb	r2, [sp, #32]
    9990:	e1a01008 	mov	r1, r8
    9994:	e28d0008 	add	r0, sp, #8, 0
    9998:	ebfffa15 	bl	81f4 <nrf_spi_init>
    999c:	e284e008 	add	lr, r4, #8, 0
    99a0:	e28dc008 	add	ip, sp, #8, 0
    99a4:	e8bc000f 	ldm	ip!, {r0, r1, r2, r3}
    99a8:	e8ae000f 	stmia	lr!, {r0, r1, r2, r3}
    99ac:	e89c0003 	ldm	ip, {r0, r1}
    99b0:	e88e0003 	stm	lr, {r0, r1}
    99b4:	e5846020 	str	r6, [r4, #32]
    99b8:	e2849024 	add	r9, r4, #36, 0	; 0x24
    99bc:	e59f2d20 	ldr	r2, [pc, #3360]	; a6e4 <nrf_init+0xdb4>
    99c0:	e1a01005 	mov	r1, r5
    99c4:	e1a00009 	mov	r0, r9
    99c8:	eb000f46 	bl	d6e8 <memset>
    99cc:	e2891a02 	add	r1, r9, #8192	; 0x2000
    99d0:	e59f3d10 	ldr	r3, [pc, #3344]	; a6e8 <nrf_init+0xdb8>
    99d4:	e5813000 	str	r3, [r1]
    99d8:	e5815008 	str	r5, [r1, #8]
    99dc:	e5815004 	str	r5, [r1, #4]
    99e0:	e581500c 	str	r5, [r1, #12]
    99e4:	e5d13010 	ldrb	r3, [r1, #16]
    99e8:	e3833001 	orr	r3, r3, #1, 0
    99ec:	e5c13010 	strb	r3, [r1, #16]
    99f0:	e5912004 	ldr	r2, [r1, #4]
    99f4:	e5913008 	ldr	r3, [r1, #8]
    99f8:	e1520003 	cmp	r2, r3
    99fc:	1a000021 	bne	9a88 <nrf_init+0x158>
    9a00:	e2892a02 	add	r2, r9, #8192	; 0x2000
    9a04:	e5923004 	ldr	r3, [r2, #4]
    9a08:	e2833001 	add	r3, r3, #1, 0
    9a0c:	e1a03983 	lsl	r3, r3, #19
    9a10:	e1a039a3 	lsr	r3, r3, #19
    9a14:	e5922008 	ldr	r2, [r2, #8]
    9a18:	e1530002 	cmp	r3, r2
    9a1c:	0a000021 	beq	9aa8 <nrf_init+0x178>
    9a20:	e2892a02 	add	r2, r9, #8192	; 0x2000
    9a24:	e5923004 	ldr	r3, [r2, #4]
    9a28:	e5922008 	ldr	r2, [r2, #8]
    9a2c:	e0433002 	sub	r3, r3, r2
    9a30:	e1a03983 	lsl	r3, r3, #19
    9a34:	e1a039a3 	lsr	r3, r3, #19
    9a38:	e3530000 	cmp	r3, #0, 0
    9a3c:	1a000021 	bne	9ac8 <nrf_init+0x198>
    9a40:	e2893a02 	add	r3, r9, #8192	; 0x2000
    9a44:	e5932004 	ldr	r2, [r3, #4]
    9a48:	e5933008 	ldr	r3, [r3, #8]
    9a4c:	e1520003 	cmp	r2, r3
    9a50:	0a000024 	beq	9ae8 <nrf_init+0x1b8>
    9a54:	e2833001 	add	r3, r3, #1, 0
    9a58:	e1a03983 	lsl	r3, r3, #19
    9a5c:	e1a039a3 	lsr	r3, r3, #19
    9a60:	e2899a02 	add	r9, r9, #8192	; 0x2000
    9a64:	e5893008 	str	r3, [r9, #8]
    9a68:	e59f3c7c 	ldr	r3, [pc, #3196]	; a6ec <nrf_init+0xdbc>
    9a6c:	e58d3000 	str	r3, [sp]
    9a70:	e3a030d7 	mov	r3, #215, 0	; 0xd7
    9a74:	e59f2c74 	ldr	r2, [pc, #3188]	; a6f0 <nrf_init+0xdc0>
    9a78:	e59f1c74 	ldr	r1, [pc, #3188]	; a6f4 <nrf_init+0xdc4>
    9a7c:	e59f0c74 	ldr	r0, [pc, #3188]	; a6f8 <nrf_init+0xdc8>
    9a80:	eb000f40 	bl	d788 <printk>
    9a84:	eb001048 	bl	dbac <clean_reboot>
    9a88:	e59f3c6c 	ldr	r3, [pc, #3180]	; a6fc <nrf_init+0xdcc>
    9a8c:	e58d3000 	str	r3, [sp]
    9a90:	e3a030d3 	mov	r3, #211, 0	; 0xd3
    9a94:	e59f2c54 	ldr	r2, [pc, #3156]	; a6f0 <nrf_init+0xdc0>
    9a98:	e59f1c54 	ldr	r1, [pc, #3156]	; a6f4 <nrf_init+0xdc4>
    9a9c:	e59f0c54 	ldr	r0, [pc, #3156]	; a6f8 <nrf_init+0xdc8>
    9aa0:	eb000f38 	bl	d788 <printk>
    9aa4:	eb001040 	bl	dbac <clean_reboot>
    9aa8:	e59f3c50 	ldr	r3, [pc, #3152]	; a700 <nrf_init+0xdd0>
    9aac:	e58d3000 	str	r3, [sp]
    9ab0:	e3a030d4 	mov	r3, #212, 0	; 0xd4
    9ab4:	e59f2c34 	ldr	r2, [pc, #3124]	; a6f0 <nrf_init+0xdc0>
    9ab8:	e59f1c34 	ldr	r1, [pc, #3124]	; a6f4 <nrf_init+0xdc4>
    9abc:	e59f0c34 	ldr	r0, [pc, #3124]	; a6f8 <nrf_init+0xdc8>
    9ac0:	eb000f30 	bl	d788 <printk>
    9ac4:	eb001038 	bl	dbac <clean_reboot>
    9ac8:	e59f3c34 	ldr	r3, [pc, #3124]	; a704 <nrf_init+0xdd4>
    9acc:	e58d3000 	str	r3, [sp]
    9ad0:	e3a030d5 	mov	r3, #213, 0	; 0xd5
    9ad4:	e59f2c14 	ldr	r2, [pc, #3092]	; a6f0 <nrf_init+0xdc0>
    9ad8:	e59f1c14 	ldr	r1, [pc, #3092]	; a6f4 <nrf_init+0xdc4>
    9adc:	e59f0c14 	ldr	r0, [pc, #3092]	; a6f8 <nrf_init+0xdc8>
    9ae0:	eb000f28 	bl	d788 <printk>
    9ae4:	eb001030 	bl	dbac <clean_reboot>
    9ae8:	e59f3c18 	ldr	r3, [pc, #3096]	; a708 <nrf_init+0xdd8>
    9aec:	e58d302c 	str	r3, [sp, #44]	; 0x2c
    9af0:	e59f3c14 	ldr	r3, [pc, #3092]	; a70c <nrf_init+0xddc>
    9af4:	e58d3030 	str	r3, [sp, #48]	; 0x30
    9af8:	e3a03074 	mov	r3, #116, 0	; 0x74
    9afc:	e58d3034 	str	r3, [sp, #52]	; 0x34
    9b00:	e3a0307d 	mov	r3, #125, 0	; 0x7d
    9b04:	e58d3004 	str	r3, [sp, #4]
    9b08:	e3a05000 	mov	r5, #0, 0
    9b0c:	e58d5000 	str	r5, [sp]
    9b10:	e1a03004 	mov	r3, r4
    9b14:	e28d202c 	add	r2, sp, #44, 0	; 0x2c
    9b18:	e8920007 	ldm	r2, {r0, r1, r2}
    9b1c:	ebfffa10 	bl	8364 <nrf_put8_chk_helper>
    9b20:	e1a01005 	mov	r1, r5
    9b24:	e1a00004 	mov	r0, r4
    9b28:	ebfff9e3 	bl	82bc <nrf_get8>
    9b2c:	e3100002 	tst	r0, #2, 0
    9b30:	1a00005f 	bne	9cb4 <nrf_init+0x384>
    9b34:	e59f3bcc 	ldr	r3, [pc, #3020]	; a708 <nrf_init+0xdd8>
    9b38:	e58d3038 	str	r3, [sp, #56]	; 0x38
    9b3c:	e59f3bc8 	ldr	r3, [pc, #3016]	; a70c <nrf_init+0xddc>
    9b40:	e58d303c 	str	r3, [sp, #60]	; 0x3c
    9b44:	e3a03078 	mov	r3, #120, 0	; 0x78
    9b48:	e58d3040 	str	r3, [sp, #64]	; 0x40
    9b4c:	e3a03000 	mov	r3, #0, 0
    9b50:	e58d3004 	str	r3, [sp, #4]
    9b54:	e3a03002 	mov	r3, #2, 0
    9b58:	e58d3000 	str	r3, [sp]
    9b5c:	e1a03004 	mov	r3, r4
    9b60:	e28d2038 	add	r2, sp, #56, 0	; 0x38
    9b64:	e8920007 	ldm	r2, {r0, r1, r2}
    9b68:	ebfff9fd 	bl	8364 <nrf_put8_chk_helper>
    9b6c:	e3570000 	cmp	r7, #0, 0
    9b70:	1a00006f 	bne	9d34 <nrf_init+0x404>
    9b74:	e59fab8c 	ldr	sl, [pc, #2956]	; a708 <nrf_init+0xdd8>
    9b78:	e58da044 	str	sl, [sp, #68]	; 0x44
    9b7c:	e59f9b88 	ldr	r9, [pc, #2952]	; a70c <nrf_init+0xddc>
    9b80:	e58d9048 	str	r9, [sp, #72]	; 0x48
    9b84:	e3a03081 	mov	r3, #129, 0	; 0x81
    9b88:	e58d304c 	str	r3, [sp, #76]	; 0x4c
    9b8c:	e3a0b000 	mov	fp, #0, 0
    9b90:	e58db004 	str	fp, [sp, #4]
    9b94:	e3a03001 	mov	r3, #1, 0
    9b98:	e58d3000 	str	r3, [sp]
    9b9c:	e1a03004 	mov	r3, r4
    9ba0:	e28d2044 	add	r2, sp, #68, 0	; 0x44
    9ba4:	e8920007 	ldm	r2, {r0, r1, r2}
    9ba8:	ebfff9ed 	bl	8364 <nrf_put8_chk_helper>
    9bac:	e58da050 	str	sl, [sp, #80]	; 0x50
    9bb0:	e58d9054 	str	r9, [sp, #84]	; 0x54
    9bb4:	e3a03084 	mov	r3, #132, 0	; 0x84
    9bb8:	e58d3058 	str	r3, [sp, #88]	; 0x58
    9bbc:	e3a05002 	mov	r5, #2, 0
    9bc0:	e58d5004 	str	r5, [sp, #4]
    9bc4:	e58d5000 	str	r5, [sp]
    9bc8:	e1a03004 	mov	r3, r4
    9bcc:	e28d2050 	add	r2, sp, #80, 0	; 0x50
    9bd0:	e8920007 	ldm	r2, {r0, r1, r2}
    9bd4:	ebfff9e2 	bl	8364 <nrf_put8_chk_helper>
    9bd8:	e58da05c 	str	sl, [sp, #92]	; 0x5c
    9bdc:	e58d9060 	str	r9, [sp, #96]	; 0x60
    9be0:	e3a03085 	mov	r3, #133, 0	; 0x85
    9be4:	e58d3064 	str	r3, [sp, #100]	; 0x64
    9be8:	e58db004 	str	fp, [sp, #4]
    9bec:	e3a03004 	mov	r3, #4, 0
    9bf0:	e58d3000 	str	r3, [sp]
    9bf4:	e1a03004 	mov	r3, r4
    9bf8:	e28d205c 	add	r2, sp, #92, 0	; 0x5c
    9bfc:	e8920007 	ldm	r2, {r0, r1, r2}
    9c00:	ebfff9d7 	bl	8364 <nrf_put8_chk_helper>
    9c04:	e1a01005 	mov	r1, r5
    9c08:	e1a00004 	mov	r0, r4
    9c0c:	ebfff9aa 	bl	82bc <nrf_get8>
    9c10:	e3100002 	tst	r0, #2, 0
    9c14:	0a00002e 	beq	9cd4 <nrf_init+0x3a4>
    9c18:	e3a01001 	mov	r1, #1, 0
    9c1c:	e1a00004 	mov	r0, r4
    9c20:	ebfff9a5 	bl	82bc <nrf_get8>
    9c24:	e3100002 	tst	r0, #2, 0
    9c28:	1a000031 	bne	9cf4 <nrf_init+0x3c4>
    9c2c:	e3a01002 	mov	r1, #2, 0
    9c30:	e1a00004 	mov	r0, r4
    9c34:	ebfff9a0 	bl	82bc <nrf_get8>
    9c38:	e3100001 	tst	r0, #1, 0
    9c3c:	1a000034 	bne	9d14 <nrf_init+0x3e4>
    9c40:	e3a01002 	mov	r1, #2, 0
    9c44:	e1a00004 	mov	r0, r4
    9c48:	ebfff99b 	bl	82bc <nrf_get8>
    9c4c:	e59f3ab4 	ldr	r3, [pc, #2740]	; a708 <nrf_init+0xdd8>
    9c50:	e58d308c 	str	r3, [sp, #140]	; 0x8c
    9c54:	e59f3ab0 	ldr	r3, [pc, #2736]	; a70c <nrf_init+0xddc>
    9c58:	e58d3090 	str	r3, [sp, #144]	; 0x90
    9c5c:	e3a030ad 	mov	r3, #173, 0	; 0xad
    9c60:	e58d3094 	str	r3, [sp, #148]	; 0x94
    9c64:	e2000003 	and	r0, r0, #3, 0
    9c68:	e58d0004 	str	r0, [sp, #4]
    9c6c:	e3a05002 	mov	r5, #2, 0
    9c70:	e58d5000 	str	r5, [sp]
    9c74:	e1a03004 	mov	r3, r4
    9c78:	e28d208c 	add	r2, sp, #140, 0	; 0x8c
    9c7c:	e8920007 	ldm	r2, {r0, r1, r2}
    9c80:	ebfff9b7 	bl	8364 <nrf_put8_chk_helper>
    9c84:	e3550005 	cmp	r5, #5, 0
    9c88:	ca000092 	bgt	9ed8 <nrf_init+0x5a8>
    9c8c:	e3a01002 	mov	r1, #2, 0
    9c90:	e1a00004 	mov	r0, r4
    9c94:	ebfff988 	bl	82bc <nrf_get8>
    9c98:	e355001f 	cmp	r5, #31, 0
    9c9c:	8a00007d 	bhi	9e98 <nrf_init+0x568>
    9ca0:	e1a00530 	lsr	r0, r0, r5
    9ca4:	e3100001 	tst	r0, #1, 0
    9ca8:	1a000082 	bne	9eb8 <nrf_init+0x588>
    9cac:	e2855001 	add	r5, r5, #1, 0
    9cb0:	eafffff3 	b	9c84 <nrf_init+0x354>
    9cb4:	e59f3a54 	ldr	r3, [pc, #2644]	; a710 <nrf_init+0xde0>
    9cb8:	e58d3000 	str	r3, [sp]
    9cbc:	e3a03075 	mov	r3, #117, 0	; 0x75
    9cc0:	e59f2a44 	ldr	r2, [pc, #2628]	; a70c <nrf_init+0xddc>
    9cc4:	e59f1a3c 	ldr	r1, [pc, #2620]	; a708 <nrf_init+0xdd8>
    9cc8:	e59f0a28 	ldr	r0, [pc, #2600]	; a6f8 <nrf_init+0xdc8>
    9ccc:	eb000ead 	bl	d788 <printk>
    9cd0:	eb000fb5 	bl	dbac <clean_reboot>
    9cd4:	e59f3a38 	ldr	r3, [pc, #2616]	; a714 <nrf_init+0xde4>
    9cd8:	e58d3000 	str	r3, [sp]
    9cdc:	e3a0308a 	mov	r3, #138, 0	; 0x8a
    9ce0:	e1a02009 	mov	r2, r9
    9ce4:	e1a0100a 	mov	r1, sl
    9ce8:	e59f0a08 	ldr	r0, [pc, #2568]	; a6f8 <nrf_init+0xdc8>
    9cec:	eb000ea5 	bl	d788 <printk>
    9cf0:	eb000fad 	bl	dbac <clean_reboot>
    9cf4:	e59f3a1c 	ldr	r3, [pc, #2588]	; a718 <nrf_init+0xde8>
    9cf8:	e58d3000 	str	r3, [sp]
    9cfc:	e3a0308b 	mov	r3, #139, 0	; 0x8b
    9d00:	e59f2a04 	ldr	r2, [pc, #2564]	; a70c <nrf_init+0xddc>
    9d04:	e59f19fc 	ldr	r1, [pc, #2556]	; a708 <nrf_init+0xdd8>
    9d08:	e59f09e8 	ldr	r0, [pc, #2536]	; a6f8 <nrf_init+0xdc8>
    9d0c:	eb000e9d 	bl	d788 <printk>
    9d10:	eb000fa5 	bl	dbac <clean_reboot>
    9d14:	e59f3a00 	ldr	r3, [pc, #2560]	; a71c <nrf_init+0xdec>
    9d18:	e58d3000 	str	r3, [sp]
    9d1c:	e3a0308c 	mov	r3, #140, 0	; 0x8c
    9d20:	e59f29e4 	ldr	r2, [pc, #2532]	; a70c <nrf_init+0xddc>
    9d24:	e59f19dc 	ldr	r1, [pc, #2524]	; a708 <nrf_init+0xdd8>
    9d28:	e59f09c8 	ldr	r0, [pc, #2504]	; a6f8 <nrf_init+0xdc8>
    9d2c:	eb000e95 	bl	d788 <printk>
    9d30:	eb000f9d 	bl	dbac <clean_reboot>
    9d34:	e59f99cc 	ldr	r9, [pc, #2508]	; a708 <nrf_init+0xdd8>
    9d38:	e58d9068 	str	r9, [sp, #104]	; 0x68
    9d3c:	e59f59c8 	ldr	r5, [pc, #2504]	; a70c <nrf_init+0xddc>
    9d40:	e58d506c 	str	r5, [sp, #108]	; 0x6c
    9d44:	e3a0309c 	mov	r3, #156, 0	; 0x9c
    9d48:	e58d3070 	str	r3, [sp, #112]	; 0x70
    9d4c:	e3a0a003 	mov	sl, #3, 0
    9d50:	e58da004 	str	sl, [sp, #4]
    9d54:	e3a03001 	mov	r3, #1, 0
    9d58:	e58d3000 	str	r3, [sp]
    9d5c:	e1a03004 	mov	r3, r4
    9d60:	e28d2068 	add	r2, sp, #104, 0	; 0x68
    9d64:	e8920007 	ldm	r2, {r0, r1, r2}
    9d68:	ebfff97d 	bl	8364 <nrf_put8_chk_helper>
    9d6c:	e58d9074 	str	r9, [sp, #116]	; 0x74
    9d70:	e58d5078 	str	r5, [sp, #120]	; 0x78
    9d74:	e3a0309d 	mov	r3, #157, 0	; 0x9d
    9d78:	e58d307c 	str	r3, [sp, #124]	; 0x7c
    9d7c:	e58da004 	str	sl, [sp, #4]
    9d80:	e3a0a002 	mov	sl, #2, 0
    9d84:	e58da000 	str	sl, [sp]
    9d88:	e1a03004 	mov	r3, r4
    9d8c:	e28d2074 	add	r2, sp, #116, 0	; 0x74
    9d90:	e8920007 	ldm	r2, {r0, r1, r2}
    9d94:	ebfff972 	bl	8364 <nrf_put8_chk_helper>
    9d98:	e58d9080 	str	r9, [sp, #128]	; 0x80
    9d9c:	e58d5084 	str	r5, [sp, #132]	; 0x84
    9da0:	e3a0309f 	mov	r3, #159, 0	; 0x9f
    9da4:	e58d3088 	str	r3, [sp, #136]	; 0x88
    9da8:	e3a03076 	mov	r3, #118, 0	; 0x76
    9dac:	e58d3004 	str	r3, [sp, #4]
    9db0:	e3a03004 	mov	r3, #4, 0
    9db4:	e58d3000 	str	r3, [sp]
    9db8:	e1a03004 	mov	r3, r4
    9dbc:	e28d2080 	add	r2, sp, #128, 0	; 0x80
    9dc0:	e8920007 	ldm	r2, {r0, r1, r2}
    9dc4:	ebfff966 	bl	8364 <nrf_put8_chk_helper>
    9dc8:	e1a0100a 	mov	r1, sl
    9dcc:	e1a00004 	mov	r0, r4
    9dd0:	ebfff939 	bl	82bc <nrf_get8>
    9dd4:	e3100001 	tst	r0, #1, 0
    9dd8:	0a000016 	beq	9e38 <nrf_init+0x508>
    9ddc:	e3a01002 	mov	r1, #2, 0
    9de0:	e1a00004 	mov	r0, r4
    9de4:	ebfff934 	bl	82bc <nrf_get8>
    9de8:	e3100002 	tst	r0, #2, 0
    9dec:	0a000019 	beq	9e58 <nrf_init+0x528>
    9df0:	e3a01001 	mov	r1, #1, 0
    9df4:	e1a00004 	mov	r0, r4
    9df8:	ebfff92f 	bl	82bc <nrf_get8>
    9dfc:	e3100002 	tst	r0, #2, 0
    9e00:	0a00001c 	beq	9e78 <nrf_init+0x548>
    9e04:	e3a01001 	mov	r1, #1, 0
    9e08:	e1a00004 	mov	r0, r4
    9e0c:	ebfff92a 	bl	82bc <nrf_get8>
    9e10:	e3100001 	tst	r0, #1, 0
    9e14:	1affff89 	bne	9c40 <nrf_init+0x310>
    9e18:	e59f3900 	ldr	r3, [pc, #2304]	; a720 <nrf_init+0xdf0>
    9e1c:	e58d3000 	str	r3, [sp]
    9e20:	e3a030a7 	mov	r3, #167, 0	; 0xa7
    9e24:	e59f28e0 	ldr	r2, [pc, #2272]	; a70c <nrf_init+0xddc>
    9e28:	e59f18d8 	ldr	r1, [pc, #2264]	; a708 <nrf_init+0xdd8>
    9e2c:	e59f08c4 	ldr	r0, [pc, #2244]	; a6f8 <nrf_init+0xdc8>
    9e30:	eb000e54 	bl	d788 <printk>
    9e34:	eb000f5c 	bl	dbac <clean_reboot>
    9e38:	e59f38e4 	ldr	r3, [pc, #2276]	; a724 <nrf_init+0xdf4>
    9e3c:	e58d3000 	str	r3, [sp]
    9e40:	e3a030a4 	mov	r3, #164, 0	; 0xa4
    9e44:	e1a02005 	mov	r2, r5
    9e48:	e1a01009 	mov	r1, r9
    9e4c:	e59f08a4 	ldr	r0, [pc, #2212]	; a6f8 <nrf_init+0xdc8>
    9e50:	eb000e4c 	bl	d788 <printk>
    9e54:	eb000f54 	bl	dbac <clean_reboot>
    9e58:	e59f38b4 	ldr	r3, [pc, #2228]	; a714 <nrf_init+0xde4>
    9e5c:	e58d3000 	str	r3, [sp]
    9e60:	e3a030a5 	mov	r3, #165, 0	; 0xa5
    9e64:	e59f28a0 	ldr	r2, [pc, #2208]	; a70c <nrf_init+0xddc>
    9e68:	e59f1898 	ldr	r1, [pc, #2200]	; a708 <nrf_init+0xdd8>
    9e6c:	e59f0884 	ldr	r0, [pc, #2180]	; a6f8 <nrf_init+0xdc8>
    9e70:	eb000e44 	bl	d788 <printk>
    9e74:	eb000f4c 	bl	dbac <clean_reboot>
    9e78:	e59f38a8 	ldr	r3, [pc, #2216]	; a728 <nrf_init+0xdf8>
    9e7c:	e58d3000 	str	r3, [sp]
    9e80:	e3a030a6 	mov	r3, #166, 0	; 0xa6
    9e84:	e59f2880 	ldr	r2, [pc, #2176]	; a70c <nrf_init+0xddc>
    9e88:	e59f1878 	ldr	r1, [pc, #2168]	; a708 <nrf_init+0xdd8>
    9e8c:	e59f0864 	ldr	r0, [pc, #2148]	; a6f8 <nrf_init+0xdc8>
    9e90:	eb000e3c 	bl	d788 <printk>
    9e94:	eb000f44 	bl	dbac <clean_reboot>
    9e98:	e59f388c 	ldr	r3, [pc, #2188]	; a72c <nrf_init+0xdfc>
    9e9c:	e58d3000 	str	r3, [sp]
    9ea0:	e3a0301f 	mov	r3, #31, 0
    9ea4:	e59f2884 	ldr	r2, [pc, #2180]	; a730 <nrf_init+0xe00>
    9ea8:	e59f1884 	ldr	r1, [pc, #2180]	; a734 <nrf_init+0xe04>
    9eac:	e59f0844 	ldr	r0, [pc, #2116]	; a6f8 <nrf_init+0xdc8>
    9eb0:	eb000e34 	bl	d788 <printk>
    9eb4:	eb000f3c 	bl	dbac <clean_reboot>
    9eb8:	e59f3878 	ldr	r3, [pc, #2168]	; a738 <nrf_init+0xe08>
    9ebc:	e58d3000 	str	r3, [sp]
    9ec0:	e3a030b1 	mov	r3, #177, 0	; 0xb1
    9ec4:	e59f2840 	ldr	r2, [pc, #2112]	; a70c <nrf_init+0xddc>
    9ec8:	e59f1838 	ldr	r1, [pc, #2104]	; a708 <nrf_init+0xdd8>
    9ecc:	e59f0824 	ldr	r0, [pc, #2084]	; a6f8 <nrf_init+0xdc8>
    9ed0:	eb000e2c 	bl	d788 <printk>
    9ed4:	eb000f34 	bl	dbac <clean_reboot>
    9ed8:	e59f3828 	ldr	r3, [pc, #2088]	; a708 <nrf_init+0xdd8>
    9edc:	e58d3098 	str	r3, [sp, #152]	; 0x98
    9ee0:	e59f3824 	ldr	r3, [pc, #2084]	; a70c <nrf_init+0xddc>
    9ee4:	e58d309c 	str	r3, [sp, #156]	; 0x9c
    9ee8:	e3a030b6 	mov	r3, #182, 0	; 0xb6
    9eec:	e58d30a0 	str	r3, [sp, #160]	; 0xa0
    9ef0:	e3a03001 	mov	r3, #1, 0
    9ef4:	e58d3004 	str	r3, [sp, #4]
    9ef8:	e3a05003 	mov	r5, #3, 0
    9efc:	e58d5000 	str	r5, [sp]
    9f00:	e1a03004 	mov	r3, r4
    9f04:	e28d2098 	add	r2, sp, #152, 0	; 0x98
    9f08:	e8920007 	ldm	r2, {r0, r1, r2}
    9f0c:	ebfff914 	bl	8364 <nrf_put8_chk_helper>
    9f10:	e1a03005 	mov	r3, r5
    9f14:	e3a02000 	mov	r2, #0, 0
    9f18:	e3a01010 	mov	r1, #16, 0
    9f1c:	e1a00004 	mov	r0, r4
    9f20:	ebfffc7a 	bl	9110 <nrf_set_addr>
    9f24:	e1a03005 	mov	r3, r5
    9f28:	e1a02006 	mov	r2, r6
    9f2c:	e3a0100b 	mov	r1, #11, 0
    9f30:	e1a00004 	mov	r0, r4
    9f34:	ebfffc75 	bl	9110 <nrf_set_addr>
    9f38:	e3570000 	cmp	r7, #0, 0
    9f3c:	1a000101 	bne	a348 <nrf_init+0xa18>
    9f40:	e59f37c0 	ldr	r3, [pc, #1984]	; a708 <nrf_init+0xdd8>
    9f44:	e58d30a4 	str	r3, [sp, #164]	; 0xa4
    9f48:	e59f37bc 	ldr	r3, [pc, #1980]	; a70c <nrf_init+0xddc>
    9f4c:	e58d30a8 	str	r3, [sp, #168]	; 0xa8
    9f50:	e3a030c1 	mov	r3, #193, 0	; 0xc1
    9f54:	e58d30ac 	str	r3, [sp, #172]	; 0xac
    9f58:	e3a03000 	mov	r3, #0, 0
    9f5c:	e58d3004 	str	r3, [sp, #4]
    9f60:	e3a03011 	mov	r3, #17, 0
    9f64:	e58d3000 	str	r3, [sp]
    9f68:	e1a03004 	mov	r3, r4
    9f6c:	e28d20a4 	add	r2, sp, #164, 0	; 0xa4
    9f70:	e8920007 	ldm	r2, {r0, r1, r2}
    9f74:	ebfff8fa 	bl	8364 <nrf_put8_chk_helper>
    9f78:	e59f6788 	ldr	r6, [pc, #1928]	; a708 <nrf_init+0xdd8>
    9f7c:	e58d60bc 	str	r6, [sp, #188]	; 0xbc
    9f80:	e59f5784 	ldr	r5, [pc, #1924]	; a70c <nrf_init+0xddc>
    9f84:	e58d50c0 	str	r5, [sp, #192]	; 0xc0
    9f88:	e3a030c7 	mov	r3, #199, 0	; 0xc7
    9f8c:	e58d30c4 	str	r3, [sp, #196]	; 0xc4
    9f90:	e5dd3023 	ldrb	r3, [sp, #35]	; 0x23
    9f94:	e58d3004 	str	r3, [sp, #4]
    9f98:	e3a03012 	mov	r3, #18, 0
    9f9c:	e58d3000 	str	r3, [sp]
    9fa0:	e1a03004 	mov	r3, r4
    9fa4:	e28d20bc 	add	r2, sp, #188, 0	; 0xbc
    9fa8:	e8920007 	ldm	r2, {r0, r1, r2}
    9fac:	ebfff8ec 	bl	8364 <nrf_put8_chk_helper>
    9fb0:	e58d60c8 	str	r6, [sp, #200]	; 0xc8
    9fb4:	e58d50cc 	str	r5, [sp, #204]	; 0xcc
    9fb8:	e3a030c9 	mov	r3, #201, 0	; 0xc9
    9fbc:	e58d30d0 	str	r3, [sp, #208]	; 0xd0
    9fc0:	e3a09000 	mov	r9, #0, 0
    9fc4:	e58d9004 	str	r9, [sp, #4]
    9fc8:	e3a03013 	mov	r3, #19, 0
    9fcc:	e58d3000 	str	r3, [sp]
    9fd0:	e1a03004 	mov	r3, r4
    9fd4:	e28d20c8 	add	r2, sp, #200, 0	; 0xc8
    9fd8:	e8920007 	ldm	r2, {r0, r1, r2}
    9fdc:	ebfff8e0 	bl	8364 <nrf_put8_chk_helper>
    9fe0:	e58d60d4 	str	r6, [sp, #212]	; 0xd4
    9fe4:	e58d50d8 	str	r5, [sp, #216]	; 0xd8
    9fe8:	e3a030ca 	mov	r3, #202, 0	; 0xca
    9fec:	e58d30dc 	str	r3, [sp, #220]	; 0xdc
    9ff0:	e58d9004 	str	r9, [sp, #4]
    9ff4:	e3a03014 	mov	r3, #20, 0
    9ff8:	e58d3000 	str	r3, [sp]
    9ffc:	e1a03004 	mov	r3, r4
    a000:	e28d20d4 	add	r2, sp, #212, 0	; 0xd4
    a004:	e8920007 	ldm	r2, {r0, r1, r2}
    a008:	ebfff8d5 	bl	8364 <nrf_put8_chk_helper>
    a00c:	e58d60e0 	str	r6, [sp, #224]	; 0xe0
    a010:	e58d50e4 	str	r5, [sp, #228]	; 0xe4
    a014:	e3a030cb 	mov	r3, #203, 0	; 0xcb
    a018:	e58d30e8 	str	r3, [sp, #232]	; 0xe8
    a01c:	e58d9004 	str	r9, [sp, #4]
    a020:	e3a03015 	mov	r3, #21, 0
    a024:	e58d3000 	str	r3, [sp]
    a028:	e1a03004 	mov	r3, r4
    a02c:	e28d20e0 	add	r2, sp, #224, 0	; 0xe0
    a030:	e8920007 	ldm	r2, {r0, r1, r2}
    a034:	ebfff8ca 	bl	8364 <nrf_put8_chk_helper>
    a038:	e58d60ec 	str	r6, [sp, #236]	; 0xec
    a03c:	e58d50f0 	str	r5, [sp, #240]	; 0xf0
    a040:	e3a030cc 	mov	r3, #204, 0	; 0xcc
    a044:	e58d30f4 	str	r3, [sp, #244]	; 0xf4
    a048:	e58d9004 	str	r9, [sp, #4]
    a04c:	e3a03016 	mov	r3, #22, 0
    a050:	e58d3000 	str	r3, [sp]
    a054:	e1a03004 	mov	r3, r4
    a058:	e28d20ec 	add	r2, sp, #236, 0	; 0xec
    a05c:	e8920007 	ldm	r2, {r0, r1, r2}
    a060:	ebfff8bf 	bl	8364 <nrf_put8_chk_helper>
    a064:	e58d60f8 	str	r6, [sp, #248]	; 0xf8
    a068:	e58d50fc 	str	r5, [sp, #252]	; 0xfc
    a06c:	e3a030db 	mov	r3, #219, 0	; 0xdb
    a070:	e58d3100 	str	r3, [sp, #256]	; 0x100
    a074:	e3a0300e 	mov	r3, #14, 0
    a078:	e58d3004 	str	r3, [sp, #4]
    a07c:	e3a03006 	mov	r3, #6, 0
    a080:	e58d3000 	str	r3, [sp]
    a084:	e1a03004 	mov	r3, r4
    a088:	e28d20f8 	add	r2, sp, #248, 0	; 0xf8
    a08c:	e8920007 	ldm	r2, {r0, r1, r2}
    a090:	ebfff8b3 	bl	8364 <nrf_put8_chk_helper>
    a094:	e1a00004 	mov	r0, r4
    a098:	ebfff9f1 	bl	8864 <nrf_tx_flush>
    a09c:	e1a00004 	mov	r0, r4
    a0a0:	ebfffa05 	bl	88bc <nrf_rx_flush>
    a0a4:	e1a01009 	mov	r1, r9
    a0a8:	e1a00004 	mov	r0, r4
    a0ac:	ebfff882 	bl	82bc <nrf_get8>
    a0b0:	e3100002 	tst	r0, #2, 0
    a0b4:	1a0000b7 	bne	a398 <nrf_init+0xa68>
    a0b8:	e3a02005 	mov	r2, #5, 0
    a0bc:	e3a01017 	mov	r1, #23, 0
    a0c0:	e1a00004 	mov	r0, r4
    a0c4:	ebfff99f 	bl	8748 <nrf_bit_isset>
    a0c8:	e3500000 	cmp	r0, #0, 0
    a0cc:	1a0000b9 	bne	a3b8 <nrf_init+0xa88>
    a0d0:	e3a02004 	mov	r2, #4, 0
    a0d4:	e3a01017 	mov	r1, #23, 0
    a0d8:	e1a00004 	mov	r0, r4
    a0dc:	ebfff999 	bl	8748 <nrf_bit_isset>
    a0e0:	e3500000 	cmp	r0, #0, 0
    a0e4:	0a0000bb 	beq	a3d8 <nrf_init+0xaa8>
    a0e8:	e3a02001 	mov	r2, #1, 0
    a0ec:	e3a01017 	mov	r1, #23, 0
    a0f0:	e1a00004 	mov	r0, r4
    a0f4:	ebfff993 	bl	8748 <nrf_bit_isset>
    a0f8:	e3500000 	cmp	r0, #0, 0
    a0fc:	1a0000bd 	bne	a3f8 <nrf_init+0xac8>
    a100:	e3a02000 	mov	r2, #0, 0
    a104:	e3a01017 	mov	r1, #23, 0
    a108:	e1a00004 	mov	r0, r4
    a10c:	ebfff98d 	bl	8748 <nrf_bit_isset>
    a110:	e3500000 	cmp	r0, #0, 0
    a114:	0a0000bf 	beq	a418 <nrf_init+0xae8>
    a118:	e3a02005 	mov	r2, #5, 0
    a11c:	e3a01007 	mov	r1, #7, 0
    a120:	e1a00004 	mov	r0, r4
    a124:	ebfff987 	bl	8748 <nrf_bit_isset>
    a128:	e3500000 	cmp	r0, #0, 0
    a12c:	1a0000c1 	bne	a438 <nrf_init+0xb08>
    a130:	e3a01007 	mov	r1, #7, 0
    a134:	e1a00004 	mov	r0, r4
    a138:	ebfff85f 	bl	82bc <nrf_get8>
    a13c:	e1a030a0 	lsr	r3, r0, #1
    a140:	e2033007 	and	r3, r3, #7, 0
    a144:	e3530007 	cmp	r3, #7, 0
    a148:	1a0000c2 	bne	a458 <nrf_init+0xb28>
    a14c:	e1a00004 	mov	r0, r4
    a150:	ebfffd5c 	bl	96c8 <nrf_rx_has_packet>
    a154:	e3500000 	cmp	r0, #0, 0
    a158:	1a0000c6 	bne	a478 <nrf_init+0xb48>
    a15c:	e59f95a4 	ldr	r9, [pc, #1444]	; a708 <nrf_init+0xdd8>
    a160:	e58d9104 	str	r9, [sp, #260]	; 0x104
    a164:	e59f65a0 	ldr	r6, [pc, #1440]	; a70c <nrf_init+0xddc>
    a168:	e58d6108 	str	r6, [sp, #264]	; 0x108
    a16c:	e59f35c8 	ldr	r3, [pc, #1480]	; a73c <nrf_init+0xe0c>
    a170:	e58d310c 	str	r3, [sp, #268]	; 0x10c
    a174:	e3a05000 	mov	r5, #0, 0
    a178:	e58d5004 	str	r5, [sp, #4]
    a17c:	e3a0301d 	mov	r3, #29, 0
    a180:	e58d3000 	str	r3, [sp]
    a184:	e1a03004 	mov	r3, r4
    a188:	e28d2f41 	add	r2, sp, #260	; 0x104
    a18c:	e8920007 	ldm	r2, {r0, r1, r2}
    a190:	ebfff873 	bl	8364 <nrf_put8_chk_helper>
    a194:	e58d9110 	str	r9, [sp, #272]	; 0x110
    a198:	e58d6114 	str	r6, [sp, #276]	; 0x114
    a19c:	e59f359c 	ldr	r3, [pc, #1436]	; a740 <nrf_init+0xe10>
    a1a0:	e58d3118 	str	r3, [sp, #280]	; 0x118
    a1a4:	e58d5004 	str	r5, [sp, #4]
    a1a8:	e3a0301c 	mov	r3, #28, 0
    a1ac:	e58d3000 	str	r3, [sp]
    a1b0:	e1a03004 	mov	r3, r4
    a1b4:	e28d2e11 	add	r2, sp, #272	; 0x110
    a1b8:	e8920007 	ldm	r2, {r0, r1, r2}
    a1bc:	ebfff868 	bl	8364 <nrf_put8_chk_helper>
    a1c0:	e1a00004 	mov	r0, r4
    a1c4:	ebfff9a6 	bl	8864 <nrf_tx_flush>
    a1c8:	e1a00004 	mov	r0, r4
    a1cc:	ebfff9ba 	bl	88bc <nrf_rx_flush>
    a1d0:	e1a01005 	mov	r1, r5
    a1d4:	e1a00004 	mov	r0, r4
    a1d8:	ebfff837 	bl	82bc <nrf_get8>
    a1dc:	e58d911c 	str	r9, [sp, #284]	; 0x11c
    a1e0:	e58d6120 	str	r6, [sp, #288]	; 0x120
    a1e4:	e59f3558 	ldr	r3, [pc, #1368]	; a744 <nrf_init+0xe14>
    a1e8:	e58d3124 	str	r3, [sp, #292]	; 0x124
    a1ec:	e3803002 	orr	r3, r0, #2, 0
    a1f0:	e6ef3073 	uxtb	r3, r3
    a1f4:	e58d3004 	str	r3, [sp, #4]
    a1f8:	e58d5000 	str	r5, [sp]
    a1fc:	e1a03004 	mov	r3, r4
    a200:	e28d2f47 	add	r2, sp, #284	; 0x11c
    a204:	e8920007 	ldm	r2, {r0, r1, r2}
    a208:	ebfff855 	bl	8364 <nrf_put8_chk_helper>
    a20c:	e3a00005 	mov	r0, #5, 0
    a210:	eb000ed0 	bl	dd58 <delay_ms>
    a214:	e58d9128 	str	r9, [sp, #296]	; 0x128
    a218:	e58d612c 	str	r6, [sp, #300]	; 0x12c
    a21c:	e59f3524 	ldr	r3, [pc, #1316]	; a748 <nrf_init+0xe18>
    a220:	e58d3130 	str	r3, [sp, #304]	; 0x130
    a224:	e3a0307f 	mov	r3, #127, 0	; 0x7f
    a228:	e58d3004 	str	r3, [sp, #4]
    a22c:	e58d5000 	str	r5, [sp]
    a230:	e1a03004 	mov	r3, r4
    a234:	e28d2f4a 	add	r2, sp, #296	; 0x128
    a238:	e8920007 	ldm	r2, {r0, r1, r2}
    a23c:	ebfff848 	bl	8364 <nrf_put8_chk_helper>
    a240:	e2483005 	sub	r3, r8, #5, 0
    a244:	e6ef3073 	uxtb	r3, r3
    a248:	e3530001 	cmp	r3, #1, 0
    a24c:	8a000091 	bhi	a498 <nrf_init+0xb68>
    a250:	eb000e96 	bl	dcb0 <dev_barrier>
    a254:	e1a00008 	mov	r0, r8
    a258:	eb000c83 	bl	d46c <gpio_set_on>
    a25c:	eb000e93 	bl	dcb0 <dev_barrier>
    a260:	e59f34a0 	ldr	r3, [pc, #1184]	; a708 <nrf_init+0xdd8>
    a264:	e58d3134 	str	r3, [sp, #308]	; 0x134
    a268:	e59f349c 	ldr	r3, [pc, #1180]	; a70c <nrf_init+0xddc>
    a26c:	e58d3138 	str	r3, [sp, #312]	; 0x138
    a270:	e3a03f47 	mov	r3, #284	; 0x11c
    a274:	e58d313c 	str	r3, [sp, #316]	; 0x13c
    a278:	e3a03071 	mov	r3, #113, 0	; 0x71
    a27c:	e58d3004 	str	r3, [sp, #4]
    a280:	e3a03005 	mov	r3, #5, 0
    a284:	e58d3000 	str	r3, [sp]
    a288:	e1a03004 	mov	r3, r4
    a28c:	e28d2d05 	add	r2, sp, #320	; 0x140
    a290:	e9120007 	ldmdb	r2, {r0, r1, r2}
    a294:	ebfff832 	bl	8364 <nrf_put8_chk_helper>
    a298:	e3570000 	cmp	r7, #0, 0
    a29c:	0a0000bb 	beq	a590 <nrf_init+0xc60>
    a2a0:	e3a01000 	mov	r1, #0, 0
    a2a4:	e1a00004 	mov	r0, r4
    a2a8:	ebfff803 	bl	82bc <nrf_get8>
    a2ac:	e350007f 	cmp	r0, #127, 0	; 0x7f
    a2b0:	1a00007f 	bne	a4b4 <nrf_init+0xb84>
    a2b4:	e3a01002 	mov	r1, #2, 0
    a2b8:	e1a00004 	mov	r0, r4
    a2bc:	ebfff7fe 	bl	82bc <nrf_get8>
    a2c0:	e3100001 	tst	r0, #1, 0
    a2c4:	0a000085 	beq	a4e0 <nrf_init+0xbb0>
    a2c8:	e3a01002 	mov	r1, #2, 0
    a2cc:	e1a00004 	mov	r0, r4
    a2d0:	ebfff7f9 	bl	82bc <nrf_get8>
    a2d4:	e3100002 	tst	r0, #2, 0
    a2d8:	0a00008b 	beq	a50c <nrf_init+0xbdc>
    a2dc:	e3a01001 	mov	r1, #1, 0
    a2e0:	e1a00004 	mov	r0, r4
    a2e4:	ebfff7f4 	bl	82bc <nrf_get8>
    a2e8:	e3100001 	tst	r0, #1, 0
    a2ec:	0a000091 	beq	a538 <nrf_init+0xc08>
    a2f0:	e3a01001 	mov	r1, #1, 0
    a2f4:	e1a00004 	mov	r0, r4
    a2f8:	ebfff7ef 	bl	82bc <nrf_get8>
    a2fc:	e3100002 	tst	r0, #2, 0
    a300:	0a000097 	beq	a564 <nrf_init+0xc34>
    a304:	e3a02004 	mov	r2, #4, 0
    a308:	e3a01017 	mov	r1, #23, 0
    a30c:	e1a00004 	mov	r0, r4
    a310:	ebfff90c 	bl	8748 <nrf_bit_isset>
    a314:	e3500000 	cmp	r0, #0, 0
    a318:	1a0000b6 	bne	a5f8 <nrf_init+0xcc8>
    a31c:	e1a01004 	mov	r1, r4
    a320:	e59f0424 	ldr	r0, [pc, #1060]	; a74c <nrf_init+0xe1c>
    a324:	ebfff9d9 	bl	8a90 <nrf_dump>
    a328:	e59f3420 	ldr	r3, [pc, #1056]	; a750 <nrf_init+0xe20>
    a32c:	e58d3000 	str	r3, [sp]
    a330:	e59f341c 	ldr	r3, [pc, #1052]	; a754 <nrf_init+0xe24>
    a334:	e59f23d0 	ldr	r2, [pc, #976]	; a70c <nrf_init+0xddc>
    a338:	e59f13c8 	ldr	r1, [pc, #968]	; a708 <nrf_init+0xdd8>
    a33c:	e59f0414 	ldr	r0, [pc, #1044]	; a758 <nrf_init+0xe28>
    a340:	eb000d10 	bl	d788 <printk>
    a344:	eb000e18 	bl	dbac <clean_reboot>
    a348:	e59f33b8 	ldr	r3, [pc, #952]	; a708 <nrf_init+0xdd8>
    a34c:	e58d30b0 	str	r3, [sp, #176]	; 0xb0
    a350:	e59f33b4 	ldr	r3, [pc, #948]	; a70c <nrf_init+0xddc>
    a354:	e58d30b4 	str	r3, [sp, #180]	; 0xb4
    a358:	e3a030c3 	mov	r3, #195, 0	; 0xc3
    a35c:	e58d30b8 	str	r3, [sp, #184]	; 0xb8
    a360:	e3a05000 	mov	r5, #0, 0
    a364:	e58d5004 	str	r5, [sp, #4]
    a368:	e3a03011 	mov	r3, #17, 0
    a36c:	e58d3000 	str	r3, [sp]
    a370:	e1a03004 	mov	r3, r4
    a374:	e28d20b0 	add	r2, sp, #176, 0	; 0xb0
    a378:	e8920007 	ldm	r2, {r0, r1, r2}
    a37c:	ebfff7f8 	bl	8364 <nrf_put8_chk_helper>
    a380:	e3a03003 	mov	r3, #3, 0
    a384:	e1a02005 	mov	r2, r5
    a388:	e3a0100a 	mov	r1, #10, 0
    a38c:	e1a00004 	mov	r0, r4
    a390:	ebfffb5e 	bl	9110 <nrf_set_addr>
    a394:	eafffef7 	b	9f78 <nrf_init+0x648>
    a398:	e59f3370 	ldr	r3, [pc, #880]	; a710 <nrf_init+0xde0>
    a39c:	e58d3000 	str	r3, [sp]
    a3a0:	e3a030f2 	mov	r3, #242, 0	; 0xf2
    a3a4:	e1a02005 	mov	r2, r5
    a3a8:	e1a01006 	mov	r1, r6
    a3ac:	e59f0344 	ldr	r0, [pc, #836]	; a6f8 <nrf_init+0xdc8>
    a3b0:	eb000cf4 	bl	d788 <printk>
    a3b4:	eb000dfc 	bl	dbac <clean_reboot>
    a3b8:	e59f339c 	ldr	r3, [pc, #924]	; a75c <nrf_init+0xe2c>
    a3bc:	e58d3000 	str	r3, [sp]
    a3c0:	e3a030f3 	mov	r3, #243, 0	; 0xf3
    a3c4:	e59f2340 	ldr	r2, [pc, #832]	; a70c <nrf_init+0xddc>
    a3c8:	e59f1338 	ldr	r1, [pc, #824]	; a708 <nrf_init+0xdd8>
    a3cc:	e59f0324 	ldr	r0, [pc, #804]	; a6f8 <nrf_init+0xdc8>
    a3d0:	eb000cec 	bl	d788 <printk>
    a3d4:	eb000df4 	bl	dbac <clean_reboot>
    a3d8:	e59f3370 	ldr	r3, [pc, #880]	; a750 <nrf_init+0xe20>
    a3dc:	e58d3000 	str	r3, [sp]
    a3e0:	e3a030f4 	mov	r3, #244, 0	; 0xf4
    a3e4:	e59f2320 	ldr	r2, [pc, #800]	; a70c <nrf_init+0xddc>
    a3e8:	e59f1318 	ldr	r1, [pc, #792]	; a708 <nrf_init+0xdd8>
    a3ec:	e59f0304 	ldr	r0, [pc, #772]	; a6f8 <nrf_init+0xdc8>
    a3f0:	eb000ce4 	bl	d788 <printk>
    a3f4:	eb000dec 	bl	dbac <clean_reboot>
    a3f8:	e59f3360 	ldr	r3, [pc, #864]	; a760 <nrf_init+0xe30>
    a3fc:	e58d3000 	str	r3, [sp]
    a400:	e3a030f5 	mov	r3, #245, 0	; 0xf5
    a404:	e59f2300 	ldr	r2, [pc, #768]	; a70c <nrf_init+0xddc>
    a408:	e59f12f8 	ldr	r1, [pc, #760]	; a708 <nrf_init+0xdd8>
    a40c:	e59f02e4 	ldr	r0, [pc, #740]	; a6f8 <nrf_init+0xdc8>
    a410:	eb000cdc 	bl	d788 <printk>
    a414:	eb000de4 	bl	dbac <clean_reboot>
    a418:	e59f3344 	ldr	r3, [pc, #836]	; a764 <nrf_init+0xe34>
    a41c:	e58d3000 	str	r3, [sp]
    a420:	e3a030f6 	mov	r3, #246, 0	; 0xf6
    a424:	e59f22e0 	ldr	r2, [pc, #736]	; a70c <nrf_init+0xddc>
    a428:	e59f12d8 	ldr	r1, [pc, #728]	; a708 <nrf_init+0xdd8>
    a42c:	e59f02c4 	ldr	r0, [pc, #708]	; a6f8 <nrf_init+0xdc8>
    a430:	eb000cd4 	bl	d788 <printk>
    a434:	eb000ddc 	bl	dbac <clean_reboot>
    a438:	e59f3328 	ldr	r3, [pc, #808]	; a768 <nrf_init+0xe38>
    a43c:	e58d3000 	str	r3, [sp]
    a440:	e3a030fa 	mov	r3, #250, 0	; 0xfa
    a444:	e59f22c0 	ldr	r2, [pc, #704]	; a70c <nrf_init+0xddc>
    a448:	e59f12b8 	ldr	r1, [pc, #696]	; a708 <nrf_init+0xdd8>
    a44c:	e59f02a4 	ldr	r0, [pc, #676]	; a6f8 <nrf_init+0xdc8>
    a450:	eb000ccc 	bl	d788 <printk>
    a454:	eb000dd4 	bl	dbac <clean_reboot>
    a458:	e59f330c 	ldr	r3, [pc, #780]	; a76c <nrf_init+0xe3c>
    a45c:	e58d3000 	str	r3, [sp]
    a460:	e3a030fb 	mov	r3, #251, 0	; 0xfb
    a464:	e59f22a0 	ldr	r2, [pc, #672]	; a70c <nrf_init+0xddc>
    a468:	e59f1298 	ldr	r1, [pc, #664]	; a708 <nrf_init+0xdd8>
    a46c:	e59f0284 	ldr	r0, [pc, #644]	; a6f8 <nrf_init+0xdc8>
    a470:	eb000cc4 	bl	d788 <printk>
    a474:	eb000dcc 	bl	dbac <clean_reboot>
    a478:	e59f32f0 	ldr	r3, [pc, #752]	; a770 <nrf_init+0xe40>
    a47c:	e58d3000 	str	r3, [sp]
    a480:	e3a030fc 	mov	r3, #252, 0	; 0xfc
    a484:	e59f2280 	ldr	r2, [pc, #640]	; a70c <nrf_init+0xddc>
    a488:	e59f1278 	ldr	r1, [pc, #632]	; a708 <nrf_init+0xdd8>
    a48c:	e59f0264 	ldr	r0, [pc, #612]	; a6f8 <nrf_init+0xdc8>
    a490:	eb000cbc 	bl	d788 <printk>
    a494:	eb000dc4 	bl	dbac <clean_reboot>
    a498:	e58d8000 	str	r8, [sp]
    a49c:	e3a03052 	mov	r3, #82, 0	; 0x52
    a4a0:	e246201c 	sub	r2, r6, #28, 0
    a4a4:	e1a01009 	mov	r1, r9
    a4a8:	e59f02c4 	ldr	r0, [pc, #708]	; a774 <nrf_init+0xe44>
    a4ac:	eb000cb5 	bl	d788 <printk>
    a4b0:	eb000dbd 	bl	dbac <clean_reboot>
    a4b4:	e1a01004 	mov	r1, r4
    a4b8:	e59f028c 	ldr	r0, [pc, #652]	; a74c <nrf_init+0xe1c>
    a4bc:	ebfff973 	bl	8a90 <nrf_dump>
    a4c0:	e59f32b0 	ldr	r3, [pc, #688]	; a778 <nrf_init+0xe48>
    a4c4:	e58d3000 	str	r3, [sp]
    a4c8:	e3a03e12 	mov	r3, #288	; 0x120
    a4cc:	e59f2238 	ldr	r2, [pc, #568]	; a70c <nrf_init+0xddc>
    a4d0:	e59f1230 	ldr	r1, [pc, #560]	; a708 <nrf_init+0xdd8>
    a4d4:	e59f027c 	ldr	r0, [pc, #636]	; a758 <nrf_init+0xe28>
    a4d8:	eb000caa 	bl	d788 <printk>
    a4dc:	eb000db2 	bl	dbac <clean_reboot>
    a4e0:	e1a01004 	mov	r1, r4
    a4e4:	e59f0260 	ldr	r0, [pc, #608]	; a74c <nrf_init+0xe1c>
    a4e8:	ebfff968 	bl	8a90 <nrf_dump>
    a4ec:	e59f3230 	ldr	r3, [pc, #560]	; a724 <nrf_init+0xdf4>
    a4f0:	e58d3000 	str	r3, [sp]
    a4f4:	e59f3280 	ldr	r3, [pc, #640]	; a77c <nrf_init+0xe4c>
    a4f8:	e59f220c 	ldr	r2, [pc, #524]	; a70c <nrf_init+0xddc>
    a4fc:	e59f1204 	ldr	r1, [pc, #516]	; a708 <nrf_init+0xdd8>
    a500:	e59f0250 	ldr	r0, [pc, #592]	; a758 <nrf_init+0xe28>
    a504:	eb000c9f 	bl	d788 <printk>
    a508:	eb000da7 	bl	dbac <clean_reboot>
    a50c:	e1a01004 	mov	r1, r4
    a510:	e59f0234 	ldr	r0, [pc, #564]	; a74c <nrf_init+0xe1c>
    a514:	ebfff95d 	bl	8a90 <nrf_dump>
    a518:	e59f31f4 	ldr	r3, [pc, #500]	; a714 <nrf_init+0xde4>
    a51c:	e58d3000 	str	r3, [sp]
    a520:	e59f3258 	ldr	r3, [pc, #600]	; a780 <nrf_init+0xe50>
    a524:	e59f21e0 	ldr	r2, [pc, #480]	; a70c <nrf_init+0xddc>
    a528:	e59f11d8 	ldr	r1, [pc, #472]	; a708 <nrf_init+0xdd8>
    a52c:	e59f0224 	ldr	r0, [pc, #548]	; a758 <nrf_init+0xe28>
    a530:	eb000c94 	bl	d788 <printk>
    a534:	eb000d9c 	bl	dbac <clean_reboot>
    a538:	e1a01004 	mov	r1, r4
    a53c:	e59f0208 	ldr	r0, [pc, #520]	; a74c <nrf_init+0xe1c>
    a540:	ebfff952 	bl	8a90 <nrf_dump>
    a544:	e59f31d4 	ldr	r3, [pc, #468]	; a720 <nrf_init+0xdf0>
    a548:	e58d3000 	str	r3, [sp]
    a54c:	e59f3230 	ldr	r3, [pc, #560]	; a784 <nrf_init+0xe54>
    a550:	e59f21b4 	ldr	r2, [pc, #436]	; a70c <nrf_init+0xddc>
    a554:	e59f11ac 	ldr	r1, [pc, #428]	; a708 <nrf_init+0xdd8>
    a558:	e59f01f8 	ldr	r0, [pc, #504]	; a758 <nrf_init+0xe28>
    a55c:	eb000c89 	bl	d788 <printk>
    a560:	eb000d91 	bl	dbac <clean_reboot>
    a564:	e1a01004 	mov	r1, r4
    a568:	e59f01dc 	ldr	r0, [pc, #476]	; a74c <nrf_init+0xe1c>
    a56c:	ebfff947 	bl	8a90 <nrf_dump>
    a570:	e59f31b0 	ldr	r3, [pc, #432]	; a728 <nrf_init+0xdf8>
    a574:	e58d3000 	str	r3, [sp]
    a578:	e3a03f49 	mov	r3, #292	; 0x124
    a57c:	e59f2188 	ldr	r2, [pc, #392]	; a70c <nrf_init+0xddc>
    a580:	e59f1180 	ldr	r1, [pc, #384]	; a708 <nrf_init+0xdd8>
    a584:	e59f01cc 	ldr	r0, [pc, #460]	; a758 <nrf_init+0xe28>
    a588:	eb000c7e 	bl	d788 <printk>
    a58c:	eb000d86 	bl	dbac <clean_reboot>
    a590:	e3a01000 	mov	r1, #0, 0
    a594:	e1a00004 	mov	r0, r4
    a598:	ebfff747 	bl	82bc <nrf_get8>
    a59c:	e350007f 	cmp	r0, #127, 0	; 0x7f
    a5a0:	1a000017 	bne	a604 <nrf_init+0xcd4>
    a5a4:	e3a01002 	mov	r1, #2, 0
    a5a8:	e1a00004 	mov	r0, r4
    a5ac:	ebfff742 	bl	82bc <nrf_get8>
    a5b0:	e3100001 	tst	r0, #1, 0
    a5b4:	1a00001d 	bne	a630 <nrf_init+0xd00>
    a5b8:	e3a01002 	mov	r1, #2, 0
    a5bc:	e1a00004 	mov	r0, r4
    a5c0:	ebfff73d 	bl	82bc <nrf_get8>
    a5c4:	e3100002 	tst	r0, #2, 0
    a5c8:	0a000023 	beq	a65c <nrf_init+0xd2c>
    a5cc:	e3a01001 	mov	r1, #1, 0
    a5d0:	e1a00004 	mov	r0, r4
    a5d4:	ebfff738 	bl	82bc <nrf_get8>
    a5d8:	e3100002 	tst	r0, #2, 0
    a5dc:	1a000029 	bne	a688 <nrf_init+0xd58>
    a5e0:	e3a02004 	mov	r2, #4, 0
    a5e4:	e3a01017 	mov	r1, #23, 0
    a5e8:	e1a00004 	mov	r0, r4
    a5ec:	ebfff855 	bl	8748 <nrf_bit_isset>
    a5f0:	e3500000 	cmp	r0, #0, 0
    a5f4:	0a00002e 	beq	a6b4 <nrf_init+0xd84>
    a5f8:	e1a00004 	mov	r0, r4
    a5fc:	e28ddf51 	add	sp, sp, #324	; 0x144
    a600:	e8bd8ff0 	pop	{r4, r5, r6, r7, r8, r9, sl, fp, pc}
    a604:	e1a01004 	mov	r1, r4
    a608:	e59f013c 	ldr	r0, [pc, #316]	; a74c <nrf_init+0xe1c>
    a60c:	ebfff91f 	bl	8a90 <nrf_dump>
    a610:	e59f3160 	ldr	r3, [pc, #352]	; a778 <nrf_init+0xe48>
    a614:	e58d3000 	str	r3, [sp]
    a618:	e59f3168 	ldr	r3, [pc, #360]	; a788 <nrf_init+0xe58>
    a61c:	e59f20e8 	ldr	r2, [pc, #232]	; a70c <nrf_init+0xddc>
    a620:	e59f10e0 	ldr	r1, [pc, #224]	; a708 <nrf_init+0xdd8>
    a624:	e59f012c 	ldr	r0, [pc, #300]	; a758 <nrf_init+0xe28>
    a628:	eb000c56 	bl	d788 <printk>
    a62c:	eb000d5e 	bl	dbac <clean_reboot>
    a630:	e1a01004 	mov	r1, r4
    a634:	e59f0110 	ldr	r0, [pc, #272]	; a74c <nrf_init+0xe1c>
    a638:	ebfff914 	bl	8a90 <nrf_dump>
    a63c:	e59f30d8 	ldr	r3, [pc, #216]	; a71c <nrf_init+0xdec>
    a640:	e58d3000 	str	r3, [sp]
    a644:	e3a03f4a 	mov	r3, #296	; 0x128
    a648:	e59f20bc 	ldr	r2, [pc, #188]	; a70c <nrf_init+0xddc>
    a64c:	e59f10b4 	ldr	r1, [pc, #180]	; a708 <nrf_init+0xdd8>
    a650:	e59f0100 	ldr	r0, [pc, #256]	; a758 <nrf_init+0xe28>
    a654:	eb000c4b 	bl	d788 <printk>
    a658:	eb000d53 	bl	dbac <clean_reboot>
    a65c:	e1a01004 	mov	r1, r4
    a660:	e59f00e4 	ldr	r0, [pc, #228]	; a74c <nrf_init+0xe1c>
    a664:	ebfff909 	bl	8a90 <nrf_dump>
    a668:	e59f30a4 	ldr	r3, [pc, #164]	; a714 <nrf_init+0xde4>
    a66c:	e58d3000 	str	r3, [sp]
    a670:	e59f3114 	ldr	r3, [pc, #276]	; a78c <nrf_init+0xe5c>
    a674:	e59f2090 	ldr	r2, [pc, #144]	; a70c <nrf_init+0xddc>
    a678:	e59f1088 	ldr	r1, [pc, #136]	; a708 <nrf_init+0xdd8>
    a67c:	e59f00d4 	ldr	r0, [pc, #212]	; a758 <nrf_init+0xe28>
    a680:	eb000c40 	bl	d788 <printk>
    a684:	eb000d48 	bl	dbac <clean_reboot>
    a688:	e1a01004 	mov	r1, r4
    a68c:	e59f00b8 	ldr	r0, [pc, #184]	; a74c <nrf_init+0xe1c>
    a690:	ebfff8fe 	bl	8a90 <nrf_dump>
    a694:	e59f307c 	ldr	r3, [pc, #124]	; a718 <nrf_init+0xde8>
    a698:	e58d3000 	str	r3, [sp]
    a69c:	e59f30ec 	ldr	r3, [pc, #236]	; a790 <nrf_init+0xe60>
    a6a0:	e59f2064 	ldr	r2, [pc, #100]	; a70c <nrf_init+0xddc>
    a6a4:	e59f105c 	ldr	r1, [pc, #92]	; a708 <nrf_init+0xdd8>
    a6a8:	e59f00a8 	ldr	r0, [pc, #168]	; a758 <nrf_init+0xe28>
    a6ac:	eb000c35 	bl	d788 <printk>
    a6b0:	eb000d3d 	bl	dbac <clean_reboot>
    a6b4:	e1a01004 	mov	r1, r4
    a6b8:	e59f008c 	ldr	r0, [pc, #140]	; a74c <nrf_init+0xe1c>
    a6bc:	ebfff8f3 	bl	8a90 <nrf_dump>
    a6c0:	e59f3088 	ldr	r3, [pc, #136]	; a750 <nrf_init+0xe20>
    a6c4:	e58d3000 	str	r3, [sp]
    a6c8:	e59f30c4 	ldr	r3, [pc, #196]	; a794 <nrf_init+0xe64>
    a6cc:	e59f2038 	ldr	r2, [pc, #56]	; a70c <nrf_init+0xddc>
    a6d0:	e59f1030 	ldr	r1, [pc, #48]	; a708 <nrf_init+0xdd8>
    a6d4:	e59f007c 	ldr	r0, [pc, #124]	; a758 <nrf_init+0xe28>
    a6d8:	eb000c2a 	bl	d788 <printk>
    a6dc:	eb000d32 	bl	dbac <clean_reboot>
    a6e0:	00002058 	.word	0x00002058
    a6e4:	00002014 	.word	0x00002014
    a6e8:	12345678 	.word	0x12345678
    a6ec:	0000eb48 	.word	0x0000eb48
    a6f0:	0000ee2c 	.word	0x0000ee2c
    a6f4:	0000e9c0 	.word	0x0000e9c0
    a6f8:	0000e1c4 	.word	0x0000e1c4
    a6fc:	0000eb1c 	.word	0x0000eb1c
    a700:	0000eb28 	.word	0x0000eb28
    a704:	0000eb34 	.word	0x0000eb34
    a708:	0000eac0 	.word	0x0000eac0
    a70c:	0000ee34 	.word	0x0000ee34
    a710:	0000eb70 	.word	0x0000eb70
    a714:	0000eb84 	.word	0x0000eb84
    a718:	0000eba0 	.word	0x0000eba0
    a71c:	0000ebbc 	.word	0x0000ebbc
    a720:	0000ec0c 	.word	0x0000ec0c
    a724:	0000ebd8 	.word	0x0000ebd8
    a728:	0000ebf4 	.word	0x0000ebf4
    a72c:	0000e2d8 	.word	0x0000e2d8
    a730:	0000ee40 	.word	0x0000ee40
    a734:	0000e294 	.word	0x0000e294
    a738:	0000ec24 	.word	0x0000ec24
    a73c:	00000102 	.word	0x00000102
    a740:	00000103 	.word	0x00000103
    a744:	0000010d 	.word	0x0000010d
    a748:	00000117 	.word	0x00000117
    a74c:	0000e7cc 	.word	0x0000e7cc
    a750:	0000ec58 	.word	0x0000ec58
    a754:	00000125 	.word	0x00000125
    a758:	0000e7e0 	.word	0x0000e7e0
    a75c:	0000ec40 	.word	0x0000ec40
    a760:	0000ec70 	.word	0x0000ec70
    a764:	0000ec88 	.word	0x0000ec88
    a768:	0000eca0 	.word	0x0000eca0
    a76c:	0000ecb4 	.word	0x0000ecb4
    a770:	0000ecd8 	.word	0x0000ecd8
    a774:	0000ead0 	.word	0x0000ead0
    a778:	0000ecf0 	.word	0x0000ecf0
    a77c:	00000121 	.word	0x00000121
    a780:	00000122 	.word	0x00000122
    a784:	00000123 	.word	0x00000123
    a788:	00000127 	.word	0x00000127
    a78c:	00000129 	.word	0x00000129
    a790:	0000012a 	.word	0x0000012a
    a794:	0000012b 	.word	0x0000012b

0000a798 <nrf_get_pkts>:
    a798:	e92d4ff0 	push	{r4, r5, r6, r7, r8, r9, sl, fp, lr}
    a79c:	e28db020 	add	fp, sp, #32, 0
    a7a0:	e24dd00c 	sub	sp, sp, #12, 0
    a7a4:	e1a04000 	mov	r4, r0
    a7a8:	e3a01000 	mov	r1, #0, 0
    a7ac:	ebfff6c2 	bl	82bc <nrf_get8>
    a7b0:	e350007f 	cmp	r0, #127, 0	; 0x7f
    a7b4:	1a000005 	bne	a7d0 <nrf_get_pkts+0x38>
    a7b8:	e1a00004 	mov	r0, r4
    a7bc:	ebfffbc1 	bl	96c8 <nrf_rx_has_packet>
    a7c0:	e2508000 	subs	r8, r0, #0, 0
    a7c4:	0a0000a2 	beq	aa54 <nrf_get_pkts+0x2bc>
    a7c8:	e3a08000 	mov	r8, #0, 0
    a7cc:	ea000068 	b	a974 <nrf_get_pkts+0x1dc>
    a7d0:	e1a01004 	mov	r1, r4
    a7d4:	e59f02b0 	ldr	r0, [pc, #688]	; aa8c <nrf_get_pkts+0x2f4>
    a7d8:	ebfff8ac 	bl	8a90 <nrf_dump>
    a7dc:	e59f32ac 	ldr	r3, [pc, #684]	; aa90 <nrf_get_pkts+0x2f8>
    a7e0:	e58d3000 	str	r3, [sp]
    a7e4:	e59f32a8 	ldr	r3, [pc, #680]	; aa94 <nrf_get_pkts+0x2fc>
    a7e8:	e59f22a8 	ldr	r2, [pc, #680]	; aa98 <nrf_get_pkts+0x300>
    a7ec:	e59f12a8 	ldr	r1, [pc, #680]	; aa9c <nrf_get_pkts+0x304>
    a7f0:	e59f02a8 	ldr	r0, [pc, #680]	; aaa0 <nrf_get_pkts+0x308>
    a7f4:	eb000be3 	bl	d788 <printk>
    a7f8:	eb000ceb 	bl	dbac <clean_reboot>
    a7fc:	e1a01004 	mov	r1, r4
    a800:	e59f0284 	ldr	r0, [pc, #644]	; aa8c <nrf_get_pkts+0x2f4>
    a804:	ebfff8a1 	bl	8a90 <nrf_dump>
    a808:	e59f3294 	ldr	r3, [pc, #660]	; aaa4 <nrf_get_pkts+0x30c>
    a80c:	e58d3000 	str	r3, [sp]
    a810:	e59f3290 	ldr	r3, [pc, #656]	; aaa8 <nrf_get_pkts+0x310>
    a814:	e59f227c 	ldr	r2, [pc, #636]	; aa98 <nrf_get_pkts+0x300>
    a818:	e59f127c 	ldr	r1, [pc, #636]	; aa9c <nrf_get_pkts+0x304>
    a81c:	e59f027c 	ldr	r0, [pc, #636]	; aaa0 <nrf_get_pkts+0x308>
    a820:	eb000bd8 	bl	d788 <printk>
    a824:	eb000ce0 	bl	dbac <clean_reboot>
    a828:	e1a01004 	mov	r1, r4
    a82c:	e59f0258 	ldr	r0, [pc, #600]	; aa8c <nrf_get_pkts+0x2f4>
    a830:	ebfff896 	bl	8a90 <nrf_dump>
    a834:	e59f3270 	ldr	r3, [pc, #624]	; aaac <nrf_get_pkts+0x314>
    a838:	e58d3000 	str	r3, [sp]
    a83c:	e59f326c 	ldr	r3, [pc, #620]	; aab0 <nrf_get_pkts+0x318>
    a840:	e59f2250 	ldr	r2, [pc, #592]	; aa98 <nrf_get_pkts+0x300>
    a844:	e59f1250 	ldr	r1, [pc, #592]	; aa9c <nrf_get_pkts+0x304>
    a848:	e59f0250 	ldr	r0, [pc, #592]	; aaa0 <nrf_get_pkts+0x308>
    a84c:	eb000bcd 	bl	d788 <printk>
    a850:	eb000cd5 	bl	dbac <clean_reboot>
    a854:	e59f3258 	ldr	r3, [pc, #600]	; aab4 <nrf_get_pkts+0x31c>
    a858:	e58d3000 	str	r3, [sp]
    a85c:	e3a030a1 	mov	r3, #161, 0	; 0xa1
    a860:	e59f2250 	ldr	r2, [pc, #592]	; aab8 <nrf_get_pkts+0x320>
    a864:	e59f1250 	ldr	r1, [pc, #592]	; aabc <nrf_get_pkts+0x324>
    a868:	e59f0250 	ldr	r0, [pc, #592]	; aac0 <nrf_get_pkts+0x328>
    a86c:	eb000bc5 	bl	d788 <printk>
    a870:	eb000ccd 	bl	dbac <clean_reboot>
    a874:	e59f3248 	ldr	r3, [pc, #584]	; aac4 <nrf_get_pkts+0x32c>
    a878:	e58d3000 	str	r3, [sp]
    a87c:	e3a0306a 	mov	r3, #106, 0	; 0x6a
    a880:	e59f2240 	ldr	r2, [pc, #576]	; aac8 <nrf_get_pkts+0x330>
    a884:	e59f1230 	ldr	r1, [pc, #560]	; aabc <nrf_get_pkts+0x324>
    a888:	e59f0230 	ldr	r0, [pc, #560]	; aac0 <nrf_get_pkts+0x328>
    a88c:	eb000bbd 	bl	d788 <printk>
    a890:	eb000cc5 	bl	dbac <clean_reboot>
    a894:	e1a03006 	mov	r3, r6
    a898:	e3530000 	cmp	r3, #0, 0
    a89c:	0a00001d 	beq	a918 <nrf_get_pkts+0x180>
    a8a0:	e2800001 	add	r0, r0, #1, 0
    a8a4:	e15c0000 	cmp	ip, r0
    a8a8:	9a000021 	bls	a934 <nrf_get_pkts+0x19c>
    a8ac:	e7d7e000 	ldrb	lr, [r7, r0]
    a8b0:	e2812a02 	add	r2, r1, #8192	; 0x2000
    a8b4:	e5923004 	ldr	r3, [r2, #4]
    a8b8:	e2833001 	add	r3, r3, #1, 0
    a8bc:	e1a03983 	lsl	r3, r3, #19
    a8c0:	e1a039a3 	lsr	r3, r3, #19
    a8c4:	e5922008 	ldr	r2, [r2, #8]
    a8c8:	e1530002 	cmp	r3, r2
    a8cc:	0afffff0 	beq	a894 <nrf_get_pkts+0xfc>
    a8d0:	e281aa02 	add	sl, r1, #8192	; 0x2000
    a8d4:	e59a2004 	ldr	r2, [sl, #4]
    a8d8:	e59a3004 	ldr	r3, [sl, #4]
    a8dc:	e59aa008 	ldr	sl, [sl, #8]
    a8e0:	e043300a 	sub	r3, r3, sl
    a8e4:	e1e03003 	mvn	r3, r3
    a8e8:	e1a03983 	lsl	r3, r3, #19
    a8ec:	e1a039a3 	lsr	r3, r3, #19
    a8f0:	e3530000 	cmp	r3, #0, 0
    a8f4:	0affffde 	beq	a874 <nrf_get_pkts+0xdc>
    a8f8:	e7c1e002 	strb	lr, [r1, r2]
    a8fc:	e2822001 	add	r2, r2, #1, 0
    a900:	e1a02982 	lsl	r2, r2, #19
    a904:	e1a029a2 	lsr	r2, r2, #19
    a908:	e2813a02 	add	r3, r1, #8192	; 0x2000
    a90c:	e5832004 	str	r2, [r3, #4]
    a910:	e1a03005 	mov	r3, r5
    a914:	eaffffdf 	b	a898 <nrf_get_pkts+0x100>
    a918:	e3a030aa 	mov	r3, #170, 0	; 0xaa
    a91c:	e59f2194 	ldr	r2, [pc, #404]	; aab8 <nrf_get_pkts+0x320>
    a920:	e59f1194 	ldr	r1, [pc, #404]	; aabc <nrf_get_pkts+0x324>
    a924:	e59f01a0 	ldr	r0, [pc, #416]	; aacc <nrf_get_pkts+0x334>
    a928:	eb000b96 	bl	d788 <printk>
    a92c:	eb000c9e 	bl	dbac <clean_reboot>
    a930:	e1a05006 	mov	r5, r6
    a934:	e3550000 	cmp	r5, #0, 0
    a938:	0a00003a 	beq	aa28 <nrf_get_pkts+0x290>
    a93c:	e2888001 	add	r8, r8, #1, 0
    a940:	e2843a02 	add	r3, r4, #8192	; 0x2000
    a944:	e5932050 	ldr	r2, [r3, #80]	; 0x50
    a948:	e2822001 	add	r2, r2, #1, 0
    a94c:	e5832050 	str	r2, [r3, #80]	; 0x50
    a950:	e5d41003 	ldrb	r1, [r4, #3]
    a954:	e5932054 	ldr	r2, [r3, #84]	; 0x54
    a958:	e0822001 	add	r2, r2, r1
    a95c:	e5832054 	str	r2, [r3, #84]	; 0x54
    a960:	e3a02040 	mov	r2, #64, 0	; 0x40
    a964:	e3a01007 	mov	r1, #7, 0
    a968:	e1a00004 	mov	r0, r4
    a96c:	ebfff667 	bl	8310 <nrf_put8>
    a970:	e1a0d009 	mov	sp, r9
    a974:	e3a02000 	mov	r2, #0, 0
    a978:	e3a01017 	mov	r1, #23, 0
    a97c:	e1a00004 	mov	r0, r4
    a980:	ebfff770 	bl	8748 <nrf_bit_isset>
    a984:	e2506000 	subs	r6, r0, #0, 0
    a988:	1a00002c 	bne	aa40 <nrf_get_pkts+0x2a8>
    a98c:	e1a0900d 	mov	r9, sp
    a990:	e3a01007 	mov	r1, #7, 0
    a994:	e1a00004 	mov	r0, r4
    a998:	ebfff647 	bl	82bc <nrf_get8>
    a99c:	e1a050a0 	lsr	r5, r0, #1
    a9a0:	e2055007 	and	r5, r5, #7, 0
    a9a4:	e3550001 	cmp	r5, #1, 0
    a9a8:	1affff93 	bne	a7fc <nrf_get_pkts+0x64>
    a9ac:	e3a01007 	mov	r1, #7, 0
    a9b0:	e1a00004 	mov	r0, r4
    a9b4:	ebfff640 	bl	82bc <nrf_get8>
    a9b8:	e1a000a0 	lsr	r0, r0, #1
    a9bc:	e2000007 	and	r0, r0, #7, 0
    a9c0:	e3500007 	cmp	r0, #7, 0
    a9c4:	0affff97 	beq	a828 <nrf_get_pkts+0x90>
    a9c8:	e5d43003 	ldrb	r3, [r4, #3]
    a9cc:	e2832007 	add	r2, r3, #7, 0
    a9d0:	e2022f7e 	and	r2, r2, #504	; 0x1f8
    a9d4:	e04dd002 	sub	sp, sp, r2
    a9d8:	e28d2008 	add	r2, sp, #8, 0
    a9dc:	e1a07002 	mov	r7, r2
    a9e0:	e3a01061 	mov	r1, #97, 0	; 0x61
    a9e4:	e1a00004 	mov	r0, r4
    a9e8:	ebfff67f 	bl	83ec <nrf_getn>
    a9ec:	e2841024 	add	r1, r4, #36, 0	; 0x24
    a9f0:	e5d4c003 	ldrb	ip, [r4, #3]
    a9f4:	e35c0000 	cmp	ip, #0, 0
    a9f8:	0affff95 	beq	a854 <nrf_get_pkts+0xbc>
    a9fc:	e2812a02 	add	r2, r1, #8192	; 0x2000
    aa00:	e5923004 	ldr	r3, [r2, #4]
    aa04:	e5922008 	ldr	r2, [r2, #8]
    aa08:	e0433002 	sub	r3, r3, r2
    aa0c:	e1e03003 	mvn	r3, r3
    aa10:	e1a03983 	lsl	r3, r3, #19
    aa14:	e1a039a3 	lsr	r3, r3, #19
    aa18:	e15c0003 	cmp	ip, r3
    aa1c:	8affffc3 	bhi	a930 <nrf_get_pkts+0x198>
    aa20:	e1a00006 	mov	r0, r6
    aa24:	eaffff9e 	b	a8a4 <nrf_get_pkts+0x10c>
    aa28:	e59f30a0 	ldr	r3, [pc, #160]	; aad0 <nrf_get_pkts+0x338>
    aa2c:	e59f2064 	ldr	r2, [pc, #100]	; aa98 <nrf_get_pkts+0x300>
    aa30:	e59f1064 	ldr	r1, [pc, #100]	; aa9c <nrf_get_pkts+0x304>
    aa34:	e59f0098 	ldr	r0, [pc, #152]	; aad4 <nrf_get_pkts+0x33c>
    aa38:	eb000b52 	bl	d788 <printk>
    aa3c:	eb000c5a 	bl	dbac <clean_reboot>
    aa40:	e3a01000 	mov	r1, #0, 0
    aa44:	e1a00004 	mov	r0, r4
    aa48:	ebfff61b 	bl	82bc <nrf_get8>
    aa4c:	e350007f 	cmp	r0, #127, 0	; 0x7f
    aa50:	1a000002 	bne	aa60 <nrf_get_pkts+0x2c8>
    aa54:	e1a00008 	mov	r0, r8
    aa58:	e24bd020 	sub	sp, fp, #32, 0
    aa5c:	e8bd8ff0 	pop	{r4, r5, r6, r7, r8, r9, sl, fp, pc}
    aa60:	e1a01004 	mov	r1, r4
    aa64:	e59f0020 	ldr	r0, [pc, #32]	; aa8c <nrf_get_pkts+0x2f4>
    aa68:	ebfff808 	bl	8a90 <nrf_dump>
    aa6c:	e59f301c 	ldr	r3, [pc, #28]	; aa90 <nrf_get_pkts+0x2f8>
    aa70:	e58d3000 	str	r3, [sp]
    aa74:	e59f305c 	ldr	r3, [pc, #92]	; aad8 <nrf_get_pkts+0x340>
    aa78:	e59f2018 	ldr	r2, [pc, #24]	; aa98 <nrf_get_pkts+0x300>
    aa7c:	e59f1018 	ldr	r1, [pc, #24]	; aa9c <nrf_get_pkts+0x304>
    aa80:	e59f0018 	ldr	r0, [pc, #24]	; aaa0 <nrf_get_pkts+0x308>
    aa84:	eb000b3f 	bl	d788 <printk>
    aa88:	eb000c47 	bl	dbac <clean_reboot>
    aa8c:	0000e7cc 	.word	0x0000e7cc
    aa90:	0000ecf0 	.word	0x0000ecf0
    aa94:	000001d6 	.word	0x000001d6
    aa98:	0000ee4c 	.word	0x0000ee4c
    aa9c:	0000eac0 	.word	0x0000eac0
    aaa0:	0000e7e0 	.word	0x0000e7e0
    aaa4:	0000ed18 	.word	0x0000ed18
    aaa8:	000001ed 	.word	0x000001ed
    aaac:	0000ed24 	.word	0x0000ed24
    aab0:	000001ef 	.word	0x000001ef
    aab4:	0000ed58 	.word	0x0000ed58
    aab8:	0000ee5c 	.word	0x0000ee5c
    aabc:	0000e9c0 	.word	0x0000e9c0
    aac0:	0000e1c4 	.word	0x0000e1c4
    aac4:	0000ed5c 	.word	0x0000ed5c
    aac8:	0000ee68 	.word	0x0000ee68
    aacc:	0000ed70 	.word	0x0000ed70
    aad0:	000001f5 	.word	0x000001f5
    aad4:	0000eda8 	.word	0x0000eda8
    aad8:	000001fe 	.word	0x000001fe

0000aadc <nrf_tx_send_ack>:
    aadc:	e92d40f0 	push	{r4, r5, r6, r7, lr}
    aae0:	e24dd00c 	sub	sp, sp, #12, 0
    aae4:	e1a04000 	mov	r4, r0
    aae8:	e1a05001 	mov	r5, r1
    aaec:	e1a07002 	mov	r7, r2
    aaf0:	e1a06003 	mov	r6, r3
    aaf4:	e3a01000 	mov	r1, #0, 0
    aaf8:	ebfff5ef 	bl	82bc <nrf_get8>
    aafc:	e350007f 	cmp	r0, #127, 0	; 0x7f
    ab00:	1a000040 	bne	ac08 <nrf_tx_send_ack+0x12c>
    ab04:	e3a01002 	mov	r1, #2, 0
    ab08:	e1a00004 	mov	r0, r4
    ab0c:	ebfff5ea 	bl	82bc <nrf_get8>
    ab10:	e3100001 	tst	r0, #1, 0
    ab14:	0a000046 	beq	ac34 <nrf_tx_send_ack+0x158>
    ab18:	e3a01002 	mov	r1, #2, 0
    ab1c:	e1a00004 	mov	r0, r4
    ab20:	ebfff5e5 	bl	82bc <nrf_get8>
    ab24:	e3100002 	tst	r0, #2, 0
    ab28:	0a00004c 	beq	ac60 <nrf_tx_send_ack+0x184>
    ab2c:	e3a01001 	mov	r1, #1, 0
    ab30:	e1a00004 	mov	r0, r4
    ab34:	ebfff5e0 	bl	82bc <nrf_get8>
    ab38:	e3100001 	tst	r0, #1, 0
    ab3c:	0a000052 	beq	ac8c <nrf_tx_send_ack+0x1b0>
    ab40:	e3a01001 	mov	r1, #1, 0
    ab44:	e1a00004 	mov	r0, r4
    ab48:	ebfff5db 	bl	82bc <nrf_get8>
    ab4c:	e3100002 	tst	r0, #2, 0
    ab50:	0a000058 	beq	acb8 <nrf_tx_send_ack+0x1dc>
    ab54:	e3a02004 	mov	r2, #4, 0
    ab58:	e3a01017 	mov	r1, #23, 0
    ab5c:	e1a00004 	mov	r0, r4
    ab60:	ebfff6f8 	bl	8748 <nrf_bit_isset>
    ab64:	e3500000 	cmp	r0, #0, 0
    ab68:	0a00005d 	beq	ace4 <nrf_tx_send_ack+0x208>
    ab6c:	e1a00004 	mov	r0, r4
    ab70:	ebffff08 	bl	a798 <nrf_get_pkts>
    ab74:	e3500000 	cmp	r0, #0, 0
    ab78:	1afffffb 	bne	ab6c <nrf_tx_send_ack+0x90>
    ab7c:	e3a03003 	mov	r3, #3, 0
    ab80:	e1a02005 	mov	r2, r5
    ab84:	e3a01010 	mov	r1, #16, 0
    ab88:	e1a00004 	mov	r0, r4
    ab8c:	ebfff95f 	bl	9110 <nrf_set_addr>
    ab90:	e3a03003 	mov	r3, #3, 0
    ab94:	e1a02005 	mov	r2, r5
    ab98:	e3a0100a 	mov	r1, #10, 0
    ab9c:	e1a00004 	mov	r0, r4
    aba0:	ebfff95a 	bl	9110 <nrf_set_addr>
    aba4:	e1a03006 	mov	r3, r6
    aba8:	e1a02007 	mov	r2, r7
    abac:	e3a010a0 	mov	r1, #160, 0	; 0xa0
    abb0:	e1a00004 	mov	r0, r4
    abb4:	ebfff642 	bl	84c4 <nrf_putn>
    abb8:	e1a00004 	mov	r0, r4
    abbc:	ebfffac8 	bl	96e4 <nrf_tx_mode>
    abc0:	e3a02005 	mov	r2, #5, 0
    abc4:	e3a01007 	mov	r1, #7, 0
    abc8:	e1a00004 	mov	r0, r4
    abcc:	ebfff6dd 	bl	8748 <nrf_bit_isset>
    abd0:	e3500000 	cmp	r0, #0, 0
    abd4:	1a00004d 	bne	ad10 <nrf_tx_send_ack+0x234>
    abd8:	e3a02004 	mov	r2, #4, 0
    abdc:	e3a01007 	mov	r1, #7, 0
    abe0:	e1a00004 	mov	r0, r4
    abe4:	ebfff6d7 	bl	8748 <nrf_bit_isset>
    abe8:	e3500000 	cmp	r0, #0, 0
    abec:	0afffff3 	beq	abc0 <nrf_tx_send_ack+0xe4>
    abf0:	e59f31f8 	ldr	r3, [pc, #504]	; adf0 <nrf_tx_send_ack+0x314>
    abf4:	e59f21f8 	ldr	r2, [pc, #504]	; adf4 <nrf_tx_send_ack+0x318>
    abf8:	e59f11f8 	ldr	r1, [pc, #504]	; adf8 <nrf_tx_send_ack+0x31c>
    abfc:	e59f01f8 	ldr	r0, [pc, #504]	; adfc <nrf_tx_send_ack+0x320>
    ac00:	eb000ae0 	bl	d788 <printk>
    ac04:	eb000be8 	bl	dbac <clean_reboot>
    ac08:	e1a01004 	mov	r1, r4
    ac0c:	e59f01ec 	ldr	r0, [pc, #492]	; ae00 <nrf_tx_send_ack+0x324>
    ac10:	ebfff79e 	bl	8a90 <nrf_dump>
    ac14:	e59f31e8 	ldr	r3, [pc, #488]	; ae04 <nrf_tx_send_ack+0x328>
    ac18:	e58d3000 	str	r3, [sp]
    ac1c:	e59f31e4 	ldr	r3, [pc, #484]	; ae08 <nrf_tx_send_ack+0x32c>
    ac20:	e59f21cc 	ldr	r2, [pc, #460]	; adf4 <nrf_tx_send_ack+0x318>
    ac24:	e59f11cc 	ldr	r1, [pc, #460]	; adf8 <nrf_tx_send_ack+0x31c>
    ac28:	e59f01dc 	ldr	r0, [pc, #476]	; ae0c <nrf_tx_send_ack+0x330>
    ac2c:	eb000ad5 	bl	d788 <printk>
    ac30:	eb000bdd 	bl	dbac <clean_reboot>
    ac34:	e1a01004 	mov	r1, r4
    ac38:	e59f01c0 	ldr	r0, [pc, #448]	; ae00 <nrf_tx_send_ack+0x324>
    ac3c:	ebfff793 	bl	8a90 <nrf_dump>
    ac40:	e59f31c8 	ldr	r3, [pc, #456]	; ae10 <nrf_tx_send_ack+0x334>
    ac44:	e58d3000 	str	r3, [sp]
    ac48:	e59f31c4 	ldr	r3, [pc, #452]	; ae14 <nrf_tx_send_ack+0x338>
    ac4c:	e59f21a0 	ldr	r2, [pc, #416]	; adf4 <nrf_tx_send_ack+0x318>
    ac50:	e59f11a0 	ldr	r1, [pc, #416]	; adf8 <nrf_tx_send_ack+0x31c>
    ac54:	e59f01b0 	ldr	r0, [pc, #432]	; ae0c <nrf_tx_send_ack+0x330>
    ac58:	eb000aca 	bl	d788 <printk>
    ac5c:	eb000bd2 	bl	dbac <clean_reboot>
    ac60:	e1a01004 	mov	r1, r4
    ac64:	e59f0194 	ldr	r0, [pc, #404]	; ae00 <nrf_tx_send_ack+0x324>
    ac68:	ebfff788 	bl	8a90 <nrf_dump>
    ac6c:	e59f31a4 	ldr	r3, [pc, #420]	; ae18 <nrf_tx_send_ack+0x33c>
    ac70:	e58d3000 	str	r3, [sp]
    ac74:	e59f31a0 	ldr	r3, [pc, #416]	; ae1c <nrf_tx_send_ack+0x340>
    ac78:	e59f2174 	ldr	r2, [pc, #372]	; adf4 <nrf_tx_send_ack+0x318>
    ac7c:	e59f1174 	ldr	r1, [pc, #372]	; adf8 <nrf_tx_send_ack+0x31c>
    ac80:	e59f0184 	ldr	r0, [pc, #388]	; ae0c <nrf_tx_send_ack+0x330>
    ac84:	eb000abf 	bl	d788 <printk>
    ac88:	eb000bc7 	bl	dbac <clean_reboot>
    ac8c:	e1a01004 	mov	r1, r4
    ac90:	e59f0168 	ldr	r0, [pc, #360]	; ae00 <nrf_tx_send_ack+0x324>
    ac94:	ebfff77d 	bl	8a90 <nrf_dump>
    ac98:	e59f3180 	ldr	r3, [pc, #384]	; ae20 <nrf_tx_send_ack+0x344>
    ac9c:	e58d3000 	str	r3, [sp]
    aca0:	e3a03f59 	mov	r3, #356	; 0x164
    aca4:	e59f2148 	ldr	r2, [pc, #328]	; adf4 <nrf_tx_send_ack+0x318>
    aca8:	e59f1148 	ldr	r1, [pc, #328]	; adf8 <nrf_tx_send_ack+0x31c>
    acac:	e59f0158 	ldr	r0, [pc, #344]	; ae0c <nrf_tx_send_ack+0x330>
    acb0:	eb000ab4 	bl	d788 <printk>
    acb4:	eb000bbc 	bl	dbac <clean_reboot>
    acb8:	e1a01004 	mov	r1, r4
    acbc:	e59f013c 	ldr	r0, [pc, #316]	; ae00 <nrf_tx_send_ack+0x324>
    acc0:	ebfff772 	bl	8a90 <nrf_dump>
    acc4:	e59f3158 	ldr	r3, [pc, #344]	; ae24 <nrf_tx_send_ack+0x348>
    acc8:	e58d3000 	str	r3, [sp]
    accc:	e59f3154 	ldr	r3, [pc, #340]	; ae28 <nrf_tx_send_ack+0x34c>
    acd0:	e59f211c 	ldr	r2, [pc, #284]	; adf4 <nrf_tx_send_ack+0x318>
    acd4:	e59f111c 	ldr	r1, [pc, #284]	; adf8 <nrf_tx_send_ack+0x31c>
    acd8:	e59f012c 	ldr	r0, [pc, #300]	; ae0c <nrf_tx_send_ack+0x330>
    acdc:	eb000aa9 	bl	d788 <printk>
    ace0:	eb000bb1 	bl	dbac <clean_reboot>
    ace4:	e1a01004 	mov	r1, r4
    ace8:	e59f0110 	ldr	r0, [pc, #272]	; ae00 <nrf_tx_send_ack+0x324>
    acec:	ebfff767 	bl	8a90 <nrf_dump>
    acf0:	e59f3134 	ldr	r3, [pc, #308]	; ae2c <nrf_tx_send_ack+0x350>
    acf4:	e58d3000 	str	r3, [sp]
    acf8:	e59f3130 	ldr	r3, [pc, #304]	; ae30 <nrf_tx_send_ack+0x354>
    acfc:	e59f20f0 	ldr	r2, [pc, #240]	; adf4 <nrf_tx_send_ack+0x318>
    ad00:	e59f10f0 	ldr	r1, [pc, #240]	; adf8 <nrf_tx_send_ack+0x31c>
    ad04:	e59f0100 	ldr	r0, [pc, #256]	; ae0c <nrf_tx_send_ack+0x330>
    ad08:	eb000a9e 	bl	d788 <printk>
    ad0c:	eb000ba6 	bl	dbac <clean_reboot>
    ad10:	e3a02020 	mov	r2, #32, 0
    ad14:	e3a01007 	mov	r1, #7, 0
    ad18:	e1a00004 	mov	r0, r4
    ad1c:	ebfff57b 	bl	8310 <nrf_put8>
    ad20:	e1a00004 	mov	r0, r4
    ad24:	ebfffabb 	bl	9818 <nrf_rx_mode>
    ad28:	e2845a02 	add	r5, r4, #8192	; 0x2000
    ad2c:	e5953040 	ldr	r3, [r5, #64]	; 0x40
    ad30:	e2833001 	add	r3, r3, #1, 0
    ad34:	e5853040 	str	r3, [r5, #64]	; 0x40
    ad38:	e5953044 	ldr	r3, [r5, #68]	; 0x44
    ad3c:	e0833006 	add	r3, r3, r6
    ad40:	e5853044 	str	r3, [r5, #68]	; 0x44
    ad44:	e3a01008 	mov	r1, #8, 0
    ad48:	e1a00004 	mov	r0, r4
    ad4c:	ebfff55a 	bl	82bc <nrf_get8>
    ad50:	e200000f 	and	r0, r0, #15, 0
    ad54:	e5953048 	ldr	r3, [r5, #72]	; 0x48
    ad58:	e0833000 	add	r3, r3, r0
    ad5c:	e5853048 	str	r3, [r5, #72]	; 0x48
    ad60:	e3a02005 	mov	r2, #5, 0
    ad64:	e3a01007 	mov	r1, #7, 0
    ad68:	e1a00004 	mov	r0, r4
    ad6c:	ebfff675 	bl	8748 <nrf_bit_isset>
    ad70:	e3500000 	cmp	r0, #0, 0
    ad74:	1a000007 	bne	ad98 <nrf_tx_send_ack+0x2bc>
    ad78:	e3a01000 	mov	r1, #0, 0
    ad7c:	e1a00004 	mov	r0, r4
    ad80:	ebfff54d 	bl	82bc <nrf_get8>
    ad84:	e350007f 	cmp	r0, #127, 0	; 0x7f
    ad88:	1a00000d 	bne	adc4 <nrf_tx_send_ack+0x2e8>
    ad8c:	e1a00006 	mov	r0, r6
    ad90:	e28dd00c 	add	sp, sp, #12, 0
    ad94:	e8bd80f0 	pop	{r4, r5, r6, r7, pc}
    ad98:	e1a01004 	mov	r1, r4
    ad9c:	e59f005c 	ldr	r0, [pc, #92]	; ae00 <nrf_tx_send_ack+0x324>
    ada0:	ebfff73a 	bl	8a90 <nrf_dump>
    ada4:	e59f3088 	ldr	r3, [pc, #136]	; ae34 <nrf_tx_send_ack+0x358>
    ada8:	e58d3000 	str	r3, [sp]
    adac:	e59f3084 	ldr	r3, [pc, #132]	; ae38 <nrf_tx_send_ack+0x35c>
    adb0:	e59f203c 	ldr	r2, [pc, #60]	; adf4 <nrf_tx_send_ack+0x318>
    adb4:	e59f103c 	ldr	r1, [pc, #60]	; adf8 <nrf_tx_send_ack+0x31c>
    adb8:	e59f004c 	ldr	r0, [pc, #76]	; ae0c <nrf_tx_send_ack+0x330>
    adbc:	eb000a71 	bl	d788 <printk>
    adc0:	eb000b79 	bl	dbac <clean_reboot>
    adc4:	e1a01004 	mov	r1, r4
    adc8:	e59f0030 	ldr	r0, [pc, #48]	; ae00 <nrf_tx_send_ack+0x324>
    adcc:	ebfff72f 	bl	8a90 <nrf_dump>
    add0:	e59f302c 	ldr	r3, [pc, #44]	; ae04 <nrf_tx_send_ack+0x328>
    add4:	e58d3000 	str	r3, [sp]
    add8:	e3a03e19 	mov	r3, #400	; 0x190
    addc:	e59f2010 	ldr	r2, [pc, #16]	; adf4 <nrf_tx_send_ack+0x318>
    ade0:	e59f1010 	ldr	r1, [pc, #16]	; adf8 <nrf_tx_send_ack+0x31c>
    ade4:	e59f0020 	ldr	r0, [pc, #32]	; ae0c <nrf_tx_send_ack+0x330>
    ade8:	eb000a66 	bl	d788 <printk>
    adec:	eb000b6e 	bl	dbac <clean_reboot>
    adf0:	0000017e 	.word	0x0000017e
    adf4:	0000ee70 	.word	0x0000ee70
    adf8:	0000eac0 	.word	0x0000eac0
    adfc:	0000eddc 	.word	0x0000eddc
    ae00:	0000e7cc 	.word	0x0000e7cc
    ae04:	0000ecf0 	.word	0x0000ecf0
    ae08:	00000161 	.word	0x00000161
    ae0c:	0000e7e0 	.word	0x0000e7e0
    ae10:	0000ebd8 	.word	0x0000ebd8
    ae14:	00000162 	.word	0x00000162
    ae18:	0000eb84 	.word	0x0000eb84
    ae1c:	00000163 	.word	0x00000163
    ae20:	0000ec0c 	.word	0x0000ec0c
    ae24:	0000ebf4 	.word	0x0000ebf4
    ae28:	00000165 	.word	0x00000165
    ae2c:	0000ec58 	.word	0x0000ec58
    ae30:	00000166 	.word	0x00000166
    ae34:	0000eca0 	.word	0x0000eca0
    ae38:	0000018e 	.word	0x0000018e

0000ae3c <nrf_tx_send_noack>:
    ae3c:	e92d40f0 	push	{r4, r5, r6, r7, lr}
    ae40:	e24dd00c 	sub	sp, sp, #12, 0
    ae44:	e1a04000 	mov	r4, r0
    ae48:	e1a07001 	mov	r7, r1
    ae4c:	e1a06002 	mov	r6, r2
    ae50:	e1a05003 	mov	r5, r3
    ae54:	e3a01000 	mov	r1, #0, 0
    ae58:	ebfff517 	bl	82bc <nrf_get8>
    ae5c:	e350007f 	cmp	r0, #127, 0	; 0x7f
    ae60:	1a000045 	bne	af7c <nrf_tx_send_noack+0x140>
    ae64:	e3a01002 	mov	r1, #2, 0
    ae68:	e1a00004 	mov	r0, r4
    ae6c:	ebfff512 	bl	82bc <nrf_get8>
    ae70:	e3100001 	tst	r0, #1, 0
    ae74:	1a00004b 	bne	afa8 <nrf_tx_send_noack+0x16c>
    ae78:	e3a01002 	mov	r1, #2, 0
    ae7c:	e1a00004 	mov	r0, r4
    ae80:	ebfff50d 	bl	82bc <nrf_get8>
    ae84:	e3100002 	tst	r0, #2, 0
    ae88:	0a000051 	beq	afd4 <nrf_tx_send_noack+0x198>
    ae8c:	e3a01001 	mov	r1, #1, 0
    ae90:	e1a00004 	mov	r0, r4
    ae94:	ebfff508 	bl	82bc <nrf_get8>
    ae98:	e3100002 	tst	r0, #2, 0
    ae9c:	1a000057 	bne	b000 <nrf_tx_send_noack+0x1c4>
    aea0:	e3a02004 	mov	r2, #4, 0
    aea4:	e3a01017 	mov	r1, #23, 0
    aea8:	e1a00004 	mov	r0, r4
    aeac:	ebfff625 	bl	8748 <nrf_bit_isset>
    aeb0:	e3500000 	cmp	r0, #0, 0
    aeb4:	0a00005c 	beq	b02c <nrf_tx_send_noack+0x1f0>
    aeb8:	e1a00004 	mov	r0, r4
    aebc:	ebfffe35 	bl	a798 <nrf_get_pkts>
    aec0:	e3500000 	cmp	r0, #0, 0
    aec4:	1afffffb 	bne	aeb8 <nrf_tx_send_noack+0x7c>
    aec8:	e3a03003 	mov	r3, #3, 0
    aecc:	e1a02007 	mov	r2, r7
    aed0:	e3a01010 	mov	r1, #16, 0
    aed4:	e1a00004 	mov	r0, r4
    aed8:	ebfff88c 	bl	9110 <nrf_set_addr>
    aedc:	e1a03005 	mov	r3, r5
    aee0:	e1a02006 	mov	r2, r6
    aee4:	e3a010a0 	mov	r1, #160, 0	; 0xa0
    aee8:	e1a00004 	mov	r0, r4
    aeec:	ebfff574 	bl	84c4 <nrf_putn>
    aef0:	e1a00004 	mov	r0, r4
    aef4:	ebfff9fa 	bl	96e4 <nrf_tx_mode>
    aef8:	e3a02005 	mov	r2, #5, 0
    aefc:	e3a01007 	mov	r1, #7, 0
    af00:	e1a00004 	mov	r0, r4
    af04:	ebfff60f 	bl	8748 <nrf_bit_isset>
    af08:	e3500000 	cmp	r0, #0, 0
    af0c:	0afffff9 	beq	aef8 <nrf_tx_send_noack+0xbc>
    af10:	e3a02020 	mov	r2, #32, 0
    af14:	e3a01007 	mov	r1, #7, 0
    af18:	e1a00004 	mov	r0, r4
    af1c:	ebfff4fb 	bl	8310 <nrf_put8>
    af20:	e1a00004 	mov	r0, r4
    af24:	ebfffa3b 	bl	9818 <nrf_rx_mode>
    af28:	e2843a02 	add	r3, r4, #8192	; 0x2000
    af2c:	e5932040 	ldr	r2, [r3, #64]	; 0x40
    af30:	e2822001 	add	r2, r2, #1, 0
    af34:	e5832040 	str	r2, [r3, #64]	; 0x40
    af38:	e5932044 	ldr	r2, [r3, #68]	; 0x44
    af3c:	e0822005 	add	r2, r2, r5
    af40:	e5832044 	str	r2, [r3, #68]	; 0x44
    af44:	e3a02005 	mov	r2, #5, 0
    af48:	e3a01007 	mov	r1, #7, 0
    af4c:	e1a00004 	mov	r0, r4
    af50:	ebfff5fc 	bl	8748 <nrf_bit_isset>
    af54:	e3500000 	cmp	r0, #0, 0
    af58:	1a00003e 	bne	b058 <nrf_tx_send_noack+0x21c>
    af5c:	e3a01000 	mov	r1, #0, 0
    af60:	e1a00004 	mov	r0, r4
    af64:	ebfff4d4 	bl	82bc <nrf_get8>
    af68:	e350007f 	cmp	r0, #127, 0	; 0x7f
    af6c:	1a000044 	bne	b084 <nrf_tx_send_noack+0x248>
    af70:	e1a00005 	mov	r0, r5
    af74:	e28dd00c 	add	sp, sp, #12, 0
    af78:	e8bd80f0 	pop	{r4, r5, r6, r7, pc}
    af7c:	e1a01004 	mov	r1, r4
    af80:	e59f0128 	ldr	r0, [pc, #296]	; b0b0 <nrf_tx_send_noack+0x274>
    af84:	ebfff6c1 	bl	8a90 <nrf_dump>
    af88:	e59f3124 	ldr	r3, [pc, #292]	; b0b4 <nrf_tx_send_noack+0x278>
    af8c:	e58d3000 	str	r3, [sp]
    af90:	e59f3120 	ldr	r3, [pc, #288]	; b0b8 <nrf_tx_send_noack+0x27c>
    af94:	e59f2120 	ldr	r2, [pc, #288]	; b0bc <nrf_tx_send_noack+0x280>
    af98:	e59f1120 	ldr	r1, [pc, #288]	; b0c0 <nrf_tx_send_noack+0x284>
    af9c:	e59f0120 	ldr	r0, [pc, #288]	; b0c4 <nrf_tx_send_noack+0x288>
    afa0:	eb0009f8 	bl	d788 <printk>
    afa4:	eb000b00 	bl	dbac <clean_reboot>
    afa8:	e1a01004 	mov	r1, r4
    afac:	e59f00fc 	ldr	r0, [pc, #252]	; b0b0 <nrf_tx_send_noack+0x274>
    afb0:	ebfff6b6 	bl	8a90 <nrf_dump>
    afb4:	e59f310c 	ldr	r3, [pc, #268]	; b0c8 <nrf_tx_send_noack+0x28c>
    afb8:	e58d3000 	str	r3, [sp]
    afbc:	e59f3108 	ldr	r3, [pc, #264]	; b0cc <nrf_tx_send_noack+0x290>
    afc0:	e59f20f4 	ldr	r2, [pc, #244]	; b0bc <nrf_tx_send_noack+0x280>
    afc4:	e59f10f4 	ldr	r1, [pc, #244]	; b0c0 <nrf_tx_send_noack+0x284>
    afc8:	e59f00f4 	ldr	r0, [pc, #244]	; b0c4 <nrf_tx_send_noack+0x288>
    afcc:	eb0009ed 	bl	d788 <printk>
    afd0:	eb000af5 	bl	dbac <clean_reboot>
    afd4:	e1a01004 	mov	r1, r4
    afd8:	e59f00d0 	ldr	r0, [pc, #208]	; b0b0 <nrf_tx_send_noack+0x274>
    afdc:	ebfff6ab 	bl	8a90 <nrf_dump>
    afe0:	e59f30e8 	ldr	r3, [pc, #232]	; b0d0 <nrf_tx_send_noack+0x294>
    afe4:	e58d3000 	str	r3, [sp]
    afe8:	e59f30e4 	ldr	r3, [pc, #228]	; b0d4 <nrf_tx_send_noack+0x298>
    afec:	e59f20c8 	ldr	r2, [pc, #200]	; b0bc <nrf_tx_send_noack+0x280>
    aff0:	e59f10c8 	ldr	r1, [pc, #200]	; b0c0 <nrf_tx_send_noack+0x284>
    aff4:	e59f00c8 	ldr	r0, [pc, #200]	; b0c4 <nrf_tx_send_noack+0x288>
    aff8:	eb0009e2 	bl	d788 <printk>
    affc:	eb000aea 	bl	dbac <clean_reboot>
    b000:	e1a01004 	mov	r1, r4
    b004:	e59f00a4 	ldr	r0, [pc, #164]	; b0b0 <nrf_tx_send_noack+0x274>
    b008:	ebfff6a0 	bl	8a90 <nrf_dump>
    b00c:	e59f30c4 	ldr	r3, [pc, #196]	; b0d8 <nrf_tx_send_noack+0x29c>
    b010:	e58d3000 	str	r3, [sp]
    b014:	e3a03f67 	mov	r3, #412	; 0x19c
    b018:	e59f209c 	ldr	r2, [pc, #156]	; b0bc <nrf_tx_send_noack+0x280>
    b01c:	e59f109c 	ldr	r1, [pc, #156]	; b0c0 <nrf_tx_send_noack+0x284>
    b020:	e59f009c 	ldr	r0, [pc, #156]	; b0c4 <nrf_tx_send_noack+0x288>
    b024:	eb0009d7 	bl	d788 <printk>
    b028:	eb000adf 	bl	dbac <clean_reboot>
    b02c:	e1a01004 	mov	r1, r4
    b030:	e59f0078 	ldr	r0, [pc, #120]	; b0b0 <nrf_tx_send_noack+0x274>
    b034:	ebfff695 	bl	8a90 <nrf_dump>
    b038:	e59f309c 	ldr	r3, [pc, #156]	; b0dc <nrf_tx_send_noack+0x2a0>
    b03c:	e58d3000 	str	r3, [sp]
    b040:	e59f3098 	ldr	r3, [pc, #152]	; b0e0 <nrf_tx_send_noack+0x2a4>
    b044:	e59f2070 	ldr	r2, [pc, #112]	; b0bc <nrf_tx_send_noack+0x280>
    b048:	e59f1070 	ldr	r1, [pc, #112]	; b0c0 <nrf_tx_send_noack+0x284>
    b04c:	e59f0070 	ldr	r0, [pc, #112]	; b0c4 <nrf_tx_send_noack+0x288>
    b050:	eb0009cc 	bl	d788 <printk>
    b054:	eb000ad4 	bl	dbac <clean_reboot>
    b058:	e1a01004 	mov	r1, r4
    b05c:	e59f004c 	ldr	r0, [pc, #76]	; b0b0 <nrf_tx_send_noack+0x274>
    b060:	ebfff68a 	bl	8a90 <nrf_dump>
    b064:	e59f3078 	ldr	r3, [pc, #120]	; b0e4 <nrf_tx_send_noack+0x2a8>
    b068:	e58d3000 	str	r3, [sp]
    b06c:	e59f3074 	ldr	r3, [pc, #116]	; b0e8 <nrf_tx_send_noack+0x2ac>
    b070:	e59f2044 	ldr	r2, [pc, #68]	; b0bc <nrf_tx_send_noack+0x280>
    b074:	e59f1044 	ldr	r1, [pc, #68]	; b0c0 <nrf_tx_send_noack+0x284>
    b078:	e59f0044 	ldr	r0, [pc, #68]	; b0c4 <nrf_tx_send_noack+0x288>
    b07c:	eb0009c1 	bl	d788 <printk>
    b080:	eb000ac9 	bl	dbac <clean_reboot>
    b084:	e1a01004 	mov	r1, r4
    b088:	e59f0020 	ldr	r0, [pc, #32]	; b0b0 <nrf_tx_send_noack+0x274>
    b08c:	ebfff67f 	bl	8a90 <nrf_dump>
    b090:	e59f301c 	ldr	r3, [pc, #28]	; b0b4 <nrf_tx_send_noack+0x278>
    b094:	e58d3000 	str	r3, [sp]
    b098:	e59f304c 	ldr	r3, [pc, #76]	; b0ec <nrf_tx_send_noack+0x2b0>
    b09c:	e59f2018 	ldr	r2, [pc, #24]	; b0bc <nrf_tx_send_noack+0x280>
    b0a0:	e59f1018 	ldr	r1, [pc, #24]	; b0c0 <nrf_tx_send_noack+0x284>
    b0a4:	e59f0018 	ldr	r0, [pc, #24]	; b0c4 <nrf_tx_send_noack+0x288>
    b0a8:	eb0009b6 	bl	d788 <printk>
    b0ac:	eb000abe 	bl	dbac <clean_reboot>
    b0b0:	0000e7cc 	.word	0x0000e7cc
    b0b4:	0000ecf0 	.word	0x0000ecf0
    b0b8:	00000199 	.word	0x00000199
    b0bc:	0000ee80 	.word	0x0000ee80
    b0c0:	0000eac0 	.word	0x0000eac0
    b0c4:	0000e7e0 	.word	0x0000e7e0
    b0c8:	0000ebbc 	.word	0x0000ebbc
    b0cc:	0000019a 	.word	0x0000019a
    b0d0:	0000eb84 	.word	0x0000eb84
    b0d4:	0000019b 	.word	0x0000019b
    b0d8:	0000eba0 	.word	0x0000eba0
    b0dc:	0000ec58 	.word	0x0000ec58
    b0e0:	0000019d 	.word	0x0000019d
    b0e4:	0000eca0 	.word	0x0000eca0
    b0e8:	000001c1 	.word	0x000001c1
    b0ec:	000001c3 	.word	0x000001c3

0000b0f0 <nrf_rx_has_packet>:
    b0f0:	e92d4010 	push	{r4, lr}
    b0f4:	e3a02000 	mov	r2, #0, 0
    b0f8:	e3a01017 	mov	r1, #23, 0
    b0fc:	ebfff591 	bl	8748 <nrf_bit_isset>
    b100:	e16f0f10 	clz	r0, r0
    b104:	e1a002a0 	lsr	r0, r0, #5
    b108:	e8bd8010 	pop	{r4, pc}

0000b10c <do_tx>:
    b10c:	e92d4070 	push	{r4, r5, r6, lr}
    b110:	e1a04000 	mov	r4, r0
    b114:	e1a05002 	mov	r5, r2
    b118:	e1a03002 	mov	r3, r2
    b11c:	e1a02001 	mov	r2, r1
    b120:	e3a010a0 	mov	r1, #160, 0	; 0xa0
    b124:	ebfff4e6 	bl	84c4 <nrf_putn>
    b128:	e2840a02 	add	r0, r4, #8192	; 0x2000
    b12c:	e5903040 	ldr	r3, [r0, #64]	; 0x40
    b130:	e2833001 	add	r3, r3, #1, 0
    b134:	e5803040 	str	r3, [r0, #64]	; 0x40
    b138:	e5902044 	ldr	r2, [r0, #68]	; 0x44
    b13c:	e0825005 	add	r5, r2, r5
    b140:	e5805044 	str	r5, [r0, #68]	; 0x44
    b144:	e8bd8070 	pop	{r4, r5, r6, pc}

0000b148 <nrf_tx_mode>:
    b148:	e92d4030 	push	{r4, r5, lr}
    b14c:	e24dd01c 	sub	sp, sp, #28, 0
    b150:	e5d05001 	ldrb	r5, [r0, #1]
    b154:	e2453005 	sub	r3, r5, #5, 0
    b158:	e6ef3073 	uxtb	r3, r3
    b15c:	e3530001 	cmp	r3, #1, 0
    b160:	8a00002a 	bhi	b210 <nrf_tx_mode+0xc8>
    b164:	e1a04000 	mov	r4, r0
    b168:	eb000ad0 	bl	dcb0 <dev_barrier>
    b16c:	e3a01000 	mov	r1, #0, 0
    b170:	e1a00005 	mov	r0, r5
    b174:	eb0008d6 	bl	d4d4 <gpio_write>
    b178:	e3a01000 	mov	r1, #0, 0
    b17c:	e1a00004 	mov	r0, r4
    b180:	ebfff44d 	bl	82bc <nrf_get8>
    b184:	e3100002 	tst	r0, #2, 0
    b188:	1a000027 	bne	b22c <nrf_tx_mode+0xe4>
    b18c:	e3a03000 	mov	r3, #0, 0
    b190:	e3530000 	cmp	r3, #0, 0
    b194:	0a00002b 	beq	b248 <nrf_tx_mode+0x100>
    b198:	e59f311c 	ldr	r3, [pc, #284]	; b2bc <nrf_tx_mode+0x174>
    b19c:	e58d300c 	str	r3, [sp, #12]
    b1a0:	e59f3118 	ldr	r3, [pc, #280]	; b2c0 <nrf_tx_mode+0x178>
    b1a4:	e58d3010 	str	r3, [sp, #16]
    b1a8:	e3a030fa 	mov	r3, #250, 0	; 0xfa
    b1ac:	e58d3014 	str	r3, [sp, #20]
    b1b0:	e3a0307e 	mov	r3, #126, 0	; 0x7e
    b1b4:	e58d3004 	str	r3, [sp, #4]
    b1b8:	e3a03000 	mov	r3, #0, 0
    b1bc:	e58d3000 	str	r3, [sp]
    b1c0:	e1a03004 	mov	r3, r4
    b1c4:	e28d2018 	add	r2, sp, #24, 0
    b1c8:	e9120007 	ldmdb	r2, {r0, r1, r2}
    b1cc:	ebfff464 	bl	8364 <nrf_put8_chk_helper>
    b1d0:	e5d45001 	ldrb	r5, [r4, #1]
    b1d4:	e2453005 	sub	r3, r5, #5, 0
    b1d8:	e6ef3073 	uxtb	r3, r3
    b1dc:	e3530001 	cmp	r3, #1, 0
    b1e0:	8a000023 	bhi	b274 <nrf_tx_mode+0x12c>
    b1e4:	eb000ab1 	bl	dcb0 <dev_barrier>
    b1e8:	e3a01001 	mov	r1, #1, 0
    b1ec:	e1a00005 	mov	r0, r5
    b1f0:	eb0008b7 	bl	d4d4 <gpio_write>
    b1f4:	e3a01000 	mov	r1, #0, 0
    b1f8:	e1a00004 	mov	r0, r4
    b1fc:	ebfff42e 	bl	82bc <nrf_get8>
    b200:	e3100001 	tst	r0, #1, 0
    b204:	1a000021 	bne	b290 <nrf_tx_mode+0x148>
    b208:	e28dd01c 	add	sp, sp, #28, 0
    b20c:	e8bd8030 	pop	{r4, r5, pc}
    b210:	e58d5000 	str	r5, [sp]
    b214:	e3a030d4 	mov	r3, #212, 0	; 0xd4
    b218:	e59f20a4 	ldr	r2, [pc, #164]	; b2c4 <nrf_tx_mode+0x17c>
    b21c:	e59f1098 	ldr	r1, [pc, #152]	; b2bc <nrf_tx_mode+0x174>
    b220:	e59f00a0 	ldr	r0, [pc, #160]	; b2c8 <nrf_tx_mode+0x180>
    b224:	eb000957 	bl	d788 <printk>
    b228:	eb000a5f 	bl	dbac <clean_reboot>
    b22c:	e5d40001 	ldrb	r0, [r4, #1]
    b230:	eb0008ae 	bl	d4f0 <gpio_read>
    b234:	e3500000 	cmp	r0, #0, 0
    b238:	03a03001 	moveq	r3, #1, 0
    b23c:	0affffd3 	beq	b190 <nrf_tx_mode+0x48>
    b240:	e3a03000 	mov	r3, #0, 0
    b244:	eaffffd1 	b	b190 <nrf_tx_mode+0x48>
    b248:	e1a01004 	mov	r1, r4
    b24c:	e59f0078 	ldr	r0, [pc, #120]	; b2cc <nrf_tx_mode+0x184>
    b250:	ebfff60e 	bl	8a90 <nrf_dump>
    b254:	e59f3074 	ldr	r3, [pc, #116]	; b2d0 <nrf_tx_mode+0x188>
    b258:	e58d3000 	str	r3, [sp]
    b25c:	e3a030f8 	mov	r3, #248, 0	; 0xf8
    b260:	e59f2058 	ldr	r2, [pc, #88]	; b2c0 <nrf_tx_mode+0x178>
    b264:	e59f1050 	ldr	r1, [pc, #80]	; b2bc <nrf_tx_mode+0x174>
    b268:	e59f0064 	ldr	r0, [pc, #100]	; b2d4 <nrf_tx_mode+0x18c>
    b26c:	eb000945 	bl	d788 <printk>
    b270:	eb000a4d 	bl	dbac <clean_reboot>
    b274:	e58d5000 	str	r5, [sp]
    b278:	e3a030dc 	mov	r3, #220, 0	; 0xdc
    b27c:	e59f2054 	ldr	r2, [pc, #84]	; b2d8 <nrf_tx_mode+0x190>
    b280:	e59f1034 	ldr	r1, [pc, #52]	; b2bc <nrf_tx_mode+0x174>
    b284:	e59f003c 	ldr	r0, [pc, #60]	; b2c8 <nrf_tx_mode+0x180>
    b288:	eb00093e 	bl	d788 <printk>
    b28c:	eb000a46 	bl	dbac <clean_reboot>
    b290:	e1a01004 	mov	r1, r4
    b294:	e59f0030 	ldr	r0, [pc, #48]	; b2cc <nrf_tx_mode+0x184>
    b298:	ebfff5fc 	bl	8a90 <nrf_dump>
    b29c:	e59f3038 	ldr	r3, [pc, #56]	; b2dc <nrf_tx_mode+0x194>
    b2a0:	e58d3000 	str	r3, [sp]
    b2a4:	e59f3034 	ldr	r3, [pc, #52]	; b2e0 <nrf_tx_mode+0x198>
    b2a8:	e59f2010 	ldr	r2, [pc, #16]	; b2c0 <nrf_tx_mode+0x178>
    b2ac:	e59f1008 	ldr	r1, [pc, #8]	; b2bc <nrf_tx_mode+0x174>
    b2b0:	e59f001c 	ldr	r0, [pc, #28]	; b2d4 <nrf_tx_mode+0x18c>
    b2b4:	eb000933 	bl	d788 <printk>
    b2b8:	eb000a3b 	bl	dbac <clean_reboot>
    b2bc:	0000ee94 	.word	0x0000ee94
    b2c0:	0000f1dc 	.word	0x0000f1dc
    b2c4:	0000f1d4 	.word	0x0000f1d4
    b2c8:	0000ead0 	.word	0x0000ead0
    b2cc:	0000e7cc 	.word	0x0000e7cc
    b2d0:	0000eea8 	.word	0x0000eea8
    b2d4:	0000e7e0 	.word	0x0000e7e0
    b2d8:	0000f1e8 	.word	0x0000f1e8
    b2dc:	0000eafc 	.word	0x0000eafc
    b2e0:	00000102 	.word	0x00000102

0000b2e4 <nrf_rx_mode>:
    b2e4:	e92d4030 	push	{r4, r5, lr}
    b2e8:	e24dd01c 	sub	sp, sp, #28, 0
    b2ec:	e5d05001 	ldrb	r5, [r0, #1]
    b2f0:	e2453005 	sub	r3, r5, #5, 0
    b2f4:	e6ef3073 	uxtb	r3, r3
    b2f8:	e3530001 	cmp	r3, #1, 0
    b2fc:	8a000028 	bhi	b3a4 <nrf_rx_mode+0xc0>
    b300:	e1a04000 	mov	r4, r0
    b304:	eb000a69 	bl	dcb0 <dev_barrier>
    b308:	e3a01000 	mov	r1, #0, 0
    b30c:	e1a00005 	mov	r0, r5
    b310:	eb00086f 	bl	d4d4 <gpio_write>
    b314:	e59f30f8 	ldr	r3, [pc, #248]	; b414 <nrf_rx_mode+0x130>
    b318:	e5933000 	ldr	r3, [r3]
    b31c:	e3530000 	cmp	r3, #0, 0
    b320:	1a000026 	bne	b3c0 <nrf_rx_mode+0xdc>
    b324:	e59f30ec 	ldr	r3, [pc, #236]	; b418 <nrf_rx_mode+0x134>
    b328:	e58d300c 	str	r3, [sp, #12]
    b32c:	e59f30e8 	ldr	r3, [pc, #232]	; b41c <nrf_rx_mode+0x138>
    b330:	e58d3010 	str	r3, [sp, #16]
    b334:	e3a030e6 	mov	r3, #230, 0	; 0xe6
    b338:	e58d3014 	str	r3, [sp, #20]
    b33c:	e3a0307f 	mov	r3, #127, 0	; 0x7f
    b340:	e58d3004 	str	r3, [sp, #4]
    b344:	e3a03000 	mov	r3, #0, 0
    b348:	e58d3000 	str	r3, [sp]
    b34c:	e1a03004 	mov	r3, r4
    b350:	e28d2018 	add	r2, sp, #24, 0
    b354:	e9120007 	ldmdb	r2, {r0, r1, r2}
    b358:	ebfff401 	bl	8364 <nrf_put8_chk_helper>
    b35c:	e5d45001 	ldrb	r5, [r4, #1]
    b360:	e2453005 	sub	r3, r5, #5, 0
    b364:	e6ef3073 	uxtb	r3, r3
    b368:	e3530001 	cmp	r3, #1, 0
    b36c:	8a000016 	bhi	b3cc <nrf_rx_mode+0xe8>
    b370:	eb000a4e 	bl	dcb0 <dev_barrier>
    b374:	e3a01001 	mov	r1, #1, 0
    b378:	e1a00005 	mov	r0, r5
    b37c:	eb000854 	bl	d4d4 <gpio_write>
    b380:	e3a0008c 	mov	r0, #140, 0	; 0x8c
    b384:	eb000a6a 	bl	dd34 <delay_us>
    b388:	e3a01000 	mov	r1, #0, 0
    b38c:	e1a00004 	mov	r0, r4
    b390:	ebfff3c9 	bl	82bc <nrf_get8>
    b394:	e3100001 	tst	r0, #1, 0
    b398:	0a000012 	beq	b3e8 <nrf_rx_mode+0x104>
    b39c:	e28dd01c 	add	sp, sp, #28, 0
    b3a0:	e8bd8030 	pop	{r4, r5, pc}
    b3a4:	e58d5000 	str	r5, [sp]
    b3a8:	e3a030d4 	mov	r3, #212, 0	; 0xd4
    b3ac:	e59f206c 	ldr	r2, [pc, #108]	; b420 <nrf_rx_mode+0x13c>
    b3b0:	e59f1060 	ldr	r1, [pc, #96]	; b418 <nrf_rx_mode+0x134>
    b3b4:	e59f0068 	ldr	r0, [pc, #104]	; b424 <nrf_rx_mode+0x140>
    b3b8:	eb0008f2 	bl	d788 <printk>
    b3bc:	eb0009fa 	bl	dbac <clean_reboot>
    b3c0:	e59f0060 	ldr	r0, [pc, #96]	; b428 <nrf_rx_mode+0x144>
    b3c4:	eb0008ef 	bl	d788 <printk>
    b3c8:	eaffffd5 	b	b324 <nrf_rx_mode+0x40>
    b3cc:	e58d5000 	str	r5, [sp]
    b3d0:	e3a030dc 	mov	r3, #220, 0	; 0xdc
    b3d4:	e59f2050 	ldr	r2, [pc, #80]	; b42c <nrf_rx_mode+0x148>
    b3d8:	e59f1038 	ldr	r1, [pc, #56]	; b418 <nrf_rx_mode+0x134>
    b3dc:	e59f0040 	ldr	r0, [pc, #64]	; b424 <nrf_rx_mode+0x140>
    b3e0:	eb0008e8 	bl	d788 <printk>
    b3e4:	eb0009f0 	bl	dbac <clean_reboot>
    b3e8:	e1a01004 	mov	r1, r4
    b3ec:	e59f003c 	ldr	r0, [pc, #60]	; b430 <nrf_rx_mode+0x14c>
    b3f0:	ebfff5a6 	bl	8a90 <nrf_dump>
    b3f4:	e59f3038 	ldr	r3, [pc, #56]	; b434 <nrf_rx_mode+0x150>
    b3f8:	e58d3000 	str	r3, [sp]
    b3fc:	e3a030ec 	mov	r3, #236, 0	; 0xec
    b400:	e59f2014 	ldr	r2, [pc, #20]	; b41c <nrf_rx_mode+0x138>
    b404:	e59f100c 	ldr	r1, [pc, #12]	; b418 <nrf_rx_mode+0x134>
    b408:	e59f0028 	ldr	r0, [pc, #40]	; b438 <nrf_rx_mode+0x154>
    b40c:	eb0008dd 	bl	d788 <printk>
    b410:	eb0009e5 	bl	dbac <clean_reboot>
    b414:	0000f974 	.word	0x0000f974
    b418:	0000ee94 	.word	0x0000ee94
    b41c:	0000f1f0 	.word	0x0000f1f0
    b420:	0000f1d4 	.word	0x0000f1d4
    b424:	0000ead0 	.word	0x0000ead0
    b428:	0000eebc 	.word	0x0000eebc
    b42c:	0000f1e8 	.word	0x0000f1e8
    b430:	0000e7cc 	.word	0x0000e7cc
    b434:	0000eb0c 	.word	0x0000eb0c
    b438:	0000e7e0 	.word	0x0000e7e0

0000b43c <staff_nrf_init>:
    b43c:	e92d43f0 	push	{r4, r5, r6, r7, r8, r9, lr}
    b440:	e24dd0fc 	sub	sp, sp, #252, 0	; 0xfc
    b444:	e28d5020 	add	r5, sp, #32, 0
    b448:	e8850003 	stm	r5, {r0, r1}
    b44c:	e1a06002 	mov	r6, r2
    b450:	e1a08003 	mov	r8, r3
    b454:	e59f0a84 	ldr	r0, [pc, #2692]	; bee0 <staff_nrf_init+0xaa4>
    b458:	eb00075b 	bl	d1cc <kmalloc>
    b45c:	e1a04000 	mov	r4, r0
    b460:	e8950003 	ldm	r5, {r0, r1}
    b464:	e5840000 	str	r0, [r4]
    b468:	e5c41004 	strb	r1, [r4, #4]
    b46c:	eb000a29 	bl	dd18 <timer_get_usec>
    b470:	e2843a02 	add	r3, r4, #8192	; 0x2000
    b474:	e583003c 	str	r0, [r3, #60]	; 0x3c
    b478:	e3a05000 	mov	r5, #0, 0
    b47c:	e5835040 	str	r5, [r3, #64]	; 0x40
    b480:	e5835044 	str	r5, [r3, #68]	; 0x44
    b484:	e5835048 	str	r5, [r3, #72]	; 0x48
    b488:	e583504c 	str	r5, [r3, #76]	; 0x4c
    b48c:	e5835050 	str	r5, [r3, #80]	; 0x50
    b490:	e5835054 	str	r5, [r3, #84]	; 0x54
    b494:	e5dd2020 	ldrb	r2, [sp, #32]
    b498:	e5dd1021 	ldrb	r1, [sp, #33]	; 0x21
    b49c:	e28d0008 	add	r0, sp, #8, 0
    b4a0:	ebfff353 	bl	81f4 <nrf_spi_init>
    b4a4:	e284e008 	add	lr, r4, #8, 0
    b4a8:	e28dc008 	add	ip, sp, #8, 0
    b4ac:	e8bc000f 	ldm	ip!, {r0, r1, r2, r3}
    b4b0:	e8ae000f 	stmia	lr!, {r0, r1, r2, r3}
    b4b4:	e89c0003 	ldm	ip, {r0, r1}
    b4b8:	e88e0003 	stm	lr, {r0, r1}
    b4bc:	e5846020 	str	r6, [r4, #32]
    b4c0:	e2847024 	add	r7, r4, #36, 0	; 0x24
    b4c4:	e59f2a18 	ldr	r2, [pc, #2584]	; bee4 <staff_nrf_init+0xaa8>
    b4c8:	e1a01005 	mov	r1, r5
    b4cc:	e1a00007 	mov	r0, r7
    b4d0:	eb000884 	bl	d6e8 <memset>
    b4d4:	e2872a02 	add	r2, r7, #8192	; 0x2000
    b4d8:	e59f3a08 	ldr	r3, [pc, #2568]	; bee8 <staff_nrf_init+0xaac>
    b4dc:	e5823000 	str	r3, [r2]
    b4e0:	e5825008 	str	r5, [r2, #8]
    b4e4:	e5825004 	str	r5, [r2, #4]
    b4e8:	e582500c 	str	r5, [r2, #12]
    b4ec:	e5d23010 	ldrb	r3, [r2, #16]
    b4f0:	e3833001 	orr	r3, r3, #1, 0
    b4f4:	e5c23010 	strb	r3, [r2, #16]
    b4f8:	e5921004 	ldr	r1, [r2, #4]
    b4fc:	e5923008 	ldr	r3, [r2, #8]
    b500:	e1510003 	cmp	r1, r3
    b504:	1a000081 	bne	b710 <staff_nrf_init+0x2d4>
    b508:	e2872a02 	add	r2, r7, #8192	; 0x2000
    b50c:	e5923004 	ldr	r3, [r2, #4]
    b510:	e2833001 	add	r3, r3, #1, 0
    b514:	e1a03983 	lsl	r3, r3, #19
    b518:	e1a039a3 	lsr	r3, r3, #19
    b51c:	e5922008 	ldr	r2, [r2, #8]
    b520:	e1530002 	cmp	r3, r2
    b524:	0a000081 	beq	b730 <staff_nrf_init+0x2f4>
    b528:	e2872a02 	add	r2, r7, #8192	; 0x2000
    b52c:	e5923004 	ldr	r3, [r2, #4]
    b530:	e5922008 	ldr	r2, [r2, #8]
    b534:	e0433002 	sub	r3, r3, r2
    b538:	e1a03983 	lsl	r3, r3, #19
    b53c:	e1a039a3 	lsr	r3, r3, #19
    b540:	e3530000 	cmp	r3, #0, 0
    b544:	1a000081 	bne	b750 <staff_nrf_init+0x314>
    b548:	e2873a02 	add	r3, r7, #8192	; 0x2000
    b54c:	e5932004 	ldr	r2, [r3, #4]
    b550:	e5933008 	ldr	r3, [r3, #8]
    b554:	e1520003 	cmp	r2, r3
    b558:	0a000084 	beq	b770 <staff_nrf_init+0x334>
    b55c:	e7d72003 	ldrb	r2, [r7, r3]
    b560:	e2833001 	add	r3, r3, #1, 0
    b564:	e1a03983 	lsl	r3, r3, #19
    b568:	e1a039a3 	lsr	r3, r3, #19
    b56c:	e2877a02 	add	r7, r7, #8192	; 0x2000
    b570:	e5873008 	str	r3, [r7, #8]
    b574:	e3a03001 	mov	r3, #1, 0
    b578:	e3530000 	cmp	r3, #0, 0
    b57c:	1a00007e 	bne	b77c <staff_nrf_init+0x340>
    b580:	e3520012 	cmp	r2, #18, 0
    b584:	1a00007c 	bne	b77c <staff_nrf_init+0x340>
    b588:	e59f395c 	ldr	r3, [pc, #2396]	; beec <staff_nrf_init+0xab0>
    b58c:	e58d302c 	str	r3, [sp, #44]	; 0x2c
    b590:	e59f3958 	ldr	r3, [pc, #2392]	; bef0 <staff_nrf_init+0xab4>
    b594:	e58d3030 	str	r3, [sp, #48]	; 0x30
    b598:	e3a03038 	mov	r3, #56, 0	; 0x38
    b59c:	e58d3034 	str	r3, [sp, #52]	; 0x34
    b5a0:	e3a05000 	mov	r5, #0, 0
    b5a4:	e58d5004 	str	r5, [sp, #4]
    b5a8:	e58d5000 	str	r5, [sp]
    b5ac:	e1a03004 	mov	r3, r4
    b5b0:	e28d202c 	add	r2, sp, #44, 0	; 0x2c
    b5b4:	e8920007 	ldm	r2, {r0, r1, r2}
    b5b8:	ebfff369 	bl	8364 <nrf_put8_chk_helper>
    b5bc:	e1a01005 	mov	r1, r5
    b5c0:	e1a00004 	mov	r0, r4
    b5c4:	ebfff33c 	bl	82bc <nrf_get8>
    b5c8:	e3100002 	tst	r0, #2, 0
    b5cc:	1a000072 	bne	b79c <staff_nrf_init+0x360>
    b5d0:	e59f3914 	ldr	r3, [pc, #2324]	; beec <staff_nrf_init+0xab0>
    b5d4:	e58d3038 	str	r3, [sp, #56]	; 0x38
    b5d8:	e59f3910 	ldr	r3, [pc, #2320]	; bef0 <staff_nrf_init+0xab4>
    b5dc:	e58d303c 	str	r3, [sp, #60]	; 0x3c
    b5e0:	e3a0303c 	mov	r3, #60, 0	; 0x3c
    b5e4:	e58d3040 	str	r3, [sp, #64]	; 0x40
    b5e8:	e3a03000 	mov	r3, #0, 0
    b5ec:	e58d3004 	str	r3, [sp, #4]
    b5f0:	e3a03002 	mov	r3, #2, 0
    b5f4:	e58d3000 	str	r3, [sp]
    b5f8:	e1a03004 	mov	r3, r4
    b5fc:	e28d2038 	add	r2, sp, #56, 0	; 0x38
    b600:	e8920007 	ldm	r2, {r0, r1, r2}
    b604:	ebfff356 	bl	8364 <nrf_put8_chk_helper>
    b608:	e3580000 	cmp	r8, #0, 0
    b60c:	1a000082 	bne	b81c <staff_nrf_init+0x3e0>
    b610:	e59f88d4 	ldr	r8, [pc, #2260]	; beec <staff_nrf_init+0xab0>
    b614:	e58d8044 	str	r8, [sp, #68]	; 0x44
    b618:	e59f78d0 	ldr	r7, [pc, #2256]	; bef0 <staff_nrf_init+0xab4>
    b61c:	e58d7048 	str	r7, [sp, #72]	; 0x48
    b620:	e3a03041 	mov	r3, #65, 0	; 0x41
    b624:	e58d304c 	str	r3, [sp, #76]	; 0x4c
    b628:	e3a09000 	mov	r9, #0, 0
    b62c:	e58d9004 	str	r9, [sp, #4]
    b630:	e3a03001 	mov	r3, #1, 0
    b634:	e58d3000 	str	r3, [sp]
    b638:	e1a03004 	mov	r3, r4
    b63c:	e28d2044 	add	r2, sp, #68, 0	; 0x44
    b640:	e8920007 	ldm	r2, {r0, r1, r2}
    b644:	ebfff346 	bl	8364 <nrf_put8_chk_helper>
    b648:	e58d8050 	str	r8, [sp, #80]	; 0x50
    b64c:	e58d7054 	str	r7, [sp, #84]	; 0x54
    b650:	e3a03043 	mov	r3, #67, 0	; 0x43
    b654:	e58d3058 	str	r3, [sp, #88]	; 0x58
    b658:	e3a05002 	mov	r5, #2, 0
    b65c:	e58d5004 	str	r5, [sp, #4]
    b660:	e58d5000 	str	r5, [sp]
    b664:	e1a03004 	mov	r3, r4
    b668:	e28d2050 	add	r2, sp, #80, 0	; 0x50
    b66c:	e8920007 	ldm	r2, {r0, r1, r2}
    b670:	ebfff33b 	bl	8364 <nrf_put8_chk_helper>
    b674:	e58d805c 	str	r8, [sp, #92]	; 0x5c
    b678:	e58d7060 	str	r7, [sp, #96]	; 0x60
    b67c:	e3a03044 	mov	r3, #68, 0	; 0x44
    b680:	e58d3064 	str	r3, [sp, #100]	; 0x64
    b684:	e58d9004 	str	r9, [sp, #4]
    b688:	e3a03004 	mov	r3, #4, 0
    b68c:	e58d3000 	str	r3, [sp]
    b690:	e1a03004 	mov	r3, r4
    b694:	e28d205c 	add	r2, sp, #92, 0	; 0x5c
    b698:	e8920007 	ldm	r2, {r0, r1, r2}
    b69c:	ebfff330 	bl	8364 <nrf_put8_chk_helper>
    b6a0:	e1a01005 	mov	r1, r5
    b6a4:	e1a00004 	mov	r0, r4
    b6a8:	ebfff303 	bl	82bc <nrf_get8>
    b6ac:	e3100002 	tst	r0, #2, 0
    b6b0:	0a000041 	beq	b7bc <staff_nrf_init+0x380>
    b6b4:	e3a01001 	mov	r1, #1, 0
    b6b8:	e1a00004 	mov	r0, r4
    b6bc:	ebfff2fe 	bl	82bc <nrf_get8>
    b6c0:	e3100002 	tst	r0, #2, 0
    b6c4:	1a000044 	bne	b7dc <staff_nrf_init+0x3a0>
    b6c8:	e3a01002 	mov	r1, #2, 0
    b6cc:	e1a00004 	mov	r0, r4
    b6d0:	ebfff2f9 	bl	82bc <nrf_get8>
    b6d4:	e3100001 	tst	r0, #1, 0
    b6d8:	1a000047 	bne	b7fc <staff_nrf_init+0x3c0>
    b6dc:	e3a05002 	mov	r5, #2, 0
    b6e0:	e3550005 	cmp	r5, #5, 0
    b6e4:	ca0000b5 	bgt	b9c0 <staff_nrf_init+0x584>
    b6e8:	e3a01002 	mov	r1, #2, 0
    b6ec:	e1a00004 	mov	r0, r4
    b6f0:	ebfff2f1 	bl	82bc <nrf_get8>
    b6f4:	e355001f 	cmp	r5, #31, 0
    b6f8:	8a0000a0 	bhi	b980 <staff_nrf_init+0x544>
    b6fc:	e1a00530 	lsr	r0, r0, r5
    b700:	e3100001 	tst	r0, #1, 0
    b704:	1a0000a5 	bne	b9a0 <staff_nrf_init+0x564>
    b708:	e2855001 	add	r5, r5, #1, 0
    b70c:	eafffff3 	b	b6e0 <staff_nrf_init+0x2a4>
    b710:	e59f37dc 	ldr	r3, [pc, #2012]	; bef4 <staff_nrf_init+0xab8>
    b714:	e58d3000 	str	r3, [sp]
    b718:	e3a030d3 	mov	r3, #211, 0	; 0xd3
    b71c:	e59f27d4 	ldr	r2, [pc, #2004]	; bef8 <staff_nrf_init+0xabc>
    b720:	e59f17d4 	ldr	r1, [pc, #2004]	; befc <staff_nrf_init+0xac0>
    b724:	e59f07d4 	ldr	r0, [pc, #2004]	; bf00 <staff_nrf_init+0xac4>
    b728:	eb000816 	bl	d788 <printk>
    b72c:	eb00091e 	bl	dbac <clean_reboot>
    b730:	e59f37cc 	ldr	r3, [pc, #1996]	; bf04 <staff_nrf_init+0xac8>
    b734:	e58d3000 	str	r3, [sp]
    b738:	e3a030d4 	mov	r3, #212, 0	; 0xd4
    b73c:	e59f27b4 	ldr	r2, [pc, #1972]	; bef8 <staff_nrf_init+0xabc>
    b740:	e59f17b4 	ldr	r1, [pc, #1972]	; befc <staff_nrf_init+0xac0>
    b744:	e59f07b4 	ldr	r0, [pc, #1972]	; bf00 <staff_nrf_init+0xac4>
    b748:	eb00080e 	bl	d788 <printk>
    b74c:	eb000916 	bl	dbac <clean_reboot>
    b750:	e59f37b0 	ldr	r3, [pc, #1968]	; bf08 <staff_nrf_init+0xacc>
    b754:	e58d3000 	str	r3, [sp]
    b758:	e3a030d5 	mov	r3, #213, 0	; 0xd5
    b75c:	e59f2794 	ldr	r2, [pc, #1940]	; bef8 <staff_nrf_init+0xabc>
    b760:	e59f1794 	ldr	r1, [pc, #1940]	; befc <staff_nrf_init+0xac0>
    b764:	e59f0794 	ldr	r0, [pc, #1940]	; bf00 <staff_nrf_init+0xac4>
    b768:	eb000806 	bl	d788 <printk>
    b76c:	eb00090e 	bl	dbac <clean_reboot>
    b770:	e3a02012 	mov	r2, #18, 0
    b774:	e3a03000 	mov	r3, #0, 0
    b778:	eaffff7e 	b	b578 <staff_nrf_init+0x13c>
    b77c:	e59f3788 	ldr	r3, [pc, #1928]	; bf0c <staff_nrf_init+0xad0>
    b780:	e58d3000 	str	r3, [sp]
    b784:	e3a030d7 	mov	r3, #215, 0	; 0xd7
    b788:	e59f2768 	ldr	r2, [pc, #1896]	; bef8 <staff_nrf_init+0xabc>
    b78c:	e59f1768 	ldr	r1, [pc, #1896]	; befc <staff_nrf_init+0xac0>
    b790:	e59f0768 	ldr	r0, [pc, #1896]	; bf00 <staff_nrf_init+0xac4>
    b794:	eb0007fb 	bl	d788 <printk>
    b798:	eb000903 	bl	dbac <clean_reboot>
    b79c:	e59f376c 	ldr	r3, [pc, #1900]	; bf10 <staff_nrf_init+0xad4>
    b7a0:	e58d3000 	str	r3, [sp]
    b7a4:	e3a03039 	mov	r3, #57, 0	; 0x39
    b7a8:	e59f2740 	ldr	r2, [pc, #1856]	; bef0 <staff_nrf_init+0xab4>
    b7ac:	e59f1738 	ldr	r1, [pc, #1848]	; beec <staff_nrf_init+0xab0>
    b7b0:	e59f0748 	ldr	r0, [pc, #1864]	; bf00 <staff_nrf_init+0xac4>
    b7b4:	eb0007f3 	bl	d788 <printk>
    b7b8:	eb0008fb 	bl	dbac <clean_reboot>
    b7bc:	e59f3750 	ldr	r3, [pc, #1872]	; bf14 <staff_nrf_init+0xad8>
    b7c0:	e58d3000 	str	r3, [sp]
    b7c4:	e3a03046 	mov	r3, #70, 0	; 0x46
    b7c8:	e1a02007 	mov	r2, r7
    b7cc:	e1a01008 	mov	r1, r8
    b7d0:	e59f0728 	ldr	r0, [pc, #1832]	; bf00 <staff_nrf_init+0xac4>
    b7d4:	eb0007eb 	bl	d788 <printk>
    b7d8:	eb0008f3 	bl	dbac <clean_reboot>
    b7dc:	e59f3734 	ldr	r3, [pc, #1844]	; bf18 <staff_nrf_init+0xadc>
    b7e0:	e58d3000 	str	r3, [sp]
    b7e4:	e3a03047 	mov	r3, #71, 0	; 0x47
    b7e8:	e59f2700 	ldr	r2, [pc, #1792]	; bef0 <staff_nrf_init+0xab4>
    b7ec:	e59f16f8 	ldr	r1, [pc, #1784]	; beec <staff_nrf_init+0xab0>
    b7f0:	e59f0708 	ldr	r0, [pc, #1800]	; bf00 <staff_nrf_init+0xac4>
    b7f4:	eb0007e3 	bl	d788 <printk>
    b7f8:	eb0008eb 	bl	dbac <clean_reboot>
    b7fc:	e59f3718 	ldr	r3, [pc, #1816]	; bf1c <staff_nrf_init+0xae0>
    b800:	e58d3000 	str	r3, [sp]
    b804:	e3a03048 	mov	r3, #72, 0	; 0x48
    b808:	e59f26e0 	ldr	r2, [pc, #1760]	; bef0 <staff_nrf_init+0xab4>
    b80c:	e59f16d8 	ldr	r1, [pc, #1752]	; beec <staff_nrf_init+0xab0>
    b810:	e59f06e8 	ldr	r0, [pc, #1768]	; bf00 <staff_nrf_init+0xac4>
    b814:	eb0007db 	bl	d788 <printk>
    b818:	eb0008e3 	bl	dbac <clean_reboot>
    b81c:	e59f76c8 	ldr	r7, [pc, #1736]	; beec <staff_nrf_init+0xab0>
    b820:	e58d7068 	str	r7, [sp, #104]	; 0x68
    b824:	e59f56c4 	ldr	r5, [pc, #1732]	; bef0 <staff_nrf_init+0xab4>
    b828:	e58d506c 	str	r5, [sp, #108]	; 0x6c
    b82c:	e3a0304d 	mov	r3, #77, 0	; 0x4d
    b830:	e58d3070 	str	r3, [sp, #112]	; 0x70
    b834:	e3a08003 	mov	r8, #3, 0
    b838:	e58d8004 	str	r8, [sp, #4]
    b83c:	e3a03001 	mov	r3, #1, 0
    b840:	e58d3000 	str	r3, [sp]
    b844:	e1a03004 	mov	r3, r4
    b848:	e28d2068 	add	r2, sp, #104, 0	; 0x68
    b84c:	e8920007 	ldm	r2, {r0, r1, r2}
    b850:	ebfff2c3 	bl	8364 <nrf_put8_chk_helper>
    b854:	e58d7074 	str	r7, [sp, #116]	; 0x74
    b858:	e58d5078 	str	r5, [sp, #120]	; 0x78
    b85c:	e3a03050 	mov	r3, #80, 0	; 0x50
    b860:	e58d307c 	str	r3, [sp, #124]	; 0x7c
    b864:	e58d8004 	str	r8, [sp, #4]
    b868:	e3a08002 	mov	r8, #2, 0
    b86c:	e58d8000 	str	r8, [sp]
    b870:	e1a03004 	mov	r3, r4
    b874:	e28d2074 	add	r2, sp, #116, 0	; 0x74
    b878:	e8920007 	ldm	r2, {r0, r1, r2}
    b87c:	ebfff2b8 	bl	8364 <nrf_put8_chk_helper>
    b880:	e58d7080 	str	r7, [sp, #128]	; 0x80
    b884:	e58d5084 	str	r5, [sp, #132]	; 0x84
    b888:	e3a0305e 	mov	r3, #94, 0	; 0x5e
    b88c:	e58d3088 	str	r3, [sp, #136]	; 0x88
    b890:	e3a03076 	mov	r3, #118, 0	; 0x76
    b894:	e58d3004 	str	r3, [sp, #4]
    b898:	e3a03004 	mov	r3, #4, 0
    b89c:	e58d3000 	str	r3, [sp]
    b8a0:	e1a03004 	mov	r3, r4
    b8a4:	e28d2080 	add	r2, sp, #128, 0	; 0x80
    b8a8:	e8920007 	ldm	r2, {r0, r1, r2}
    b8ac:	ebfff2ac 	bl	8364 <nrf_put8_chk_helper>
    b8b0:	e1a01008 	mov	r1, r8
    b8b4:	e1a00004 	mov	r0, r4
    b8b8:	ebfff27f 	bl	82bc <nrf_get8>
    b8bc:	e3100001 	tst	r0, #1, 0
    b8c0:	0a000016 	beq	b920 <staff_nrf_init+0x4e4>
    b8c4:	e3a01002 	mov	r1, #2, 0
    b8c8:	e1a00004 	mov	r0, r4
    b8cc:	ebfff27a 	bl	82bc <nrf_get8>
    b8d0:	e3100002 	tst	r0, #2, 0
    b8d4:	0a000019 	beq	b940 <staff_nrf_init+0x504>
    b8d8:	e3a01001 	mov	r1, #1, 0
    b8dc:	e1a00004 	mov	r0, r4
    b8e0:	ebfff275 	bl	82bc <nrf_get8>
    b8e4:	e3100002 	tst	r0, #2, 0
    b8e8:	0a00001c 	beq	b960 <staff_nrf_init+0x524>
    b8ec:	e3a01001 	mov	r1, #1, 0
    b8f0:	e1a00004 	mov	r0, r4
    b8f4:	ebfff270 	bl	82bc <nrf_get8>
    b8f8:	e3100001 	tst	r0, #1, 0
    b8fc:	1affff76 	bne	b6dc <staff_nrf_init+0x2a0>
    b900:	e59f3618 	ldr	r3, [pc, #1560]	; bf20 <staff_nrf_init+0xae4>
    b904:	e58d3000 	str	r3, [sp]
    b908:	e3a03064 	mov	r3, #100, 0	; 0x64
    b90c:	e59f25dc 	ldr	r2, [pc, #1500]	; bef0 <staff_nrf_init+0xab4>
    b910:	e59f15d4 	ldr	r1, [pc, #1492]	; beec <staff_nrf_init+0xab0>
    b914:	e59f05e4 	ldr	r0, [pc, #1508]	; bf00 <staff_nrf_init+0xac4>
    b918:	eb00079a 	bl	d788 <printk>
    b91c:	eb0008a2 	bl	dbac <clean_reboot>
    b920:	e59f35fc 	ldr	r3, [pc, #1532]	; bf24 <staff_nrf_init+0xae8>
    b924:	e58d3000 	str	r3, [sp]
    b928:	e3a03061 	mov	r3, #97, 0	; 0x61
    b92c:	e1a02005 	mov	r2, r5
    b930:	e1a01007 	mov	r1, r7
    b934:	e59f05c4 	ldr	r0, [pc, #1476]	; bf00 <staff_nrf_init+0xac4>
    b938:	eb000792 	bl	d788 <printk>
    b93c:	eb00089a 	bl	dbac <clean_reboot>
    b940:	e59f35cc 	ldr	r3, [pc, #1484]	; bf14 <staff_nrf_init+0xad8>
    b944:	e58d3000 	str	r3, [sp]
    b948:	e3a03062 	mov	r3, #98, 0	; 0x62
    b94c:	e59f259c 	ldr	r2, [pc, #1436]	; bef0 <staff_nrf_init+0xab4>
    b950:	e59f1594 	ldr	r1, [pc, #1428]	; beec <staff_nrf_init+0xab0>
    b954:	e59f05a4 	ldr	r0, [pc, #1444]	; bf00 <staff_nrf_init+0xac4>
    b958:	eb00078a 	bl	d788 <printk>
    b95c:	eb000892 	bl	dbac <clean_reboot>
    b960:	e59f35c0 	ldr	r3, [pc, #1472]	; bf28 <staff_nrf_init+0xaec>
    b964:	e58d3000 	str	r3, [sp]
    b968:	e3a03063 	mov	r3, #99, 0	; 0x63
    b96c:	e59f257c 	ldr	r2, [pc, #1404]	; bef0 <staff_nrf_init+0xab4>
    b970:	e59f1574 	ldr	r1, [pc, #1396]	; beec <staff_nrf_init+0xab0>
    b974:	e59f0584 	ldr	r0, [pc, #1412]	; bf00 <staff_nrf_init+0xac4>
    b978:	eb000782 	bl	d788 <printk>
    b97c:	eb00088a 	bl	dbac <clean_reboot>
    b980:	e59f35a4 	ldr	r3, [pc, #1444]	; bf2c <staff_nrf_init+0xaf0>
    b984:	e58d3000 	str	r3, [sp]
    b988:	e3a0301f 	mov	r3, #31, 0
    b98c:	e59f259c 	ldr	r2, [pc, #1436]	; bf30 <staff_nrf_init+0xaf4>
    b990:	e59f159c 	ldr	r1, [pc, #1436]	; bf34 <staff_nrf_init+0xaf8>
    b994:	e59f0564 	ldr	r0, [pc, #1380]	; bf00 <staff_nrf_init+0xac4>
    b998:	eb00077a 	bl	d788 <printk>
    b99c:	eb000882 	bl	dbac <clean_reboot>
    b9a0:	e59f3590 	ldr	r3, [pc, #1424]	; bf38 <staff_nrf_init+0xafc>
    b9a4:	e58d3000 	str	r3, [sp]
    b9a8:	e3a03069 	mov	r3, #105, 0	; 0x69
    b9ac:	e59f253c 	ldr	r2, [pc, #1340]	; bef0 <staff_nrf_init+0xab4>
    b9b0:	e59f1534 	ldr	r1, [pc, #1332]	; beec <staff_nrf_init+0xab0>
    b9b4:	e59f0544 	ldr	r0, [pc, #1348]	; bf00 <staff_nrf_init+0xac4>
    b9b8:	eb000772 	bl	d788 <printk>
    b9bc:	eb00087a 	bl	dbac <clean_reboot>
    b9c0:	e59f8524 	ldr	r8, [pc, #1316]	; beec <staff_nrf_init+0xab0>
    b9c4:	e58d808c 	str	r8, [sp, #140]	; 0x8c
    b9c8:	e59f7520 	ldr	r7, [pc, #1312]	; bef0 <staff_nrf_init+0xab4>
    b9cc:	e58d7090 	str	r7, [sp, #144]	; 0x90
    b9d0:	e3a0306e 	mov	r3, #110, 0	; 0x6e
    b9d4:	e58d3094 	str	r3, [sp, #148]	; 0x94
    b9d8:	e3a03001 	mov	r3, #1, 0
    b9dc:	e58d3004 	str	r3, [sp, #4]
    b9e0:	e3a05003 	mov	r5, #3, 0
    b9e4:	e58d5000 	str	r5, [sp]
    b9e8:	e1a03004 	mov	r3, r4
    b9ec:	e28d208c 	add	r2, sp, #140, 0	; 0x8c
    b9f0:	e8920007 	ldm	r2, {r0, r1, r2}
    b9f4:	ebfff25a 	bl	8364 <nrf_put8_chk_helper>
    b9f8:	e1a03005 	mov	r3, r5
    b9fc:	e3a02000 	mov	r2, #0, 0
    ba00:	e3a01010 	mov	r1, #16, 0
    ba04:	e1a00004 	mov	r0, r4
    ba08:	ebfff5c0 	bl	9110 <nrf_set_addr>
    ba0c:	e58d8098 	str	r8, [sp, #152]	; 0x98
    ba10:	e58d709c 	str	r7, [sp, #156]	; 0x9c
    ba14:	e3a03073 	mov	r3, #115, 0	; 0x73
    ba18:	e58d30a0 	str	r3, [sp, #160]	; 0xa0
    ba1c:	e5dd3023 	ldrb	r3, [sp, #35]	; 0x23
    ba20:	e58d3004 	str	r3, [sp, #4]
    ba24:	e3a03012 	mov	r3, #18, 0
    ba28:	e58d3000 	str	r3, [sp]
    ba2c:	e1a03004 	mov	r3, r4
    ba30:	e28d2098 	add	r2, sp, #152, 0	; 0x98
    ba34:	e8920007 	ldm	r2, {r0, r1, r2}
    ba38:	ebfff249 	bl	8364 <nrf_put8_chk_helper>
    ba3c:	e1a03005 	mov	r3, r5
    ba40:	e1a02006 	mov	r2, r6
    ba44:	e3a0100b 	mov	r1, #11, 0
    ba48:	e1a00004 	mov	r0, r4
    ba4c:	ebfff5af 	bl	9110 <nrf_set_addr>
    ba50:	e3a01002 	mov	r1, #2, 0
    ba54:	e1a00004 	mov	r0, r4
    ba58:	ebfff217 	bl	82bc <nrf_get8>
    ba5c:	e3100001 	tst	r0, #1, 0
    ba60:	1a0000b4 	bne	bd38 <staff_nrf_init+0x8fc>
    ba64:	e59f6480 	ldr	r6, [pc, #1152]	; beec <staff_nrf_init+0xab0>
    ba68:	e58d60a4 	str	r6, [sp, #164]	; 0xa4
    ba6c:	e59f547c 	ldr	r5, [pc, #1148]	; bef0 <staff_nrf_init+0xab4>
    ba70:	e58d50a8 	str	r5, [sp, #168]	; 0xa8
    ba74:	e3a0307c 	mov	r3, #124, 0	; 0x7c
    ba78:	e58d30ac 	str	r3, [sp, #172]	; 0xac
    ba7c:	e3a07000 	mov	r7, #0, 0
    ba80:	e58d7004 	str	r7, [sp, #4]
    ba84:	e3a03013 	mov	r3, #19, 0
    ba88:	e58d3000 	str	r3, [sp]
    ba8c:	e1a03004 	mov	r3, r4
    ba90:	e28d20a4 	add	r2, sp, #164, 0	; 0xa4
    ba94:	e8920007 	ldm	r2, {r0, r1, r2}
    ba98:	ebfff231 	bl	8364 <nrf_put8_chk_helper>
    ba9c:	e58d60b0 	str	r6, [sp, #176]	; 0xb0
    baa0:	e58d50b4 	str	r5, [sp, #180]	; 0xb4
    baa4:	e3a0307d 	mov	r3, #125, 0	; 0x7d
    baa8:	e58d30b8 	str	r3, [sp, #184]	; 0xb8
    baac:	e58d7004 	str	r7, [sp, #4]
    bab0:	e3a03014 	mov	r3, #20, 0
    bab4:	e58d3000 	str	r3, [sp]
    bab8:	e1a03004 	mov	r3, r4
    babc:	e28d20b0 	add	r2, sp, #176, 0	; 0xb0
    bac0:	e8920007 	ldm	r2, {r0, r1, r2}
    bac4:	ebfff226 	bl	8364 <nrf_put8_chk_helper>
    bac8:	e58d60bc 	str	r6, [sp, #188]	; 0xbc
    bacc:	e58d50c0 	str	r5, [sp, #192]	; 0xc0
    bad0:	e3a0307e 	mov	r3, #126, 0	; 0x7e
    bad4:	e58d30c4 	str	r3, [sp, #196]	; 0xc4
    bad8:	e58d7004 	str	r7, [sp, #4]
    badc:	e3a03015 	mov	r3, #21, 0
    bae0:	e58d3000 	str	r3, [sp]
    bae4:	e1a03004 	mov	r3, r4
    bae8:	e28d20bc 	add	r2, sp, #188, 0	; 0xbc
    baec:	e8920007 	ldm	r2, {r0, r1, r2}
    baf0:	ebfff21b 	bl	8364 <nrf_put8_chk_helper>
    baf4:	e58d60c8 	str	r6, [sp, #200]	; 0xc8
    baf8:	e58d50cc 	str	r5, [sp, #204]	; 0xcc
    bafc:	e3a0307f 	mov	r3, #127, 0	; 0x7f
    bb00:	e58d30d0 	str	r3, [sp, #208]	; 0xd0
    bb04:	e58d7004 	str	r7, [sp, #4]
    bb08:	e3a03016 	mov	r3, #22, 0
    bb0c:	e58d3000 	str	r3, [sp]
    bb10:	e1a03004 	mov	r3, r4
    bb14:	e28d20c8 	add	r2, sp, #200, 0	; 0xc8
    bb18:	e8920007 	ldm	r2, {r0, r1, r2}
    bb1c:	ebfff210 	bl	8364 <nrf_put8_chk_helper>
    bb20:	e58d60d4 	str	r6, [sp, #212]	; 0xd4
    bb24:	e58d50d8 	str	r5, [sp, #216]	; 0xd8
    bb28:	e3a03082 	mov	r3, #130, 0	; 0x82
    bb2c:	e58d30dc 	str	r3, [sp, #220]	; 0xdc
    bb30:	e5dd3024 	ldrb	r3, [sp, #36]	; 0x24
    bb34:	e58d3004 	str	r3, [sp, #4]
    bb38:	e3a03005 	mov	r3, #5, 0
    bb3c:	e58d3000 	str	r3, [sp]
    bb40:	e1a03004 	mov	r3, r4
    bb44:	e28d20d4 	add	r2, sp, #212, 0	; 0xd4
    bb48:	e8920007 	ldm	r2, {r0, r1, r2}
    bb4c:	ebfff204 	bl	8364 <nrf_put8_chk_helper>
    bb50:	e58d60e0 	str	r6, [sp, #224]	; 0xe0
    bb54:	e58d50e4 	str	r5, [sp, #228]	; 0xe4
    bb58:	e3a0308d 	mov	r3, #141, 0	; 0x8d
    bb5c:	e58d30e8 	str	r3, [sp, #232]	; 0xe8
    bb60:	e3a0300e 	mov	r3, #14, 0
    bb64:	e58d3004 	str	r3, [sp, #4]
    bb68:	e3a03006 	mov	r3, #6, 0
    bb6c:	e58d3000 	str	r3, [sp]
    bb70:	e1a03004 	mov	r3, r4
    bb74:	e28d20e0 	add	r2, sp, #224, 0	; 0xe0
    bb78:	e8920007 	ldm	r2, {r0, r1, r2}
    bb7c:	ebfff1f8 	bl	8364 <nrf_put8_chk_helper>
    bb80:	e1a00004 	mov	r0, r4
    bb84:	ebfff336 	bl	8864 <nrf_tx_flush>
    bb88:	e1a00004 	mov	r0, r4
    bb8c:	ebfff34a 	bl	88bc <nrf_rx_flush>
    bb90:	e3a020ff 	mov	r2, #255, 0	; 0xff
    bb94:	e3a01007 	mov	r1, #7, 0
    bb98:	e1a00004 	mov	r0, r4
    bb9c:	ebfff1db 	bl	8310 <nrf_put8>
    bba0:	e3a01007 	mov	r1, #7, 0
    bba4:	e1a00004 	mov	r0, r4
    bba8:	ebfff1c3 	bl	82bc <nrf_get8>
    bbac:	e350000e 	cmp	r0, #14, 0
    bbb0:	1a000066 	bne	bd50 <staff_nrf_init+0x914>
    bbb4:	e3a02005 	mov	r2, #5, 0
    bbb8:	e3a01017 	mov	r1, #23, 0
    bbbc:	e1a00004 	mov	r0, r4
    bbc0:	ebfff2e0 	bl	8748 <nrf_bit_isset>
    bbc4:	e3500000 	cmp	r0, #0, 0
    bbc8:	1a000068 	bne	bd70 <staff_nrf_init+0x934>
    bbcc:	e3a02004 	mov	r2, #4, 0
    bbd0:	e3a01017 	mov	r1, #23, 0
    bbd4:	e1a00004 	mov	r0, r4
    bbd8:	ebfff2da 	bl	8748 <nrf_bit_isset>
    bbdc:	e3500000 	cmp	r0, #0, 0
    bbe0:	0a00006a 	beq	bd90 <staff_nrf_init+0x954>
    bbe4:	e3a02001 	mov	r2, #1, 0
    bbe8:	e3a01017 	mov	r1, #23, 0
    bbec:	e1a00004 	mov	r0, r4
    bbf0:	ebfff2d4 	bl	8748 <nrf_bit_isset>
    bbf4:	e3500000 	cmp	r0, #0, 0
    bbf8:	1a00006c 	bne	bdb0 <staff_nrf_init+0x974>
    bbfc:	e3a02000 	mov	r2, #0, 0
    bc00:	e3a01017 	mov	r1, #23, 0
    bc04:	e1a00004 	mov	r0, r4
    bc08:	ebfff2ce 	bl	8748 <nrf_bit_isset>
    bc0c:	e3500000 	cmp	r0, #0, 0
    bc10:	0a00006e 	beq	bdd0 <staff_nrf_init+0x994>
    bc14:	e3a02006 	mov	r2, #6, 0
    bc18:	e3a01007 	mov	r1, #7, 0
    bc1c:	e1a00004 	mov	r0, r4
    bc20:	ebfff2c8 	bl	8748 <nrf_bit_isset>
    bc24:	e3500000 	cmp	r0, #0, 0
    bc28:	1a000070 	bne	bdf0 <staff_nrf_init+0x9b4>
    bc2c:	e3a02005 	mov	r2, #5, 0
    bc30:	e3a01007 	mov	r1, #7, 0
    bc34:	e1a00004 	mov	r0, r4
    bc38:	ebfff2c2 	bl	8748 <nrf_bit_isset>
    bc3c:	e3500000 	cmp	r0, #0, 0
    bc40:	1a000072 	bne	be10 <staff_nrf_init+0x9d4>
    bc44:	e3a01007 	mov	r1, #7, 0
    bc48:	e1a00004 	mov	r0, r4
    bc4c:	ebfff19a 	bl	82bc <nrf_get8>
    bc50:	e1a000a0 	lsr	r0, r0, #1
    bc54:	e2000007 	and	r0, r0, #7, 0
    bc58:	e3500007 	cmp	r0, #7, 0
    bc5c:	1a000073 	bne	be30 <staff_nrf_init+0x9f4>
    bc60:	e1a00004 	mov	r0, r4
    bc64:	ebfffd21 	bl	b0f0 <nrf_rx_has_packet>
    bc68:	e3500000 	cmp	r0, #0, 0
    bc6c:	1a000077 	bne	be50 <staff_nrf_init+0xa14>
    bc70:	e3a0101c 	mov	r1, #28, 0
    bc74:	e1a00004 	mov	r0, r4
    bc78:	ebfff18f 	bl	82bc <nrf_get8>
    bc7c:	e3500000 	cmp	r0, #0, 0
    bc80:	1a00007a 	bne	be70 <staff_nrf_init+0xa34>
    bc84:	e59f3260 	ldr	r3, [pc, #608]	; beec <staff_nrf_init+0xab0>
    bc88:	e58d30ec 	str	r3, [sp, #236]	; 0xec
    bc8c:	e59f325c 	ldr	r3, [pc, #604]	; bef0 <staff_nrf_init+0xab4>
    bc90:	e58d30f0 	str	r3, [sp, #240]	; 0xf0
    bc94:	e3a030b7 	mov	r3, #183, 0	; 0xb7
    bc98:	e58d30f4 	str	r3, [sp, #244]	; 0xf4
    bc9c:	e3a03000 	mov	r3, #0, 0
    bca0:	e58d3004 	str	r3, [sp, #4]
    bca4:	e3a0301d 	mov	r3, #29, 0
    bca8:	e58d3000 	str	r3, [sp]
    bcac:	e1a03004 	mov	r3, r4
    bcb0:	e28d20f8 	add	r2, sp, #248, 0	; 0xf8
    bcb4:	e9120007 	ldmdb	r2, {r0, r1, r2}
    bcb8:	ebfff1a9 	bl	8364 <nrf_put8_chk_helper>
    bcbc:	e1a00004 	mov	r0, r4
    bcc0:	ebfff2e7 	bl	8864 <nrf_tx_flush>
    bcc4:	e1a00004 	mov	r0, r4
    bcc8:	ebfff2fb 	bl	88bc <nrf_rx_flush>
    bccc:	e3a02004 	mov	r2, #4, 0
    bcd0:	e3a01017 	mov	r1, #23, 0
    bcd4:	e1a00004 	mov	r0, r4
    bcd8:	ebfff29a 	bl	8748 <nrf_bit_isset>
    bcdc:	e3500000 	cmp	r0, #0, 0
    bce0:	0a00006a 	beq	be90 <staff_nrf_init+0xa54>
    bce4:	e3a02000 	mov	r2, #0, 0
    bce8:	e3a01017 	mov	r1, #23, 0
    bcec:	e1a00004 	mov	r0, r4
    bcf0:	ebfff294 	bl	8748 <nrf_bit_isset>
    bcf4:	e3500000 	cmp	r0, #0, 0
    bcf8:	0a00006c 	beq	beb0 <staff_nrf_init+0xa74>
    bcfc:	e3a02002 	mov	r2, #2, 0
    bd00:	e3a01000 	mov	r1, #0, 0
    bd04:	e1a00004 	mov	r0, r4
    bd08:	ebfff21f 	bl	858c <nrf_or8>
    bd0c:	e3a00002 	mov	r0, #2, 0
    bd10:	eb000810 	bl	dd58 <delay_ms>
    bd14:	e1a00004 	mov	r0, r4
    bd18:	ebfffd71 	bl	b2e4 <nrf_rx_mode>
    bd1c:	e59f3218 	ldr	r3, [pc, #536]	; bf3c <staff_nrf_init+0xb00>
    bd20:	e5933000 	ldr	r3, [r3]
    bd24:	e3530000 	cmp	r3, #0, 0
    bd28:	1a000068 	bne	bed0 <staff_nrf_init+0xa94>
    bd2c:	e1a00004 	mov	r0, r4
    bd30:	e28dd0fc 	add	sp, sp, #252, 0	; 0xfc
    bd34:	e8bd83f0 	pop	{r4, r5, r6, r7, r8, r9, pc}
    bd38:	e1a03005 	mov	r3, r5
    bd3c:	e3a02000 	mov	r2, #0, 0
    bd40:	e3a0100a 	mov	r1, #10, 0
    bd44:	e1a00004 	mov	r0, r4
    bd48:	ebfff4f0 	bl	9110 <nrf_set_addr>
    bd4c:	eaffff44 	b	ba64 <staff_nrf_init+0x628>
    bd50:	e59f31e8 	ldr	r3, [pc, #488]	; bf40 <staff_nrf_init+0xb04>
    bd54:	e58d3000 	str	r3, [sp]
    bd58:	e3a030a0 	mov	r3, #160, 0	; 0xa0
    bd5c:	e1a02005 	mov	r2, r5
    bd60:	e1a01006 	mov	r1, r6
    bd64:	e59f0194 	ldr	r0, [pc, #404]	; bf00 <staff_nrf_init+0xac4>
    bd68:	eb000686 	bl	d788 <printk>
    bd6c:	eb00078e 	bl	dbac <clean_reboot>
    bd70:	e59f31cc 	ldr	r3, [pc, #460]	; bf44 <staff_nrf_init+0xb08>
    bd74:	e58d3000 	str	r3, [sp]
    bd78:	e3a030a2 	mov	r3, #162, 0	; 0xa2
    bd7c:	e59f216c 	ldr	r2, [pc, #364]	; bef0 <staff_nrf_init+0xab4>
    bd80:	e59f1164 	ldr	r1, [pc, #356]	; beec <staff_nrf_init+0xab0>
    bd84:	e59f0174 	ldr	r0, [pc, #372]	; bf00 <staff_nrf_init+0xac4>
    bd88:	eb00067e 	bl	d788 <printk>
    bd8c:	eb000786 	bl	dbac <clean_reboot>
    bd90:	e59f31b0 	ldr	r3, [pc, #432]	; bf48 <staff_nrf_init+0xb0c>
    bd94:	e58d3000 	str	r3, [sp]
    bd98:	e3a030a3 	mov	r3, #163, 0	; 0xa3
    bd9c:	e59f214c 	ldr	r2, [pc, #332]	; bef0 <staff_nrf_init+0xab4>
    bda0:	e59f1144 	ldr	r1, [pc, #324]	; beec <staff_nrf_init+0xab0>
    bda4:	e59f0154 	ldr	r0, [pc, #340]	; bf00 <staff_nrf_init+0xac4>
    bda8:	eb000676 	bl	d788 <printk>
    bdac:	eb00077e 	bl	dbac <clean_reboot>
    bdb0:	e59f3194 	ldr	r3, [pc, #404]	; bf4c <staff_nrf_init+0xb10>
    bdb4:	e58d3000 	str	r3, [sp]
    bdb8:	e3a030a4 	mov	r3, #164, 0	; 0xa4
    bdbc:	e59f212c 	ldr	r2, [pc, #300]	; bef0 <staff_nrf_init+0xab4>
    bdc0:	e59f1124 	ldr	r1, [pc, #292]	; beec <staff_nrf_init+0xab0>
    bdc4:	e59f0134 	ldr	r0, [pc, #308]	; bf00 <staff_nrf_init+0xac4>
    bdc8:	eb00066e 	bl	d788 <printk>
    bdcc:	eb000776 	bl	dbac <clean_reboot>
    bdd0:	e59f3178 	ldr	r3, [pc, #376]	; bf50 <staff_nrf_init+0xb14>
    bdd4:	e58d3000 	str	r3, [sp]
    bdd8:	e3a030a5 	mov	r3, #165, 0	; 0xa5
    bddc:	e59f210c 	ldr	r2, [pc, #268]	; bef0 <staff_nrf_init+0xab4>
    bde0:	e59f1104 	ldr	r1, [pc, #260]	; beec <staff_nrf_init+0xab0>
    bde4:	e59f0114 	ldr	r0, [pc, #276]	; bf00 <staff_nrf_init+0xac4>
    bde8:	eb000666 	bl	d788 <printk>
    bdec:	eb00076e 	bl	dbac <clean_reboot>
    bdf0:	e59f315c 	ldr	r3, [pc, #348]	; bf54 <staff_nrf_init+0xb18>
    bdf4:	e58d3000 	str	r3, [sp]
    bdf8:	e3a030a7 	mov	r3, #167, 0	; 0xa7
    bdfc:	e59f20ec 	ldr	r2, [pc, #236]	; bef0 <staff_nrf_init+0xab4>
    be00:	e59f10e4 	ldr	r1, [pc, #228]	; beec <staff_nrf_init+0xab0>
    be04:	e59f00f4 	ldr	r0, [pc, #244]	; bf00 <staff_nrf_init+0xac4>
    be08:	eb00065e 	bl	d788 <printk>
    be0c:	eb000766 	bl	dbac <clean_reboot>
    be10:	e59f3140 	ldr	r3, [pc, #320]	; bf58 <staff_nrf_init+0xb1c>
    be14:	e58d3000 	str	r3, [sp]
    be18:	e3a030a8 	mov	r3, #168, 0	; 0xa8
    be1c:	e59f20cc 	ldr	r2, [pc, #204]	; bef0 <staff_nrf_init+0xab4>
    be20:	e59f10c4 	ldr	r1, [pc, #196]	; beec <staff_nrf_init+0xab0>
    be24:	e59f00d4 	ldr	r0, [pc, #212]	; bf00 <staff_nrf_init+0xac4>
    be28:	eb000656 	bl	d788 <printk>
    be2c:	eb00075e 	bl	dbac <clean_reboot>
    be30:	e59f3124 	ldr	r3, [pc, #292]	; bf5c <staff_nrf_init+0xb20>
    be34:	e58d3000 	str	r3, [sp]
    be38:	e3a030a9 	mov	r3, #169, 0	; 0xa9
    be3c:	e59f20ac 	ldr	r2, [pc, #172]	; bef0 <staff_nrf_init+0xab4>
    be40:	e59f10a4 	ldr	r1, [pc, #164]	; beec <staff_nrf_init+0xab0>
    be44:	e59f00b4 	ldr	r0, [pc, #180]	; bf00 <staff_nrf_init+0xac4>
    be48:	eb00064e 	bl	d788 <printk>
    be4c:	eb000756 	bl	dbac <clean_reboot>
    be50:	e59f3108 	ldr	r3, [pc, #264]	; bf60 <staff_nrf_init+0xb24>
    be54:	e58d3000 	str	r3, [sp]
    be58:	e3a030aa 	mov	r3, #170, 0	; 0xaa
    be5c:	e59f208c 	ldr	r2, [pc, #140]	; bef0 <staff_nrf_init+0xab4>
    be60:	e59f1084 	ldr	r1, [pc, #132]	; beec <staff_nrf_init+0xab0>
    be64:	e59f0094 	ldr	r0, [pc, #148]	; bf00 <staff_nrf_init+0xac4>
    be68:	eb000646 	bl	d788 <printk>
    be6c:	eb00074e 	bl	dbac <clean_reboot>
    be70:	e59f30ec 	ldr	r3, [pc, #236]	; bf64 <staff_nrf_init+0xb28>
    be74:	e58d3000 	str	r3, [sp]
    be78:	e3a030b4 	mov	r3, #180, 0	; 0xb4
    be7c:	e59f206c 	ldr	r2, [pc, #108]	; bef0 <staff_nrf_init+0xab4>
    be80:	e59f1064 	ldr	r1, [pc, #100]	; beec <staff_nrf_init+0xab0>
    be84:	e59f0074 	ldr	r0, [pc, #116]	; bf00 <staff_nrf_init+0xac4>
    be88:	eb00063e 	bl	d788 <printk>
    be8c:	eb000746 	bl	dbac <clean_reboot>
    be90:	e59f30b0 	ldr	r3, [pc, #176]	; bf48 <staff_nrf_init+0xb0c>
    be94:	e58d3000 	str	r3, [sp]
    be98:	e3a030c1 	mov	r3, #193, 0	; 0xc1
    be9c:	e59f204c 	ldr	r2, [pc, #76]	; bef0 <staff_nrf_init+0xab4>
    bea0:	e59f1044 	ldr	r1, [pc, #68]	; beec <staff_nrf_init+0xab0>
    bea4:	e59f0054 	ldr	r0, [pc, #84]	; bf00 <staff_nrf_init+0xac4>
    bea8:	eb000636 	bl	d788 <printk>
    beac:	eb00073e 	bl	dbac <clean_reboot>
    beb0:	e59f3098 	ldr	r3, [pc, #152]	; bf50 <staff_nrf_init+0xb14>
    beb4:	e58d3000 	str	r3, [sp]
    beb8:	e3a030c2 	mov	r3, #194, 0	; 0xc2
    bebc:	e59f202c 	ldr	r2, [pc, #44]	; bef0 <staff_nrf_init+0xab4>
    bec0:	e59f1024 	ldr	r1, [pc, #36]	; beec <staff_nrf_init+0xab0>
    bec4:	e59f0034 	ldr	r0, [pc, #52]	; bf00 <staff_nrf_init+0xac4>
    bec8:	eb00062e 	bl	d788 <printk>
    becc:	eb000736 	bl	dbac <clean_reboot>
    bed0:	e1a01004 	mov	r1, r4
    bed4:	e59f008c 	ldr	r0, [pc, #140]	; bf68 <staff_nrf_init+0xb2c>
    bed8:	ebfff2ec 	bl	8a90 <nrf_dump>
    bedc:	eaffff92 	b	bd2c <staff_nrf_init+0x8f0>
    bee0:	00002058 	.word	0x00002058
    bee4:	00002014 	.word	0x00002014
    bee8:	12345678 	.word	0x12345678
    beec:	0000ee94 	.word	0x0000ee94
    bef0:	0000f204 	.word	0x0000f204
    bef4:	0000eb1c 	.word	0x0000eb1c
    bef8:	0000f1fc 	.word	0x0000f1fc
    befc:	0000eecc 	.word	0x0000eecc
    bf00:	0000e1c4 	.word	0x0000e1c4
    bf04:	0000eb28 	.word	0x0000eb28
    bf08:	0000eb34 	.word	0x0000eb34
    bf0c:	0000eb48 	.word	0x0000eb48
    bf10:	0000eb70 	.word	0x0000eb70
    bf14:	0000eb84 	.word	0x0000eb84
    bf18:	0000eba0 	.word	0x0000eba0
    bf1c:	0000ebbc 	.word	0x0000ebbc
    bf20:	0000ec0c 	.word	0x0000ec0c
    bf24:	0000ebd8 	.word	0x0000ebd8
    bf28:	0000ebf4 	.word	0x0000ebf4
    bf2c:	0000e2d8 	.word	0x0000e2d8
    bf30:	0000f214 	.word	0x0000f214
    bf34:	0000ef04 	.word	0x0000ef04
    bf38:	0000ec24 	.word	0x0000ec24
    bf3c:	0000f974 	.word	0x0000f974
    bf40:	0000ef40 	.word	0x0000ef40
    bf44:	0000ec40 	.word	0x0000ec40
    bf48:	0000ec58 	.word	0x0000ec58
    bf4c:	0000ec70 	.word	0x0000ec70
    bf50:	0000ec88 	.word	0x0000ec88
    bf54:	0000ef68 	.word	0x0000ef68
    bf58:	0000eca0 	.word	0x0000eca0
    bf5c:	0000ecb4 	.word	0x0000ecb4
    bf60:	0000ecd8 	.word	0x0000ecd8
    bf64:	0000ef7c 	.word	0x0000ef7c
    bf68:	0000ef98 	.word	0x0000ef98

0000bf6c <staff_nrf_get_pkts>:
    bf6c:	e92d40f0 	push	{r4, r5, r6, r7, lr}
    bf70:	e24dd02c 	sub	sp, sp, #44, 0	; 0x2c
    bf74:	e1a06000 	mov	r6, r0
    bf78:	e3a01000 	mov	r1, #0, 0
    bf7c:	ebfff0ce 	bl	82bc <nrf_get8>
    bf80:	e350007f 	cmp	r0, #127, 0	; 0x7f
    bf84:	1a000005 	bne	bfa0 <staff_nrf_get_pkts+0x34>
    bf88:	e1a00006 	mov	r0, r6
    bf8c:	ebfffc57 	bl	b0f0 <nrf_rx_has_packet>
    bf90:	e3500000 	cmp	r0, #0, 0
    bf94:	0a00009c 	beq	c20c <staff_nrf_get_pkts+0x2a0>
    bf98:	e3a07000 	mov	r7, #0, 0
    bf9c:	ea00006d 	b	c158 <staff_nrf_get_pkts+0x1ec>
    bfa0:	e1a01006 	mov	r1, r6
    bfa4:	e59f0268 	ldr	r0, [pc, #616]	; c214 <staff_nrf_get_pkts+0x2a8>
    bfa8:	ebfff2b8 	bl	8a90 <nrf_dump>
    bfac:	e59f3264 	ldr	r3, [pc, #612]	; c218 <staff_nrf_get_pkts+0x2ac>
    bfb0:	e58d3000 	str	r3, [sp]
    bfb4:	e59f3260 	ldr	r3, [pc, #608]	; c21c <staff_nrf_get_pkts+0x2b0>
    bfb8:	e59f2260 	ldr	r2, [pc, #608]	; c220 <staff_nrf_get_pkts+0x2b4>
    bfbc:	e59f1260 	ldr	r1, [pc, #608]	; c224 <staff_nrf_get_pkts+0x2b8>
    bfc0:	e59f0260 	ldr	r0, [pc, #608]	; c228 <staff_nrf_get_pkts+0x2bc>
    bfc4:	eb0005ef 	bl	d788 <printk>
    bfc8:	eb0006f7 	bl	dbac <clean_reboot>
    bfcc:	e58d5000 	str	r5, [sp]
    bfd0:	e59f3254 	ldr	r3, [pc, #596]	; c22c <staff_nrf_get_pkts+0x2c0>
    bfd4:	e59f2244 	ldr	r2, [pc, #580]	; c220 <staff_nrf_get_pkts+0x2b4>
    bfd8:	e59f1244 	ldr	r1, [pc, #580]	; c224 <staff_nrf_get_pkts+0x2b8>
    bfdc:	e59f024c 	ldr	r0, [pc, #588]	; c230 <staff_nrf_get_pkts+0x2c4>
    bfe0:	eb0005e8 	bl	d788 <printk>
    bfe4:	eb0006f0 	bl	dbac <clean_reboot>
    bfe8:	e1a01006 	mov	r1, r6
    bfec:	e59f0220 	ldr	r0, [pc, #544]	; c214 <staff_nrf_get_pkts+0x2a8>
    bff0:	ebfff2a6 	bl	8a90 <nrf_dump>
    bff4:	e59f3238 	ldr	r3, [pc, #568]	; c234 <staff_nrf_get_pkts+0x2c8>
    bff8:	e58d3000 	str	r3, [sp]
    bffc:	e3a03e15 	mov	r3, #336	; 0x150
    c000:	e59f2218 	ldr	r2, [pc, #536]	; c220 <staff_nrf_get_pkts+0x2b4>
    c004:	e59f1218 	ldr	r1, [pc, #536]	; c224 <staff_nrf_get_pkts+0x2b8>
    c008:	e59f0218 	ldr	r0, [pc, #536]	; c228 <staff_nrf_get_pkts+0x2bc>
    c00c:	eb0005dd 	bl	d788 <printk>
    c010:	eb0006e5 	bl	dbac <clean_reboot>
    c014:	e59f321c 	ldr	r3, [pc, #540]	; c238 <staff_nrf_get_pkts+0x2cc>
    c018:	e58d3000 	str	r3, [sp]
    c01c:	e3a030a1 	mov	r3, #161, 0	; 0xa1
    c020:	e59f2214 	ldr	r2, [pc, #532]	; c23c <staff_nrf_get_pkts+0x2d0>
    c024:	e59f1214 	ldr	r1, [pc, #532]	; c240 <staff_nrf_get_pkts+0x2d4>
    c028:	e59f0214 	ldr	r0, [pc, #532]	; c244 <staff_nrf_get_pkts+0x2d8>
    c02c:	eb0005d5 	bl	d788 <printk>
    c030:	eb0006dd 	bl	dbac <clean_reboot>
    c034:	e7c1000c 	strb	r0, [r1, ip]
    c038:	e28c3001 	add	r3, ip, #1, 0
    c03c:	e1a03983 	lsl	r3, r3, #19
    c040:	e1a039a3 	lsr	r3, r3, #19
    c044:	e2810a02 	add	r0, r1, #8192	; 0x2000
    c048:	e5803004 	str	r3, [r0, #4]
    c04c:	e3a03001 	mov	r3, #1, 0
    c050:	e3530000 	cmp	r3, #0, 0
    c054:	0a000020 	beq	c0dc <staff_nrf_get_pkts+0x170>
    c058:	e2822001 	add	r2, r2, #1, 0
    c05c:	e1540002 	cmp	r4, r2
    c060:	9a000023 	bls	c0f4 <staff_nrf_get_pkts+0x188>
    c064:	e28d3008 	add	r3, sp, #8, 0
    c068:	e7d30002 	ldrb	r0, [r3, r2]
    c06c:	e281ca02 	add	ip, r1, #8192	; 0x2000
    c070:	e59c3004 	ldr	r3, [ip, #4]
    c074:	e2833001 	add	r3, r3, #1, 0
    c078:	e1a03983 	lsl	r3, r3, #19
    c07c:	e1a039a3 	lsr	r3, r3, #19
    c080:	e59cc008 	ldr	ip, [ip, #8]
    c084:	e153000c 	cmp	r3, ip
    c088:	0a000011 	beq	c0d4 <staff_nrf_get_pkts+0x168>
    c08c:	e281ea02 	add	lr, r1, #8192	; 0x2000
    c090:	e59ec004 	ldr	ip, [lr, #4]
    c094:	e59e3004 	ldr	r3, [lr, #4]
    c098:	e59ee008 	ldr	lr, [lr, #8]
    c09c:	e043300e 	sub	r3, r3, lr
    c0a0:	e1e03003 	mvn	r3, r3
    c0a4:	e1a03983 	lsl	r3, r3, #19
    c0a8:	e1a039a3 	lsr	r3, r3, #19
    c0ac:	e3530000 	cmp	r3, #0, 0
    c0b0:	1affffdf 	bne	c034 <staff_nrf_get_pkts+0xc8>
    c0b4:	e59f318c 	ldr	r3, [pc, #396]	; c248 <staff_nrf_get_pkts+0x2dc>
    c0b8:	e58d3000 	str	r3, [sp]
    c0bc:	e3a0306a 	mov	r3, #106, 0	; 0x6a
    c0c0:	e59f2184 	ldr	r2, [pc, #388]	; c24c <staff_nrf_get_pkts+0x2e0>
    c0c4:	e59f1174 	ldr	r1, [pc, #372]	; c240 <staff_nrf_get_pkts+0x2d4>
    c0c8:	e59f0174 	ldr	r0, [pc, #372]	; c244 <staff_nrf_get_pkts+0x2d8>
    c0cc:	eb0005ad 	bl	d788 <printk>
    c0d0:	eb0006b5 	bl	dbac <clean_reboot>
    c0d4:	e3a03000 	mov	r3, #0, 0
    c0d8:	eaffffdc 	b	c050 <staff_nrf_get_pkts+0xe4>
    c0dc:	e3a030aa 	mov	r3, #170, 0	; 0xaa
    c0e0:	e59f2154 	ldr	r2, [pc, #340]	; c23c <staff_nrf_get_pkts+0x2d0>
    c0e4:	e59f1154 	ldr	r1, [pc, #340]	; c240 <staff_nrf_get_pkts+0x2d4>
    c0e8:	e59f0160 	ldr	r0, [pc, #352]	; c250 <staff_nrf_get_pkts+0x2e4>
    c0ec:	eb0005a5 	bl	d788 <printk>
    c0f0:	eb0006ad 	bl	dbac <clean_reboot>
    c0f4:	e3a03001 	mov	r3, #1, 0
    c0f8:	e3530000 	cmp	r3, #0, 0
    c0fc:	0a000036 	beq	c1dc <staff_nrf_get_pkts+0x270>
    c100:	e2863a02 	add	r3, r6, #8192	; 0x2000
    c104:	e5932050 	ldr	r2, [r3, #80]	; 0x50
    c108:	e2822001 	add	r2, r2, #1, 0
    c10c:	e5832050 	str	r2, [r3, #80]	; 0x50
    c110:	e5932054 	ldr	r2, [r3, #84]	; 0x54
    c114:	e0824004 	add	r4, r2, r4
    c118:	e5834054 	str	r4, [r3, #84]	; 0x54
    c11c:	e3a02040 	mov	r2, #64, 0	; 0x40
    c120:	e3a01007 	mov	r1, #7, 0
    c124:	e1a00006 	mov	r0, r6
    c128:	ebfff078 	bl	8310 <nrf_put8>
    c12c:	e59f3120 	ldr	r3, [pc, #288]	; c254 <staff_nrf_get_pkts+0x2e8>
    c130:	e5933000 	ldr	r3, [r3]
    c134:	e3530000 	cmp	r3, #0, 0
    c138:	1a00002e 	bne	c1f8 <staff_nrf_get_pkts+0x28c>
    c13c:	e2877001 	add	r7, r7, #1, 0
    c140:	e3a02000 	mov	r2, #0, 0
    c144:	e3a01017 	mov	r1, #23, 0
    c148:	e1a00006 	mov	r0, r6
    c14c:	ebfff17d 	bl	8748 <nrf_bit_isset>
    c150:	e3500000 	cmp	r0, #0, 0
    c154:	1a00002b 	bne	c208 <staff_nrf_get_pkts+0x29c>
    c158:	e3a01007 	mov	r1, #7, 0
    c15c:	e1a00006 	mov	r0, r6
    c160:	ebfff055 	bl	82bc <nrf_get8>
    c164:	e1a050a0 	lsr	r5, r0, #1
    c168:	e2055007 	and	r5, r5, #7, 0
    c16c:	e3550007 	cmp	r5, #7, 0
    c170:	0affff95 	beq	bfcc <staff_nrf_get_pkts+0x60>
    c174:	e5d64003 	ldrb	r4, [r6, #3]
    c178:	e1a03004 	mov	r3, r4
    c17c:	e28d2008 	add	r2, sp, #8, 0
    c180:	e3a01061 	mov	r1, #97, 0	; 0x61
    c184:	e1a00006 	mov	r0, r6
    c188:	ebfff097 	bl	83ec <nrf_getn>
    c18c:	e1a000a0 	lsr	r0, r0, #1
    c190:	e2000007 	and	r0, r0, #7, 0
    c194:	e1550000 	cmp	r5, r0
    c198:	1affff92 	bne	bfe8 <staff_nrf_get_pkts+0x7c>
    c19c:	e2861024 	add	r1, r6, #36, 0	; 0x24
    c1a0:	e3540000 	cmp	r4, #0, 0
    c1a4:	0affff9a 	beq	c014 <staff_nrf_get_pkts+0xa8>
    c1a8:	e2812a02 	add	r2, r1, #8192	; 0x2000
    c1ac:	e5923004 	ldr	r3, [r2, #4]
    c1b0:	e5922008 	ldr	r2, [r2, #8]
    c1b4:	e0433002 	sub	r3, r3, r2
    c1b8:	e1e03003 	mvn	r3, r3
    c1bc:	e1a03983 	lsl	r3, r3, #19
    c1c0:	e1a039a3 	lsr	r3, r3, #19
    c1c4:	e1540003 	cmp	r4, r3
    c1c8:	8a000001 	bhi	c1d4 <staff_nrf_get_pkts+0x268>
    c1cc:	e3a02000 	mov	r2, #0, 0
    c1d0:	eaffffa1 	b	c05c <staff_nrf_get_pkts+0xf0>
    c1d4:	e3a03000 	mov	r3, #0, 0
    c1d8:	eaffffc6 	b	c0f8 <staff_nrf_get_pkts+0x18c>
    c1dc:	e58d5000 	str	r5, [sp]
    c1e0:	e3a03f55 	mov	r3, #340	; 0x154
    c1e4:	e59f2034 	ldr	r2, [pc, #52]	; c220 <staff_nrf_get_pkts+0x2b4>
    c1e8:	e59f1034 	ldr	r1, [pc, #52]	; c224 <staff_nrf_get_pkts+0x2b8>
    c1ec:	e59f0064 	ldr	r0, [pc, #100]	; c258 <staff_nrf_get_pkts+0x2ec>
    c1f0:	eb000564 	bl	d788 <printk>
    c1f4:	eb00066c 	bl	dbac <clean_reboot>
    c1f8:	e1a01005 	mov	r1, r5
    c1fc:	e59f0058 	ldr	r0, [pc, #88]	; c25c <staff_nrf_get_pkts+0x2f0>
    c200:	eb000560 	bl	d788 <printk>
    c204:	eaffffcc 	b	c13c <staff_nrf_get_pkts+0x1d0>
    c208:	e1a00007 	mov	r0, r7
    c20c:	e28dd02c 	add	sp, sp, #44, 0	; 0x2c
    c210:	e8bd80f0 	pop	{r4, r5, r6, r7, pc}
    c214:	0000e7cc 	.word	0x0000e7cc
    c218:	0000ecf0 	.word	0x0000ecf0
    c21c:	0000012b 	.word	0x0000012b
    c220:	0000f220 	.word	0x0000f220
    c224:	0000ee94 	.word	0x0000ee94
    c228:	0000e7e0 	.word	0x0000e7e0
    c22c:	00000143 	.word	0x00000143
    c230:	0000efa8 	.word	0x0000efa8
    c234:	0000efd8 	.word	0x0000efd8
    c238:	0000ed58 	.word	0x0000ed58
    c23c:	0000f234 	.word	0x0000f234
    c240:	0000eecc 	.word	0x0000eecc
    c244:	0000e1c4 	.word	0x0000e1c4
    c248:	0000ed5c 	.word	0x0000ed5c
    c24c:	0000f240 	.word	0x0000f240
    c250:	0000ed70 	.word	0x0000ed70
    c254:	0000f974 	.word	0x0000f974
    c258:	0000eff4 	.word	0x0000eff4
    c25c:	0000f034 	.word	0x0000f034

0000c260 <staff_nrf_tx_send_noack>:
    c260:	e92d40f0 	push	{r4, r5, r6, r7, lr}
    c264:	e24dd00c 	sub	sp, sp, #12, 0
    c268:	e1a04000 	mov	r4, r0
    c26c:	e1a05001 	mov	r5, r1
    c270:	e1a07002 	mov	r7, r2
    c274:	e1a06003 	mov	r6, r3
    c278:	e3a01000 	mov	r1, #0, 0
    c27c:	ebfff00e 	bl	82bc <nrf_get8>
    c280:	e350007f 	cmp	r0, #127, 0	; 0x7f
    c284:	1a00004a 	bne	c3b4 <staff_nrf_tx_send_noack+0x154>
    c288:	e3a01002 	mov	r1, #2, 0
    c28c:	e1a00004 	mov	r0, r4
    c290:	ebfff009 	bl	82bc <nrf_get8>
    c294:	e3100001 	tst	r0, #1, 0
    c298:	1a000050 	bne	c3e0 <staff_nrf_tx_send_noack+0x180>
    c29c:	e3a01002 	mov	r1, #2, 0
    c2a0:	e1a00004 	mov	r0, r4
    c2a4:	ebfff004 	bl	82bc <nrf_get8>
    c2a8:	e3100002 	tst	r0, #2, 0
    c2ac:	0a000056 	beq	c40c <staff_nrf_tx_send_noack+0x1ac>
    c2b0:	e3a01001 	mov	r1, #1, 0
    c2b4:	e1a00004 	mov	r0, r4
    c2b8:	ebffefff 	bl	82bc <nrf_get8>
    c2bc:	e3100002 	tst	r0, #2, 0
    c2c0:	1a00005c 	bne	c438 <staff_nrf_tx_send_noack+0x1d8>
    c2c4:	e3a02004 	mov	r2, #4, 0
    c2c8:	e3a01017 	mov	r1, #23, 0
    c2cc:	e1a00004 	mov	r0, r4
    c2d0:	ebfff11c 	bl	8748 <nrf_bit_isset>
    c2d4:	e3500000 	cmp	r0, #0, 0
    c2d8:	0a000061 	beq	c464 <staff_nrf_tx_send_noack+0x204>
    c2dc:	e1a00004 	mov	r0, r4
    c2e0:	ebffff21 	bl	bf6c <staff_nrf_get_pkts>
    c2e4:	e3500000 	cmp	r0, #0, 0
    c2e8:	1afffffb 	bne	c2dc <staff_nrf_tx_send_noack+0x7c>
    c2ec:	e59f3214 	ldr	r3, [pc, #532]	; c508 <staff_nrf_tx_send_noack+0x2a8>
    c2f0:	e5933000 	ldr	r3, [r3]
    c2f4:	e3530000 	cmp	r3, #0, 0
    c2f8:	1a000064 	bne	c490 <staff_nrf_tx_send_noack+0x230>
    c2fc:	e3a03003 	mov	r3, #3, 0
    c300:	e1a02005 	mov	r2, r5
    c304:	e3a01010 	mov	r1, #16, 0
    c308:	e1a00004 	mov	r0, r4
    c30c:	ebfff37f 	bl	9110 <nrf_set_addr>
    c310:	e3a02003 	mov	r2, #3, 0
    c314:	e3a01010 	mov	r1, #16, 0
    c318:	e1a00004 	mov	r0, r4
    c31c:	ebfff12c 	bl	87d4 <nrf_get_addr>
    c320:	e1500005 	cmp	r0, r5
    c324:	1a00005e 	bne	c4a4 <staff_nrf_tx_send_noack+0x244>
    c328:	e59f31d8 	ldr	r3, [pc, #472]	; c508 <staff_nrf_tx_send_noack+0x2a8>
    c32c:	e5933000 	ldr	r3, [r3]
    c330:	e3530000 	cmp	r3, #0, 0
    c334:	1a000065 	bne	c4d0 <staff_nrf_tx_send_noack+0x270>
    c338:	e1a02006 	mov	r2, r6
    c33c:	e1a01007 	mov	r1, r7
    c340:	e1a00004 	mov	r0, r4
    c344:	ebfffb70 	bl	b10c <do_tx>
    c348:	e1a00004 	mov	r0, r4
    c34c:	ebfffb7d 	bl	b148 <nrf_tx_mode>
    c350:	e3a02005 	mov	r2, #5, 0
    c354:	e3a01007 	mov	r1, #7, 0
    c358:	e1a00004 	mov	r0, r4
    c35c:	ebfff0f9 	bl	8748 <nrf_bit_isset>
    c360:	e3500000 	cmp	r0, #0, 0
    c364:	0afffff9 	beq	c350 <staff_nrf_tx_send_noack+0xf0>
    c368:	e3a02004 	mov	r2, #4, 0
    c36c:	e3a01017 	mov	r1, #23, 0
    c370:	e1a00004 	mov	r0, r4
    c374:	ebfff0f3 	bl	8748 <nrf_bit_isset>
    c378:	e3500000 	cmp	r0, #0, 0
    c37c:	0a000056 	beq	c4dc <staff_nrf_tx_send_noack+0x27c>
    c380:	e3a02020 	mov	r2, #32, 0
    c384:	e3a01007 	mov	r1, #7, 0
    c388:	e1a00004 	mov	r0, r4
    c38c:	ebffefdf 	bl	8310 <nrf_put8>
    c390:	e59f3170 	ldr	r3, [pc, #368]	; c508 <staff_nrf_tx_send_noack+0x2a8>
    c394:	e5933000 	ldr	r3, [r3]
    c398:	e3530000 	cmp	r3, #0, 0
    c39c:	1a000056 	bne	c4fc <staff_nrf_tx_send_noack+0x29c>
    c3a0:	e1a00004 	mov	r0, r4
    c3a4:	ebfffbce 	bl	b2e4 <nrf_rx_mode>
    c3a8:	e1a00006 	mov	r0, r6
    c3ac:	e28dd00c 	add	sp, sp, #12, 0
    c3b0:	e8bd80f0 	pop	{r4, r5, r6, r7, pc}
    c3b4:	e1a01004 	mov	r1, r4
    c3b8:	e59f014c 	ldr	r0, [pc, #332]	; c50c <staff_nrf_tx_send_noack+0x2ac>
    c3bc:	ebfff1b3 	bl	8a90 <nrf_dump>
    c3c0:	e59f3148 	ldr	r3, [pc, #328]	; c510 <staff_nrf_tx_send_noack+0x2b0>
    c3c4:	e58d3000 	str	r3, [sp]
    c3c8:	e59f3144 	ldr	r3, [pc, #324]	; c514 <staff_nrf_tx_send_noack+0x2b4>
    c3cc:	e59f2144 	ldr	r2, [pc, #324]	; c518 <staff_nrf_tx_send_noack+0x2b8>
    c3d0:	e59f1144 	ldr	r1, [pc, #324]	; c51c <staff_nrf_tx_send_noack+0x2bc>
    c3d4:	e59f0144 	ldr	r0, [pc, #324]	; c520 <staff_nrf_tx_send_noack+0x2c0>
    c3d8:	eb0004ea 	bl	d788 <printk>
    c3dc:	eb0005f2 	bl	dbac <clean_reboot>
    c3e0:	e1a01004 	mov	r1, r4
    c3e4:	e59f0120 	ldr	r0, [pc, #288]	; c50c <staff_nrf_tx_send_noack+0x2ac>
    c3e8:	ebfff1a8 	bl	8a90 <nrf_dump>
    c3ec:	e59f3130 	ldr	r3, [pc, #304]	; c524 <staff_nrf_tx_send_noack+0x2c4>
    c3f0:	e58d3000 	str	r3, [sp]
    c3f4:	e3a03e17 	mov	r3, #368	; 0x170
    c3f8:	e59f2118 	ldr	r2, [pc, #280]	; c518 <staff_nrf_tx_send_noack+0x2b8>
    c3fc:	e59f1118 	ldr	r1, [pc, #280]	; c51c <staff_nrf_tx_send_noack+0x2bc>
    c400:	e59f0118 	ldr	r0, [pc, #280]	; c520 <staff_nrf_tx_send_noack+0x2c0>
    c404:	eb0004df 	bl	d788 <printk>
    c408:	eb0005e7 	bl	dbac <clean_reboot>
    c40c:	e1a01004 	mov	r1, r4
    c410:	e59f00f4 	ldr	r0, [pc, #244]	; c50c <staff_nrf_tx_send_noack+0x2ac>
    c414:	ebfff19d 	bl	8a90 <nrf_dump>
    c418:	e59f3108 	ldr	r3, [pc, #264]	; c528 <staff_nrf_tx_send_noack+0x2c8>
    c41c:	e58d3000 	str	r3, [sp]
    c420:	e59f3104 	ldr	r3, [pc, #260]	; c52c <staff_nrf_tx_send_noack+0x2cc>
    c424:	e59f20ec 	ldr	r2, [pc, #236]	; c518 <staff_nrf_tx_send_noack+0x2b8>
    c428:	e59f10ec 	ldr	r1, [pc, #236]	; c51c <staff_nrf_tx_send_noack+0x2bc>
    c42c:	e59f00ec 	ldr	r0, [pc, #236]	; c520 <staff_nrf_tx_send_noack+0x2c0>
    c430:	eb0004d4 	bl	d788 <printk>
    c434:	eb0005dc 	bl	dbac <clean_reboot>
    c438:	e1a01004 	mov	r1, r4
    c43c:	e59f00c8 	ldr	r0, [pc, #200]	; c50c <staff_nrf_tx_send_noack+0x2ac>
    c440:	ebfff192 	bl	8a90 <nrf_dump>
    c444:	e59f30e4 	ldr	r3, [pc, #228]	; c530 <staff_nrf_tx_send_noack+0x2d0>
    c448:	e58d3000 	str	r3, [sp]
    c44c:	e59f30e0 	ldr	r3, [pc, #224]	; c534 <staff_nrf_tx_send_noack+0x2d4>
    c450:	e59f20c0 	ldr	r2, [pc, #192]	; c518 <staff_nrf_tx_send_noack+0x2b8>
    c454:	e59f10c0 	ldr	r1, [pc, #192]	; c51c <staff_nrf_tx_send_noack+0x2bc>
    c458:	e59f00c0 	ldr	r0, [pc, #192]	; c520 <staff_nrf_tx_send_noack+0x2c0>
    c45c:	eb0004c9 	bl	d788 <printk>
    c460:	eb0005d1 	bl	dbac <clean_reboot>
    c464:	e1a01004 	mov	r1, r4
    c468:	e59f009c 	ldr	r0, [pc, #156]	; c50c <staff_nrf_tx_send_noack+0x2ac>
    c46c:	ebfff187 	bl	8a90 <nrf_dump>
    c470:	e59f30c0 	ldr	r3, [pc, #192]	; c538 <staff_nrf_tx_send_noack+0x2d8>
    c474:	e58d3000 	str	r3, [sp]
    c478:	e59f30bc 	ldr	r3, [pc, #188]	; c53c <staff_nrf_tx_send_noack+0x2dc>
    c47c:	e59f2094 	ldr	r2, [pc, #148]	; c518 <staff_nrf_tx_send_noack+0x2b8>
    c480:	e59f1094 	ldr	r1, [pc, #148]	; c51c <staff_nrf_tx_send_noack+0x2bc>
    c484:	e59f0094 	ldr	r0, [pc, #148]	; c520 <staff_nrf_tx_send_noack+0x2c0>
    c488:	eb0004be 	bl	d788 <printk>
    c48c:	eb0005c6 	bl	dbac <clean_reboot>
    c490:	e3a02003 	mov	r2, #3, 0
    c494:	e1a01005 	mov	r1, r5
    c498:	e59f00a0 	ldr	r0, [pc, #160]	; c540 <staff_nrf_tx_send_noack+0x2e0>
    c49c:	eb0004b9 	bl	d788 <printk>
    c4a0:	eaffff95 	b	c2fc <staff_nrf_tx_send_noack+0x9c>
    c4a4:	e1a01004 	mov	r1, r4
    c4a8:	e59f005c 	ldr	r0, [pc, #92]	; c50c <staff_nrf_tx_send_noack+0x2ac>
    c4ac:	ebfff177 	bl	8a90 <nrf_dump>
    c4b0:	e59f308c 	ldr	r3, [pc, #140]	; c544 <staff_nrf_tx_send_noack+0x2e4>
    c4b4:	e58d3000 	str	r3, [sp]
    c4b8:	e59f3088 	ldr	r3, [pc, #136]	; c548 <staff_nrf_tx_send_noack+0x2e8>
    c4bc:	e59f2054 	ldr	r2, [pc, #84]	; c518 <staff_nrf_tx_send_noack+0x2b8>
    c4c0:	e59f1054 	ldr	r1, [pc, #84]	; c51c <staff_nrf_tx_send_noack+0x2bc>
    c4c4:	e59f0054 	ldr	r0, [pc, #84]	; c520 <staff_nrf_tx_send_noack+0x2c0>
    c4c8:	eb0004ae 	bl	d788 <printk>
    c4cc:	eb0005b6 	bl	dbac <clean_reboot>
    c4d0:	e59f0074 	ldr	r0, [pc, #116]	; c54c <staff_nrf_tx_send_noack+0x2ec>
    c4d4:	eb0004ab 	bl	d788 <printk>
    c4d8:	eaffff96 	b	c338 <staff_nrf_tx_send_noack+0xd8>
    c4dc:	e59f3054 	ldr	r3, [pc, #84]	; c538 <staff_nrf_tx_send_noack+0x2d8>
    c4e0:	e58d3000 	str	r3, [sp]
    c4e4:	e59f3064 	ldr	r3, [pc, #100]	; c550 <staff_nrf_tx_send_noack+0x2f0>
    c4e8:	e59f2028 	ldr	r2, [pc, #40]	; c518 <staff_nrf_tx_send_noack+0x2b8>
    c4ec:	e59f1028 	ldr	r1, [pc, #40]	; c51c <staff_nrf_tx_send_noack+0x2bc>
    c4f0:	e59f005c 	ldr	r0, [pc, #92]	; c554 <staff_nrf_tx_send_noack+0x2f4>
    c4f4:	eb0004a3 	bl	d788 <printk>
    c4f8:	eb0005ab 	bl	dbac <clean_reboot>
    c4fc:	e59f0054 	ldr	r0, [pc, #84]	; c558 <staff_nrf_tx_send_noack+0x2f8>
    c500:	eb0004a0 	bl	d788 <printk>
    c504:	eaffffa5 	b	c3a0 <staff_nrf_tx_send_noack+0x140>
    c508:	0000f974 	.word	0x0000f974
    c50c:	0000e7cc 	.word	0x0000e7cc
    c510:	0000ecf0 	.word	0x0000ecf0
    c514:	0000016b 	.word	0x0000016b
    c518:	0000f248 	.word	0x0000f248
    c51c:	0000ee94 	.word	0x0000ee94
    c520:	0000e7e0 	.word	0x0000e7e0
    c524:	0000ebbc 	.word	0x0000ebbc
    c528:	0000eb84 	.word	0x0000eb84
    c52c:	00000171 	.word	0x00000171
    c530:	0000eba0 	.word	0x0000eba0
    c534:	00000172 	.word	0x00000172
    c538:	0000ec58 	.word	0x0000ec58
    c53c:	00000176 	.word	0x00000176
    c540:	0000f054 	.word	0x0000f054
    c544:	0000f07c 	.word	0x0000f07c
    c548:	00000183 	.word	0x00000183
    c54c:	0000f0b0 	.word	0x0000f0b0
    c550:	0000018e 	.word	0x0000018e
    c554:	0000e1c4 	.word	0x0000e1c4
    c558:	0000f0c4 	.word	0x0000f0c4

0000c55c <staff_nrf_tx_send_ack>:
    c55c:	e92d40f0 	push	{r4, r5, r6, r7, lr}
    c560:	e24dd00c 	sub	sp, sp, #12, 0
    c564:	e1a04000 	mov	r4, r0
    c568:	e1a05001 	mov	r5, r1
    c56c:	e1a07002 	mov	r7, r2
    c570:	e1a06003 	mov	r6, r3
    c574:	e3a01000 	mov	r1, #0, 0
    c578:	ebffef4f 	bl	82bc <nrf_get8>
    c57c:	e350007f 	cmp	r0, #127, 0	; 0x7f
    c580:	1a000068 	bne	c728 <staff_nrf_tx_send_ack+0x1cc>
    c584:	e1a00004 	mov	r0, r4
    c588:	ebfffe77 	bl	bf6c <staff_nrf_get_pkts>
    c58c:	e3500000 	cmp	r0, #0, 0
    c590:	1afffffb 	bne	c584 <staff_nrf_tx_send_ack+0x28>
    c594:	e3a02004 	mov	r2, #4, 0
    c598:	e3a01007 	mov	r1, #7, 0
    c59c:	e1a00004 	mov	r0, r4
    c5a0:	ebfff068 	bl	8748 <nrf_bit_isset>
    c5a4:	e3500000 	cmp	r0, #0, 0
    c5a8:	1a000069 	bne	c754 <staff_nrf_tx_send_ack+0x1f8>
    c5ac:	e3a02005 	mov	r2, #5, 0
    c5b0:	e3a01007 	mov	r1, #7, 0
    c5b4:	e1a00004 	mov	r0, r4
    c5b8:	ebfff062 	bl	8748 <nrf_bit_isset>
    c5bc:	e3500000 	cmp	r0, #0, 0
    c5c0:	1a00006e 	bne	c780 <staff_nrf_tx_send_ack+0x224>
    c5c4:	e3a01002 	mov	r1, #2, 0
    c5c8:	e1a00004 	mov	r0, r4
    c5cc:	ebffef3a 	bl	82bc <nrf_get8>
    c5d0:	e3100001 	tst	r0, #1, 0
    c5d4:	0a000074 	beq	c7ac <staff_nrf_tx_send_ack+0x250>
    c5d8:	e3a01002 	mov	r1, #2, 0
    c5dc:	e1a00004 	mov	r0, r4
    c5e0:	ebffef35 	bl	82bc <nrf_get8>
    c5e4:	e3100002 	tst	r0, #2, 0
    c5e8:	0a00007a 	beq	c7d8 <staff_nrf_tx_send_ack+0x27c>
    c5ec:	e3a01001 	mov	r1, #1, 0
    c5f0:	e1a00004 	mov	r0, r4
    c5f4:	ebffef30 	bl	82bc <nrf_get8>
    c5f8:	e3100001 	tst	r0, #1, 0
    c5fc:	0a000080 	beq	c804 <staff_nrf_tx_send_ack+0x2a8>
    c600:	e3a01001 	mov	r1, #1, 0
    c604:	e1a00004 	mov	r0, r4
    c608:	ebffef2b 	bl	82bc <nrf_get8>
    c60c:	e3100002 	tst	r0, #2, 0
    c610:	0a000086 	beq	c830 <staff_nrf_tx_send_ack+0x2d4>
    c614:	e3a02004 	mov	r2, #4, 0
    c618:	e3a01017 	mov	r1, #23, 0
    c61c:	e1a00004 	mov	r0, r4
    c620:	ebfff048 	bl	8748 <nrf_bit_isset>
    c624:	e3500000 	cmp	r0, #0, 0
    c628:	0a00008b 	beq	c85c <staff_nrf_tx_send_ack+0x300>
    c62c:	e3a02005 	mov	r2, #5, 0
    c630:	e3a01017 	mov	r1, #23, 0
    c634:	e1a00004 	mov	r0, r4
    c638:	ebfff042 	bl	8748 <nrf_bit_isset>
    c63c:	e3500000 	cmp	r0, #0, 0
    c640:	1a000090 	bne	c888 <staff_nrf_tx_send_ack+0x32c>
    c644:	e59f33ac 	ldr	r3, [pc, #940]	; c9f8 <staff_nrf_tx_send_ack+0x49c>
    c648:	e5933000 	ldr	r3, [r3]
    c64c:	e3530000 	cmp	r3, #0, 0
    c650:	1a000092 	bne	c8a0 <staff_nrf_tx_send_ack+0x344>
    c654:	e3a03003 	mov	r3, #3, 0
    c658:	e1a02005 	mov	r2, r5
    c65c:	e3a0100a 	mov	r1, #10, 0
    c660:	e1a00004 	mov	r0, r4
    c664:	ebfff2a9 	bl	9110 <nrf_set_addr>
    c668:	e3a03003 	mov	r3, #3, 0
    c66c:	e1a02005 	mov	r2, r5
    c670:	e3a01010 	mov	r1, #16, 0
    c674:	e1a00004 	mov	r0, r4
    c678:	ebfff2a4 	bl	9110 <nrf_set_addr>
    c67c:	e1a02006 	mov	r2, r6
    c680:	e1a01007 	mov	r1, r7
    c684:	e1a00004 	mov	r0, r4
    c688:	ebfffa9f 	bl	b10c <do_tx>
    c68c:	e1a00004 	mov	r0, r4
    c690:	ebfffaac 	bl	b148 <nrf_tx_mode>
    c694:	e3a02003 	mov	r2, #3, 0
    c698:	e3a01010 	mov	r1, #16, 0
    c69c:	e1a00004 	mov	r0, r4
    c6a0:	ebfff04b 	bl	87d4 <nrf_get_addr>
    c6a4:	e1a07000 	mov	r7, r0
    c6a8:	e3a02003 	mov	r2, #3, 0
    c6ac:	e3a0100a 	mov	r1, #10, 0
    c6b0:	e1a00004 	mov	r0, r4
    c6b4:	ebfff046 	bl	87d4 <nrf_get_addr>
    c6b8:	e1570000 	cmp	r7, r0
    c6bc:	1a00007c 	bne	c8b4 <staff_nrf_tx_send_ack+0x358>
    c6c0:	e1570005 	cmp	r7, r5
    c6c4:	1a000082 	bne	c8d4 <staff_nrf_tx_send_ack+0x378>
    c6c8:	e3a02005 	mov	r2, #5, 0
    c6cc:	e3a01007 	mov	r1, #7, 0
    c6d0:	e1a00004 	mov	r0, r4
    c6d4:	ebfff01b 	bl	8748 <nrf_bit_isset>
    c6d8:	e3500000 	cmp	r0, #0, 0
    c6dc:	1a000084 	bne	c8f4 <staff_nrf_tx_send_ack+0x398>
    c6e0:	e3a02004 	mov	r2, #4, 0
    c6e4:	e3a01007 	mov	r1, #7, 0
    c6e8:	e1a00004 	mov	r0, r4
    c6ec:	ebfff015 	bl	8748 <nrf_bit_isset>
    c6f0:	e3500000 	cmp	r0, #0, 0
    c6f4:	1a0000b0 	bne	c9bc <staff_nrf_tx_send_ack+0x460>
    c6f8:	e3a02001 	mov	r2, #1, 0
    c6fc:	e3a01017 	mov	r1, #23, 0
    c700:	e1a00004 	mov	r0, r4
    c704:	ebfff00f 	bl	8748 <nrf_bit_isset>
    c708:	e3500000 	cmp	r0, #0, 0
    c70c:	0affffed 	beq	c6c8 <staff_nrf_tx_send_ack+0x16c>
    c710:	e59f32e4 	ldr	r3, [pc, #740]	; c9fc <staff_nrf_tx_send_ack+0x4a0>
    c714:	e59f22e4 	ldr	r2, [pc, #740]	; ca00 <staff_nrf_tx_send_ack+0x4a4>
    c718:	e59f12e4 	ldr	r1, [pc, #740]	; ca04 <staff_nrf_tx_send_ack+0x4a8>
    c71c:	e59f02e4 	ldr	r0, [pc, #740]	; ca08 <staff_nrf_tx_send_ack+0x4ac>
    c720:	eb000418 	bl	d788 <printk>
    c724:	eb000520 	bl	dbac <clean_reboot>
    c728:	e1a01004 	mov	r1, r4
    c72c:	e59f02d8 	ldr	r0, [pc, #728]	; ca0c <staff_nrf_tx_send_ack+0x4b0>
    c730:	ebfff0d6 	bl	8a90 <nrf_dump>
    c734:	e59f32d4 	ldr	r3, [pc, #724]	; ca10 <staff_nrf_tx_send_ack+0x4b4>
    c738:	e58d3000 	str	r3, [sp]
    c73c:	e59f32d0 	ldr	r3, [pc, #720]	; ca14 <staff_nrf_tx_send_ack+0x4b8>
    c740:	e59f22b8 	ldr	r2, [pc, #696]	; ca00 <staff_nrf_tx_send_ack+0x4a4>
    c744:	e59f12b8 	ldr	r1, [pc, #696]	; ca04 <staff_nrf_tx_send_ack+0x4a8>
    c748:	e59f02c8 	ldr	r0, [pc, #712]	; ca18 <staff_nrf_tx_send_ack+0x4bc>
    c74c:	eb00040d 	bl	d788 <printk>
    c750:	eb000515 	bl	dbac <clean_reboot>
    c754:	e1a01004 	mov	r1, r4
    c758:	e59f02ac 	ldr	r0, [pc, #684]	; ca0c <staff_nrf_tx_send_ack+0x4b0>
    c75c:	ebfff0cb 	bl	8a90 <nrf_dump>
    c760:	e59f32b4 	ldr	r3, [pc, #692]	; ca1c <staff_nrf_tx_send_ack+0x4c0>
    c764:	e58d3000 	str	r3, [sp]
    c768:	e3a03f6f 	mov	r3, #444	; 0x1bc
    c76c:	e59f228c 	ldr	r2, [pc, #652]	; ca00 <staff_nrf_tx_send_ack+0x4a4>
    c770:	e59f128c 	ldr	r1, [pc, #652]	; ca04 <staff_nrf_tx_send_ack+0x4a8>
    c774:	e59f029c 	ldr	r0, [pc, #668]	; ca18 <staff_nrf_tx_send_ack+0x4bc>
    c778:	eb000402 	bl	d788 <printk>
    c77c:	eb00050a 	bl	dbac <clean_reboot>
    c780:	e1a01004 	mov	r1, r4
    c784:	e59f0280 	ldr	r0, [pc, #640]	; ca0c <staff_nrf_tx_send_ack+0x4b0>
    c788:	ebfff0c0 	bl	8a90 <nrf_dump>
    c78c:	e59f328c 	ldr	r3, [pc, #652]	; ca20 <staff_nrf_tx_send_ack+0x4c4>
    c790:	e58d3000 	str	r3, [sp]
    c794:	e59f3288 	ldr	r3, [pc, #648]	; ca24 <staff_nrf_tx_send_ack+0x4c8>
    c798:	e59f2260 	ldr	r2, [pc, #608]	; ca00 <staff_nrf_tx_send_ack+0x4a4>
    c79c:	e59f1260 	ldr	r1, [pc, #608]	; ca04 <staff_nrf_tx_send_ack+0x4a8>
    c7a0:	e59f0270 	ldr	r0, [pc, #624]	; ca18 <staff_nrf_tx_send_ack+0x4bc>
    c7a4:	eb0003f7 	bl	d788 <printk>
    c7a8:	eb0004ff 	bl	dbac <clean_reboot>
    c7ac:	e1a01004 	mov	r1, r4
    c7b0:	e59f0254 	ldr	r0, [pc, #596]	; ca0c <staff_nrf_tx_send_ack+0x4b0>
    c7b4:	ebfff0b5 	bl	8a90 <nrf_dump>
    c7b8:	e59f3268 	ldr	r3, [pc, #616]	; ca28 <staff_nrf_tx_send_ack+0x4cc>
    c7bc:	e58d3000 	str	r3, [sp]
    c7c0:	e3a03d07 	mov	r3, #448	; 0x1c0
    c7c4:	e59f2234 	ldr	r2, [pc, #564]	; ca00 <staff_nrf_tx_send_ack+0x4a4>
    c7c8:	e59f1234 	ldr	r1, [pc, #564]	; ca04 <staff_nrf_tx_send_ack+0x4a8>
    c7cc:	e59f0244 	ldr	r0, [pc, #580]	; ca18 <staff_nrf_tx_send_ack+0x4bc>
    c7d0:	eb0003ec 	bl	d788 <printk>
    c7d4:	eb0004f4 	bl	dbac <clean_reboot>
    c7d8:	e1a01004 	mov	r1, r4
    c7dc:	e59f0228 	ldr	r0, [pc, #552]	; ca0c <staff_nrf_tx_send_ack+0x4b0>
    c7e0:	ebfff0aa 	bl	8a90 <nrf_dump>
    c7e4:	e59f3240 	ldr	r3, [pc, #576]	; ca2c <staff_nrf_tx_send_ack+0x4d0>
    c7e8:	e58d3000 	str	r3, [sp]
    c7ec:	e59f323c 	ldr	r3, [pc, #572]	; ca30 <staff_nrf_tx_send_ack+0x4d4>
    c7f0:	e59f2208 	ldr	r2, [pc, #520]	; ca00 <staff_nrf_tx_send_ack+0x4a4>
    c7f4:	e59f1208 	ldr	r1, [pc, #520]	; ca04 <staff_nrf_tx_send_ack+0x4a8>
    c7f8:	e59f0218 	ldr	r0, [pc, #536]	; ca18 <staff_nrf_tx_send_ack+0x4bc>
    c7fc:	eb0003e1 	bl	d788 <printk>
    c800:	eb0004e9 	bl	dbac <clean_reboot>
    c804:	e1a01004 	mov	r1, r4
    c808:	e59f01fc 	ldr	r0, [pc, #508]	; ca0c <staff_nrf_tx_send_ack+0x4b0>
    c80c:	ebfff09f 	bl	8a90 <nrf_dump>
    c810:	e59f321c 	ldr	r3, [pc, #540]	; ca34 <staff_nrf_tx_send_ack+0x4d8>
    c814:	e58d3000 	str	r3, [sp]
    c818:	e59f3218 	ldr	r3, [pc, #536]	; ca38 <staff_nrf_tx_send_ack+0x4dc>
    c81c:	e59f21dc 	ldr	r2, [pc, #476]	; ca00 <staff_nrf_tx_send_ack+0x4a4>
    c820:	e59f11dc 	ldr	r1, [pc, #476]	; ca04 <staff_nrf_tx_send_ack+0x4a8>
    c824:	e59f01ec 	ldr	r0, [pc, #492]	; ca18 <staff_nrf_tx_send_ack+0x4bc>
    c828:	eb0003d6 	bl	d788 <printk>
    c82c:	eb0004de 	bl	dbac <clean_reboot>
    c830:	e1a01004 	mov	r1, r4
    c834:	e59f01d0 	ldr	r0, [pc, #464]	; ca0c <staff_nrf_tx_send_ack+0x4b0>
    c838:	ebfff094 	bl	8a90 <nrf_dump>
    c83c:	e59f31f8 	ldr	r3, [pc, #504]	; ca3c <staff_nrf_tx_send_ack+0x4e0>
    c840:	e58d3000 	str	r3, [sp]
    c844:	e59f31f4 	ldr	r3, [pc, #500]	; ca40 <staff_nrf_tx_send_ack+0x4e4>
    c848:	e59f21b0 	ldr	r2, [pc, #432]	; ca00 <staff_nrf_tx_send_ack+0x4a4>
    c84c:	e59f11b0 	ldr	r1, [pc, #432]	; ca04 <staff_nrf_tx_send_ack+0x4a8>
    c850:	e59f01c0 	ldr	r0, [pc, #448]	; ca18 <staff_nrf_tx_send_ack+0x4bc>
    c854:	eb0003cb 	bl	d788 <printk>
    c858:	eb0004d3 	bl	dbac <clean_reboot>
    c85c:	e1a01004 	mov	r1, r4
    c860:	e59f01a4 	ldr	r0, [pc, #420]	; ca0c <staff_nrf_tx_send_ack+0x4b0>
    c864:	ebfff089 	bl	8a90 <nrf_dump>
    c868:	e59f31d4 	ldr	r3, [pc, #468]	; ca44 <staff_nrf_tx_send_ack+0x4e8>
    c86c:	e58d3000 	str	r3, [sp]
    c870:	e3a03f72 	mov	r3, #456	; 0x1c8
    c874:	e59f2184 	ldr	r2, [pc, #388]	; ca00 <staff_nrf_tx_send_ack+0x4a4>
    c878:	e59f1184 	ldr	r1, [pc, #388]	; ca04 <staff_nrf_tx_send_ack+0x4a8>
    c87c:	e59f0194 	ldr	r0, [pc, #404]	; ca18 <staff_nrf_tx_send_ack+0x4bc>
    c880:	eb0003c0 	bl	d788 <printk>
    c884:	eb0004c8 	bl	dbac <clean_reboot>
    c888:	e3a03f77 	mov	r3, #476	; 0x1dc
    c88c:	e59f216c 	ldr	r2, [pc, #364]	; ca00 <staff_nrf_tx_send_ack+0x4a4>
    c890:	e59f116c 	ldr	r1, [pc, #364]	; ca04 <staff_nrf_tx_send_ack+0x4a8>
    c894:	e59f01ac 	ldr	r0, [pc, #428]	; ca48 <staff_nrf_tx_send_ack+0x4ec>
    c898:	eb0003ba 	bl	d788 <printk>
    c89c:	eb0004c2 	bl	dbac <clean_reboot>
    c8a0:	e3a02003 	mov	r2, #3, 0
    c8a4:	e1a01005 	mov	r1, r5
    c8a8:	e59f019c 	ldr	r0, [pc, #412]	; ca4c <staff_nrf_tx_send_ack+0x4f0>
    c8ac:	eb0003b5 	bl	d788 <printk>
    c8b0:	eaffff67 	b	c654 <staff_nrf_tx_send_ack+0xf8>
    c8b4:	e59f3194 	ldr	r3, [pc, #404]	; ca50 <staff_nrf_tx_send_ack+0x4f4>
    c8b8:	e58d3000 	str	r3, [sp]
    c8bc:	e59f3190 	ldr	r3, [pc, #400]	; ca54 <staff_nrf_tx_send_ack+0x4f8>
    c8c0:	e59f2138 	ldr	r2, [pc, #312]	; ca00 <staff_nrf_tx_send_ack+0x4a4>
    c8c4:	e59f1138 	ldr	r1, [pc, #312]	; ca04 <staff_nrf_tx_send_ack+0x4a8>
    c8c8:	e59f0188 	ldr	r0, [pc, #392]	; ca58 <staff_nrf_tx_send_ack+0x4fc>
    c8cc:	eb0003ad 	bl	d788 <printk>
    c8d0:	eb0004b5 	bl	dbac <clean_reboot>
    c8d4:	e59f3180 	ldr	r3, [pc, #384]	; ca5c <staff_nrf_tx_send_ack+0x500>
    c8d8:	e58d3000 	str	r3, [sp]
    c8dc:	e59f317c 	ldr	r3, [pc, #380]	; ca60 <staff_nrf_tx_send_ack+0x504>
    c8e0:	e59f2118 	ldr	r2, [pc, #280]	; ca00 <staff_nrf_tx_send_ack+0x4a4>
    c8e4:	e59f1118 	ldr	r1, [pc, #280]	; ca04 <staff_nrf_tx_send_ack+0x4a8>
    c8e8:	e59f0168 	ldr	r0, [pc, #360]	; ca58 <staff_nrf_tx_send_ack+0x4fc>
    c8ec:	eb0003a5 	bl	d788 <printk>
    c8f0:	eb0004ad 	bl	dbac <clean_reboot>
    c8f4:	e3a02004 	mov	r2, #4, 0
    c8f8:	e3a01017 	mov	r1, #23, 0
    c8fc:	e1a00004 	mov	r0, r4
    c900:	ebffef90 	bl	8748 <nrf_bit_isset>
    c904:	e3500000 	cmp	r0, #0, 0
    c908:	0a000018 	beq	c970 <staff_nrf_tx_send_ack+0x414>
    c90c:	e3a02020 	mov	r2, #32, 0
    c910:	e3a01007 	mov	r1, #7, 0
    c914:	e1a00004 	mov	r0, r4
    c918:	ebffee7c 	bl	8310 <nrf_put8>
    c91c:	e3560000 	cmp	r6, #0, 0
    c920:	0a00001d 	beq	c99c <staff_nrf_tx_send_ack+0x440>
    c924:	e3a02000 	mov	r2, #0, 0
    c928:	e3a01017 	mov	r1, #23, 0
    c92c:	e1a00004 	mov	r0, r4
    c930:	ebffef84 	bl	8748 <nrf_bit_isset>
    c934:	e3500000 	cmp	r0, #0, 0
    c938:	0a000028 	beq	c9e0 <staff_nrf_tx_send_ack+0x484>
    c93c:	e3a01008 	mov	r1, #8, 0
    c940:	e1a00004 	mov	r0, r4
    c944:	ebffee5c 	bl	82bc <nrf_get8>
    c948:	e200000f 	and	r0, r0, #15, 0
    c94c:	e2842a02 	add	r2, r4, #8192	; 0x2000
    c950:	e5923048 	ldr	r3, [r2, #72]	; 0x48
    c954:	e0833000 	add	r3, r3, r0
    c958:	e5823048 	str	r3, [r2, #72]	; 0x48
    c95c:	e1a00004 	mov	r0, r4
    c960:	ebfffa5f 	bl	b2e4 <nrf_rx_mode>
    c964:	e1a00006 	mov	r0, r6
    c968:	e28dd00c 	add	sp, sp, #12, 0
    c96c:	e8bd80f0 	pop	{r4, r5, r6, r7, pc}
    c970:	e1a01004 	mov	r1, r4
    c974:	e59f0090 	ldr	r0, [pc, #144]	; ca0c <staff_nrf_tx_send_ack+0x4b0>
    c978:	ebfff044 	bl	8a90 <nrf_dump>
    c97c:	e59f30c0 	ldr	r3, [pc, #192]	; ca44 <staff_nrf_tx_send_ack+0x4e8>
    c980:	e58d3000 	str	r3, [sp]
    c984:	e59f30d8 	ldr	r3, [pc, #216]	; ca64 <staff_nrf_tx_send_ack+0x508>
    c988:	e59f2070 	ldr	r2, [pc, #112]	; ca00 <staff_nrf_tx_send_ack+0x4a4>
    c98c:	e59f1070 	ldr	r1, [pc, #112]	; ca04 <staff_nrf_tx_send_ack+0x4a8>
    c990:	e59f0080 	ldr	r0, [pc, #128]	; ca18 <staff_nrf_tx_send_ack+0x4bc>
    c994:	eb00037b 	bl	d788 <printk>
    c998:	eb000483 	bl	dbac <clean_reboot>
    c99c:	e59f30c4 	ldr	r3, [pc, #196]	; ca68 <staff_nrf_tx_send_ack+0x50c>
    c9a0:	e58d3000 	str	r3, [sp]
    c9a4:	e59f30c0 	ldr	r3, [pc, #192]	; ca6c <staff_nrf_tx_send_ack+0x510>
    c9a8:	e59f2050 	ldr	r2, [pc, #80]	; ca00 <staff_nrf_tx_send_ack+0x4a4>
    c9ac:	e59f1050 	ldr	r1, [pc, #80]	; ca04 <staff_nrf_tx_send_ack+0x4a8>
    c9b0:	e59f00a0 	ldr	r0, [pc, #160]	; ca58 <staff_nrf_tx_send_ack+0x4fc>
    c9b4:	eb000373 	bl	d788 <printk>
    c9b8:	eb00047b 	bl	dbac <clean_reboot>
    c9bc:	e1a01004 	mov	r1, r4
    c9c0:	e59f00a8 	ldr	r0, [pc, #168]	; ca70 <staff_nrf_tx_send_ack+0x514>
    c9c4:	ebfff031 	bl	8a90 <nrf_dump>
    c9c8:	e59f30a4 	ldr	r3, [pc, #164]	; ca74 <staff_nrf_tx_send_ack+0x518>
    c9cc:	e59f202c 	ldr	r2, [pc, #44]	; ca00 <staff_nrf_tx_send_ack+0x4a4>
    c9d0:	e59f102c 	ldr	r1, [pc, #44]	; ca04 <staff_nrf_tx_send_ack+0x4a8>
    c9d4:	e59f009c 	ldr	r0, [pc, #156]	; ca78 <staff_nrf_tx_send_ack+0x51c>
    c9d8:	eb00036a 	bl	d788 <printk>
    c9dc:	eb000472 	bl	dbac <clean_reboot>
    c9e0:	e59f3094 	ldr	r3, [pc, #148]	; ca7c <staff_nrf_tx_send_ack+0x520>
    c9e4:	e59f2014 	ldr	r2, [pc, #20]	; ca00 <staff_nrf_tx_send_ack+0x4a4>
    c9e8:	e59f1014 	ldr	r1, [pc, #20]	; ca04 <staff_nrf_tx_send_ack+0x4a8>
    c9ec:	e59f008c 	ldr	r0, [pc, #140]	; ca80 <staff_nrf_tx_send_ack+0x524>
    c9f0:	eb000364 	bl	d788 <printk>
    c9f4:	eaffffd0 	b	c93c <staff_nrf_tx_send_ack+0x3e0>
    c9f8:	0000f974 	.word	0x0000f974
    c9fc:	00000263 	.word	0x00000263
    ca00:	0000f260 	.word	0x0000f260
    ca04:	0000ee94 	.word	0x0000ee94
    ca08:	0000f170 	.word	0x0000f170
    ca0c:	0000e7cc 	.word	0x0000e7cc
    ca10:	0000ecf0 	.word	0x0000ecf0
    ca14:	000001ae 	.word	0x000001ae
    ca18:	0000e7e0 	.word	0x0000e7e0
    ca1c:	0000f0d0 	.word	0x0000f0d0
    ca20:	0000eca0 	.word	0x0000eca0
    ca24:	000001bd 	.word	0x000001bd
    ca28:	0000ebd8 	.word	0x0000ebd8
    ca2c:	0000eb84 	.word	0x0000eb84
    ca30:	000001c1 	.word	0x000001c1
    ca34:	0000ec0c 	.word	0x0000ec0c
    ca38:	000001c2 	.word	0x000001c2
    ca3c:	0000ebf4 	.word	0x0000ebf4
    ca40:	000001c3 	.word	0x000001c3
    ca44:	0000ec58 	.word	0x0000ec58
    ca48:	0000f0e8 	.word	0x0000f0e8
    ca4c:	0000f054 	.word	0x0000f054
    ca50:	0000f12c 	.word	0x0000f12c
    ca54:	000001f1 	.word	0x000001f1
    ca58:	0000e1c4 	.word	0x0000e1c4
    ca5c:	0000f134 	.word	0x0000f134
    ca60:	000001f2 	.word	0x000001f2
    ca64:	00000209 	.word	0x00000209
    ca68:	0000f36c 	.word	0x0000f36c
    ca6c:	0000020b 	.word	0x0000020b
    ca70:	0000f140 	.word	0x0000f140
    ca74:	0000023e 	.word	0x0000023e
    ca78:	0000f154 	.word	0x0000f154
    ca7c:	0000027e 	.word	0x0000027e
    ca80:	0000f194 	.word	0x0000f194

0000ca84 <new_cs>:
    ca84:	e3a00000 	mov	r0, #0, 0
    ca88:	e12fff1e 	bx	lr

0000ca8c <read_cs>:
    ca8c:	e92d4010 	push	{r4, lr}
    ca90:	ebffed65 	bl	802c <GET32>
    ca94:	e8bd8010 	pop	{r4, pc}

0000ca98 <start_transfer>:
    ca98:	e24dd010 	sub	sp, sp, #16, 0
    ca9c:	e92d4010 	push	{r4, lr}
    caa0:	e24dd008 	sub	sp, sp, #8, 0
    caa4:	e28dc00c 	add	ip, sp, #12, 0
    caa8:	e98c000f 	stmib	ip, {r0, r1, r2, r3}
    caac:	eb00047f 	bl	dcb0 <dev_barrier>
    cab0:	e59f306c 	ldr	r3, [pc, #108]	; cb24 <start_transfer+0x8c>
    cab4:	e5933000 	ldr	r3, [r3]
    cab8:	e3530000 	cmp	r3, #0, 0
    cabc:	1a000010 	bne	cb04 <start_transfer+0x6c>
    cac0:	e59f4060 	ldr	r4, [pc, #96]	; cb28 <start_transfer+0x90>
    cac4:	e1a00004 	mov	r0, r4
    cac8:	ebffffef 	bl	ca8c <read_cs>
    cacc:	e38000b0 	orr	r0, r0, #176, 0	; 0xb0
    cad0:	e59d1010 	ldr	r1, [sp, #16]
    cad4:	e2011003 	and	r1, r1, #3, 0
    cad8:	e3c00003 	bic	r0, r0, #3, 0
    cadc:	e1811000 	orr	r1, r1, r0
    cae0:	e1a00004 	mov	r0, r4
    cae4:	ebffed4e 	bl	8024 <PUT32>
    cae8:	eb000470 	bl	dcb0 <dev_barrier>
    caec:	e3a00003 	mov	r0, #3, 0
    caf0:	eb000468 	bl	dc98 <delay_cycles>
    caf4:	e28dd008 	add	sp, sp, #8, 0
    caf8:	e8bd4010 	pop	{r4, lr}
    cafc:	e28dd010 	add	sp, sp, #16, 0
    cb00:	e12fff1e 	bx	lr
    cb04:	e59d3010 	ldr	r3, [sp, #16]
    cb08:	e58d3000 	str	r3, [sp]
    cb0c:	e3a030f5 	mov	r3, #245, 0	; 0xf5
    cb10:	e59f2014 	ldr	r2, [pc, #20]	; cb2c <start_transfer+0x94>
    cb14:	e59f1014 	ldr	r1, [pc, #20]	; cb30 <start_transfer+0x98>
    cb18:	e59f0014 	ldr	r0, [pc, #20]	; cb34 <start_transfer+0x9c>
    cb1c:	eb000319 	bl	d788 <printk>
    cb20:	eaffffe6 	b	cac0 <start_transfer+0x28>
    cb24:	0000f978 	.word	0x0000f978
    cb28:	20204000 	.word	0x20204000
    cb2c:	0000f43c 	.word	0x0000f43c
    cb30:	0000f278 	.word	0x0000f278
    cb34:	0000f288 	.word	0x0000f288

0000cb38 <end_transfer>:
    cb38:	e24dd010 	sub	sp, sp, #16, 0
    cb3c:	e52de004 	push	{lr}		; (str lr, [sp, #-4]!)
    cb40:	e24dd00c 	sub	sp, sp, #12, 0
    cb44:	e28dc00c 	add	ip, sp, #12, 0
    cb48:	e98c000f 	stmib	ip, {r0, r1, r2, r3}
    cb4c:	e59f30c4 	ldr	r3, [pc, #196]	; cc18 <end_transfer+0xe0>
    cb50:	e5933000 	ldr	r3, [r3]
    cb54:	e3530000 	cmp	r3, #0, 0
    cb58:	1a000017 	bne	cbbc <end_transfer+0x84>
    cb5c:	e59f30b8 	ldr	r3, [pc, #184]	; cc1c <end_transfer+0xe4>
    cb60:	e5933000 	ldr	r3, [r3]
    cb64:	e3130801 	tst	r3, #65536	; 0x10000
    cb68:	0afffffb 	beq	cb5c <end_transfer+0x24>
    cb6c:	e59f30a4 	ldr	r3, [pc, #164]	; cc18 <end_transfer+0xe0>
    cb70:	e5933000 	ldr	r3, [r3]
    cb74:	e3530000 	cmp	r3, #0, 0
    cb78:	1a000016 	bne	cbd8 <end_transfer+0xa0>
    cb7c:	e59f0098 	ldr	r0, [pc, #152]	; cc1c <end_transfer+0xe4>
    cb80:	ebffffc1 	bl	ca8c <read_cs>
    cb84:	e3c01080 	bic	r1, r0, #128, 0	; 0x80
    cb88:	e2000003 	and	r0, r0, #3, 0
    cb8c:	e59d3010 	ldr	r3, [sp, #16]
    cb90:	e1500003 	cmp	r0, r3
    cb94:	1a000017 	bne	cbf8 <end_transfer+0xc0>
    cb98:	e59f007c 	ldr	r0, [pc, #124]	; cc1c <end_transfer+0xe4>
    cb9c:	ebffed20 	bl	8024 <PUT32>
    cba0:	eb000442 	bl	dcb0 <dev_barrier>
    cba4:	e3a00003 	mov	r0, #3, 0
    cba8:	eb00043a 	bl	dc98 <delay_cycles>
    cbac:	e28dd00c 	add	sp, sp, #12, 0
    cbb0:	e49de004 	pop	{lr}		; (ldr lr, [sp], #4)
    cbb4:	e28dd010 	add	sp, sp, #16, 0
    cbb8:	e12fff1e 	bx	lr
    cbbc:	e58d0000 	str	r0, [sp]
    cbc0:	e59f3058 	ldr	r3, [pc, #88]	; cc20 <end_transfer+0xe8>
    cbc4:	e59f2058 	ldr	r2, [pc, #88]	; cc24 <end_transfer+0xec>
    cbc8:	e59f1058 	ldr	r1, [pc, #88]	; cc28 <end_transfer+0xf0>
    cbcc:	e59f0058 	ldr	r0, [pc, #88]	; cc2c <end_transfer+0xf4>
    cbd0:	eb0002ec 	bl	d788 <printk>
    cbd4:	eaffffe0 	b	cb5c <end_transfer+0x24>
    cbd8:	e59d3010 	ldr	r3, [sp, #16]
    cbdc:	e58d3000 	str	r3, [sp]
    cbe0:	e3a03f47 	mov	r3, #284	; 0x11c
    cbe4:	e59f2038 	ldr	r2, [pc, #56]	; cc24 <end_transfer+0xec>
    cbe8:	e59f1038 	ldr	r1, [pc, #56]	; cc28 <end_transfer+0xf0>
    cbec:	e59f003c 	ldr	r0, [pc, #60]	; cc30 <end_transfer+0xf8>
    cbf0:	eb0002e4 	bl	d788 <printk>
    cbf4:	eaffffe0 	b	cb7c <end_transfer+0x44>
    cbf8:	e58d3004 	str	r3, [sp, #4]
    cbfc:	e58d0000 	str	r0, [sp]
    cc00:	e59f302c 	ldr	r3, [pc, #44]	; cc34 <end_transfer+0xfc>
    cc04:	e59f2018 	ldr	r2, [pc, #24]	; cc24 <end_transfer+0xec>
    cc08:	e59f1018 	ldr	r1, [pc, #24]	; cc28 <end_transfer+0xf0>
    cc0c:	e59f0024 	ldr	r0, [pc, #36]	; cc38 <end_transfer+0x100>
    cc10:	eb0002dc 	bl	d788 <printk>
    cc14:	eb0003e4 	bl	dbac <clean_reboot>
    cc18:	0000f978 	.word	0x0000f978
    cc1c:	20204000 	.word	0x20204000
    cc20:	00000119 	.word	0x00000119
    cc24:	0000f44c 	.word	0x0000f44c
    cc28:	0000f278 	.word	0x0000f278
    cc2c:	0000f2ac 	.word	0x0000f2ac
    cc30:	0000f2dc 	.word	0x0000f2dc
    cc34:	00000122 	.word	0x00000122
    cc38:	0000f2fc 	.word	0x0000f2fc

0000cc3c <move_data>:
    cc3c:	e92d41f0 	push	{r4, r5, r6, r7, r8, lr}
    cc40:	e24dd010 	sub	sp, sp, #16, 0
    cc44:	e1a08000 	mov	r8, r0
    cc48:	e1a06001 	mov	r6, r1
    cc4c:	e1a05002 	mov	r5, r2
    cc50:	e3520010 	cmp	r2, #16, 0
    cc54:	31a07002 	movcc	r7, r2
    cc58:	23a07010 	movcs	r7, #16, 0
    cc5c:	e3a04000 	mov	r4, #0, 0
    cc60:	ea000003 	b	cc74 <move_data+0x38>
    cc64:	e7d61004 	ldrb	r1, [r6, r4]
    cc68:	e59f00c4 	ldr	r0, [pc, #196]	; cd34 <move_data+0xf8>
    cc6c:	ebffecec 	bl	8024 <PUT32>
    cc70:	e2844001 	add	r4, r4, #1, 0
    cc74:	e1540007 	cmp	r4, r7
    cc78:	3afffff9 	bcc	cc64 <move_data+0x28>
    cc7c:	e3a07000 	mov	r7, #0, 0
    cc80:	ea00000d 	b	ccbc <move_data+0x80>
    cc84:	e7d61004 	ldrb	r1, [r6, r4]
    cc88:	e59f00a4 	ldr	r0, [pc, #164]	; cd34 <move_data+0xf8>
    cc8c:	ebffece4 	bl	8024 <PUT32>
    cc90:	e2844001 	add	r4, r4, #1, 0
    cc94:	e1540005 	cmp	r4, r5
    cc98:	2a000003 	bcs	ccac <move_data+0x70>
    cc9c:	e59f3094 	ldr	r3, [pc, #148]	; cd38 <move_data+0xfc>
    cca0:	e5933000 	ldr	r3, [r3]
    cca4:	e3130701 	tst	r3, #262144	; 0x40000
    cca8:	1afffff5 	bne	cc84 <move_data+0x48>
    ccac:	e59f3084 	ldr	r3, [pc, #132]	; cd38 <move_data+0xfc>
    ccb0:	e5933000 	ldr	r3, [r3]
    ccb4:	e3130802 	tst	r3, #131072	; 0x20000
    ccb8:	1a000007 	bne	ccdc <move_data+0xa0>
    ccbc:	e1570005 	cmp	r7, r5
    ccc0:	3afffff3 	bcc	cc94 <move_data+0x58>
    ccc4:	e1540005 	cmp	r4, r5
    ccc8:	1a000008 	bne	ccf0 <move_data+0xb4>
    cccc:	e1570005 	cmp	r7, r5
    ccd0:	1a00000f 	bne	cd14 <move_data+0xd8>
    ccd4:	e28dd010 	add	sp, sp, #16, 0
    ccd8:	e8bd81f0 	pop	{r4, r5, r6, r7, r8, pc}
    ccdc:	e59f0050 	ldr	r0, [pc, #80]	; cd34 <move_data+0xf8>
    cce0:	ebffecd1 	bl	802c <GET32>
    cce4:	e7c80007 	strb	r0, [r8, r7]
    cce8:	e2877001 	add	r7, r7, #1, 0
    ccec:	eafffff2 	b	ccbc <move_data+0x80>
    ccf0:	e58d5008 	str	r5, [sp, #8]
    ccf4:	e58d7004 	str	r7, [sp, #4]
    ccf8:	e58d4000 	str	r4, [sp]
    ccfc:	e59f3038 	ldr	r3, [pc, #56]	; cd3c <move_data+0x100>
    cd00:	e59f2038 	ldr	r2, [pc, #56]	; cd40 <move_data+0x104>
    cd04:	e59f1038 	ldr	r1, [pc, #56]	; cd44 <move_data+0x108>
    cd08:	e59f0038 	ldr	r0, [pc, #56]	; cd48 <move_data+0x10c>
    cd0c:	eb00029d 	bl	d788 <printk>
    cd10:	eb0003a5 	bl	dbac <clean_reboot>
    cd14:	e59f3030 	ldr	r3, [pc, #48]	; cd4c <move_data+0x110>
    cd18:	e58d3000 	str	r3, [sp]
    cd1c:	e3a03e1a 	mov	r3, #416	; 0x1a0
    cd20:	e59f2018 	ldr	r2, [pc, #24]	; cd40 <move_data+0x104>
    cd24:	e59f1018 	ldr	r1, [pc, #24]	; cd44 <move_data+0x108>
    cd28:	e59f0020 	ldr	r0, [pc, #32]	; cd50 <move_data+0x114>
    cd2c:	eb000295 	bl	d788 <printk>
    cd30:	eb00039d 	bl	dbac <clean_reboot>
    cd34:	20204004 	.word	0x20204004
    cd38:	20204000 	.word	0x20204000
    cd3c:	0000019e 	.word	0x0000019e
    cd40:	0000f45c 	.word	0x0000f45c
    cd44:	0000f278 	.word	0x0000f278
    cd48:	0000f334 	.word	0x0000f334
    cd4c:	0000f364 	.word	0x0000f364
    cd50:	0000e1c4 	.word	0x0000e1c4

0000cd54 <spi_set_verbose>:
    cd54:	e59f3004 	ldr	r3, [pc, #4]	; cd60 <spi_set_verbose+0xc>
    cd58:	e5830000 	str	r0, [r3]
    cd5c:	e12fff1e 	bx	lr
    cd60:	0000f978 	.word	0x0000f978

0000cd64 <spi_n_transfer>:
    cd64:	e24dd010 	sub	sp, sp, #16, 0
    cd68:	e92d4070 	push	{r4, r5, r6, lr}
    cd6c:	e24dd010 	sub	sp, sp, #16, 0
    cd70:	e28dc01c 	add	ip, sp, #28, 0
    cd74:	e98c000f 	stmib	ip, {r0, r1, r2, r3}
    cd78:	e59d6040 	ldr	r6, [sp, #64]	; 0x40
    cd7c:	e3560000 	cmp	r6, #0, 0
    cd80:	0a000013 	beq	cdd4 <spi_n_transfer+0x70>
    cd84:	e58d6008 	str	r6, [sp, #8]
    cd88:	e28d5030 	add	r5, sp, #48, 0	; 0x30
    cd8c:	e8950003 	ldm	r5, {r0, r1}
    cd90:	e88d0003 	stm	sp, {r0, r1}
    cd94:	e28d4020 	add	r4, sp, #32, 0
    cd98:	e894000f 	ldm	r4, {r0, r1, r2, r3}
    cd9c:	ebffff3d 	bl	ca98 <start_transfer>
    cda0:	e1a02006 	mov	r2, r6
    cda4:	e59d103c 	ldr	r1, [sp, #60]	; 0x3c
    cda8:	e59d0038 	ldr	r0, [sp, #56]	; 0x38
    cdac:	ebffffa2 	bl	cc3c <move_data>
    cdb0:	e8950003 	ldm	r5, {r0, r1}
    cdb4:	e88d0003 	stm	sp, {r0, r1}
    cdb8:	e894000f 	ldm	r4, {r0, r1, r2, r3}
    cdbc:	ebffff5d 	bl	cb38 <end_transfer>
    cdc0:	e3a00001 	mov	r0, #1, 0
    cdc4:	e28dd010 	add	sp, sp, #16, 0
    cdc8:	e8bd4070 	pop	{r4, r5, r6, lr}
    cdcc:	e28dd010 	add	sp, sp, #16, 0
    cdd0:	e12fff1e 	bx	lr
    cdd4:	e59f3018 	ldr	r3, [pc, #24]	; cdf4 <spi_n_transfer+0x90>
    cdd8:	e58d3000 	str	r3, [sp]
    cddc:	e59f3014 	ldr	r3, [pc, #20]	; cdf8 <spi_n_transfer+0x94>
    cde0:	e59f2014 	ldr	r2, [pc, #20]	; cdfc <spi_n_transfer+0x98>
    cde4:	e59f1014 	ldr	r1, [pc, #20]	; ce00 <spi_n_transfer+0x9c>
    cde8:	e59f0014 	ldr	r0, [pc, #20]	; ce04 <spi_n_transfer+0xa0>
    cdec:	eb000265 	bl	d788 <printk>
    cdf0:	eb00036d 	bl	dbac <clean_reboot>
    cdf4:	0000f36c 	.word	0x0000f36c
    cdf8:	000001c3 	.word	0x000001c3
    cdfc:	0000f468 	.word	0x0000f468
    ce00:	0000f278 	.word	0x0000f278
    ce04:	0000e1c4 	.word	0x0000e1c4

0000ce08 <spi_n_init>:
    ce08:	e92d40f0 	push	{r4, r5, r6, r7, lr}
    ce0c:	e24dd014 	sub	sp, sp, #20, 0
    ce10:	e1a04000 	mov	r4, r0
    ce14:	e1a05001 	mov	r5, r1
    ce18:	e1a06002 	mov	r6, r2
    ce1c:	e59f3168 	ldr	r3, [pc, #360]	; cf8c <spi_n_init+0x184>
    ce20:	e5933004 	ldr	r3, [r3, #4]
    ce24:	e3530000 	cmp	r3, #0, 0
    ce28:	1a00002b 	bne	cedc <spi_n_init+0xd4>
    ce2c:	e59f3158 	ldr	r3, [pc, #344]	; cf8c <spi_n_init+0x184>
    ce30:	e5832004 	str	r2, [r3, #4]
    ce34:	eb00039d 	bl	dcb0 <dev_barrier>
    ce38:	e3550000 	cmp	r5, #0, 0
    ce3c:	0a000030 	beq	cf04 <spi_n_init+0xfc>
    ce40:	e3550001 	cmp	r5, #1, 0
    ce44:	1a000032 	bne	cf14 <spi_n_init+0x10c>
    ce48:	e3a01004 	mov	r1, #4, 0
    ce4c:	e3a00007 	mov	r0, #7, 0
    ce50:	eb0001b4 	bl	d528 <gpio_set_function>
    ce54:	e59f3130 	ldr	r3, [pc, #304]	; cf8c <spi_n_init+0x184>
    ce58:	e5933008 	ldr	r3, [r3, #8]
    ce5c:	e3530000 	cmp	r3, #0, 0
    ce60:	0a000032 	beq	cf30 <spi_n_init+0x128>
    ce64:	eb000391 	bl	dcb0 <dev_barrier>
    ce68:	ebffff05 	bl	ca84 <new_cs>
    ce6c:	e2051003 	and	r1, r5, #3, 0
    ce70:	e3c00003 	bic	r0, r0, #3, 0
    ce74:	e1811000 	orr	r1, r1, r0
    ce78:	e59f7110 	ldr	r7, [pc, #272]	; cf90 <spi_n_init+0x188>
    ce7c:	e3811030 	orr	r1, r1, #48, 0	; 0x30
    ce80:	e1a00007 	mov	r0, r7
    ce84:	ebffec66 	bl	8024 <PUT32>
    ce88:	eb000388 	bl	dcb0 <dev_barrier>
    ce8c:	e1a00007 	mov	r0, r7
    ce90:	ebfffefd 	bl	ca8c <read_cs>
    ce94:	e2000003 	and	r0, r0, #3, 0
    ce98:	e1500005 	cmp	r0, r5
    ce9c:	1a000030 	bne	cf64 <spi_n_init+0x15c>
    cea0:	e1a01006 	mov	r1, r6
    cea4:	e59f00e8 	ldr	r0, [pc, #232]	; cf94 <spi_n_init+0x18c>
    cea8:	ebffec5d 	bl	8024 <PUT32>
    ceac:	eb00037f 	bl	dcb0 <dev_barrier>
    ceb0:	e3a03000 	mov	r3, #0, 0
    ceb4:	e5843000 	str	r3, [r4]
    ceb8:	e5843004 	str	r3, [r4, #4]
    cebc:	e5843008 	str	r3, [r4, #8]
    cec0:	e584300c 	str	r3, [r4, #12]
    cec4:	e5843010 	str	r3, [r4, #16]
    cec8:	e5843014 	str	r3, [r4, #20]
    cecc:	e5845000 	str	r5, [r4]
    ced0:	e1a00004 	mov	r0, r4
    ced4:	e28dd014 	add	sp, sp, #20, 0
    ced8:	e8bd80f0 	pop	{r4, r5, r6, r7, pc}
    cedc:	e1530002 	cmp	r3, r2
    cee0:	0affffd3 	beq	ce34 <spi_n_init+0x2c>
    cee4:	e58d2004 	str	r2, [sp, #4]
    cee8:	e58d3000 	str	r3, [sp]
    ceec:	e59f30a4 	ldr	r3, [pc, #164]	; cf98 <spi_n_init+0x190>
    cef0:	e59f20a4 	ldr	r2, [pc, #164]	; cf9c <spi_n_init+0x194>
    cef4:	e59f10a4 	ldr	r1, [pc, #164]	; cfa0 <spi_n_init+0x198>
    cef8:	e59f00a4 	ldr	r0, [pc, #164]	; cfa4 <spi_n_init+0x19c>
    cefc:	eb000221 	bl	d788 <printk>
    cf00:	eb000329 	bl	dbac <clean_reboot>
    cf04:	e3a01004 	mov	r1, #4, 0
    cf08:	e3a00008 	mov	r0, #8, 0
    cf0c:	eb000185 	bl	d528 <gpio_set_function>
    cf10:	eaffffcf 	b	ce54 <spi_n_init+0x4c>
    cf14:	e58d5000 	str	r5, [sp]
    cf18:	e59f3088 	ldr	r3, [pc, #136]	; cfa8 <spi_n_init+0x1a0>
    cf1c:	e59f2078 	ldr	r2, [pc, #120]	; cf9c <spi_n_init+0x194>
    cf20:	e59f1078 	ldr	r1, [pc, #120]	; cfa0 <spi_n_init+0x198>
    cf24:	e59f0080 	ldr	r0, [pc, #128]	; cfac <spi_n_init+0x1a4>
    cf28:	eb000216 	bl	d788 <printk>
    cf2c:	eb00031e 	bl	dbac <clean_reboot>
    cf30:	e59f3054 	ldr	r3, [pc, #84]	; cf8c <spi_n_init+0x184>
    cf34:	e3a02001 	mov	r2, #1, 0
    cf38:	e5832008 	str	r2, [r3, #8]
    cf3c:	e3a01004 	mov	r1, #4, 0
    cf40:	e3a00009 	mov	r0, #9, 0
    cf44:	eb000177 	bl	d528 <gpio_set_function>
    cf48:	e3a01004 	mov	r1, #4, 0
    cf4c:	e3a0000a 	mov	r0, #10, 0
    cf50:	eb000174 	bl	d528 <gpio_set_function>
    cf54:	e3a01004 	mov	r1, #4, 0
    cf58:	e3a0000b 	mov	r0, #11, 0
    cf5c:	eb000171 	bl	d528 <gpio_set_function>
    cf60:	eaffffbf 	b	ce64 <spi_n_init+0x5c>
    cf64:	e58d0008 	str	r0, [sp, #8]
    cf68:	e58d5004 	str	r5, [sp, #4]
    cf6c:	e59f303c 	ldr	r3, [pc, #60]	; cfb0 <spi_n_init+0x1a8>
    cf70:	e58d3000 	str	r3, [sp]
    cf74:	e3a03f8e 	mov	r3, #568	; 0x238
    cf78:	e59f201c 	ldr	r2, [pc, #28]	; cf9c <spi_n_init+0x194>
    cf7c:	e59f101c 	ldr	r1, [pc, #28]	; cfa0 <spi_n_init+0x198>
    cf80:	e59f002c 	ldr	r0, [pc, #44]	; cfb4 <spi_n_init+0x1ac>
    cf84:	eb0001ff 	bl	d788 <printk>
    cf88:	eb000307 	bl	dbac <clean_reboot>
    cf8c:	0000f978 	.word	0x0000f978
    cf90:	20204000 	.word	0x20204000
    cf94:	20204008 	.word	0x20204008
    cf98:	00000213 	.word	0x00000213
    cf9c:	0000f478 	.word	0x0000f478
    cfa0:	0000f278 	.word	0x0000f278
    cfa4:	0000f374 	.word	0x0000f374
    cfa8:	00000222 	.word	0x00000222
    cfac:	0000f3c4 	.word	0x0000f3c4
    cfb0:	0000f42c 	.word	0x0000f42c
    cfb4:	0000f3ec 	.word	0x0000f3ec

0000cfb8 <kmalloc_heap_end>:
    cfb8:	e59f3004 	ldr	r3, [pc, #4]	; cfc4 <kmalloc_heap_end+0xc>
    cfbc:	e5930000 	ldr	r0, [r3]
    cfc0:	e12fff1e 	bx	lr
    cfc4:	0000f984 	.word	0x0000f984

0000cfc8 <kmalloc_heap_start>:
    cfc8:	e59f3004 	ldr	r3, [pc, #4]	; cfd4 <kmalloc_heap_start+0xc>
    cfcc:	e5930004 	ldr	r0, [r3, #4]
    cfd0:	e12fff1e 	bx	lr
    cfd4:	0000f984 	.word	0x0000f984

0000cfd8 <kmalloc_heap_ptr>:
    cfd8:	e59f3004 	ldr	r3, [pc, #4]	; cfe4 <kmalloc_heap_ptr+0xc>
    cfdc:	e5930008 	ldr	r0, [r3, #8]
    cfe0:	e12fff1e 	bx	lr
    cfe4:	0000f984 	.word	0x0000f984

0000cfe8 <kmalloc_init_set_start>:
    cfe8:	e92d4030 	push	{r4, r5, lr}
    cfec:	e24dd00c 	sub	sp, sp, #12, 0
    cff0:	e1a04000 	mov	r4, r0
    cff4:	e1a05001 	mov	r5, r1
    cff8:	eb0002f3 	bl	dbcc <program_end>
    cffc:	e1540000 	cmp	r4, r0
    d000:	3a000010 	bcc	d048 <kmalloc_init_set_start+0x60>
    d004:	e3550000 	cmp	r5, #0, 0
    d008:	0a000014 	beq	d060 <kmalloc_init_set_start+0x78>
    d00c:	e59f30ac 	ldr	r3, [pc, #172]	; d0c0 <kmalloc_init_set_start+0xd8>
    d010:	e5933004 	ldr	r3, [r3, #4]
    d014:	e1530004 	cmp	r3, r4
    d018:	8a000018 	bhi	d080 <kmalloc_init_set_start+0x98>
    d01c:	e59f309c 	ldr	r3, [pc, #156]	; d0c0 <kmalloc_init_set_start+0xd8>
    d020:	e5933008 	ldr	r3, [r3, #8]
    d024:	e1530004 	cmp	r3, r4
    d028:	8a00001a 	bhi	d098 <kmalloc_init_set_start+0xb0>
    d02c:	e59f308c 	ldr	r3, [pc, #140]	; d0c0 <kmalloc_init_set_start+0xd8>
    d030:	e5834008 	str	r4, [r3, #8]
    d034:	e5834004 	str	r4, [r3, #4]
    d038:	e0844005 	add	r4, r4, r5
    d03c:	e5834000 	str	r4, [r3]
    d040:	e28dd00c 	add	sp, sp, #12, 0
    d044:	e8bd8030 	pop	{r4, r5, pc}
    d048:	e3a03030 	mov	r3, #48, 0	; 0x30
    d04c:	e59f2070 	ldr	r2, [pc, #112]	; d0c4 <kmalloc_init_set_start+0xdc>
    d050:	e59f1070 	ldr	r1, [pc, #112]	; d0c8 <kmalloc_init_set_start+0xe0>
    d054:	e59f0070 	ldr	r0, [pc, #112]	; d0cc <kmalloc_init_set_start+0xe4>
    d058:	eb0001ca 	bl	d788 <printk>
    d05c:	eb0002d2 	bl	dbac <clean_reboot>
    d060:	e59f3068 	ldr	r3, [pc, #104]	; d0d0 <kmalloc_init_set_start+0xe8>
    d064:	e58d3000 	str	r3, [sp]
    d068:	e3a03032 	mov	r3, #50, 0	; 0x32
    d06c:	e59f2050 	ldr	r2, [pc, #80]	; d0c4 <kmalloc_init_set_start+0xdc>
    d070:	e59f1050 	ldr	r1, [pc, #80]	; d0c8 <kmalloc_init_set_start+0xe0>
    d074:	e59f0058 	ldr	r0, [pc, #88]	; d0d4 <kmalloc_init_set_start+0xec>
    d078:	eb0001c2 	bl	d788 <printk>
    d07c:	eb0002ca 	bl	dbac <clean_reboot>
    d080:	e3a03034 	mov	r3, #52, 0	; 0x34
    d084:	e59f2038 	ldr	r2, [pc, #56]	; d0c4 <kmalloc_init_set_start+0xdc>
    d088:	e59f1038 	ldr	r1, [pc, #56]	; d0c8 <kmalloc_init_set_start+0xe0>
    d08c:	e59f0044 	ldr	r0, [pc, #68]	; d0d8 <kmalloc_init_set_start+0xf0>
    d090:	eb0001bc 	bl	d788 <printk>
    d094:	eb0002c4 	bl	dbac <clean_reboot>
    d098:	e59f3020 	ldr	r3, [pc, #32]	; d0c0 <kmalloc_init_set_start+0xd8>
    d09c:	e5933000 	ldr	r3, [r3]
    d0a0:	e58d3004 	str	r3, [sp, #4]
    d0a4:	e58d4000 	str	r4, [sp]
    d0a8:	e3a03038 	mov	r3, #56, 0	; 0x38
    d0ac:	e59f2010 	ldr	r2, [pc, #16]	; d0c4 <kmalloc_init_set_start+0xdc>
    d0b0:	e59f1010 	ldr	r1, [pc, #16]	; d0c8 <kmalloc_init_set_start+0xe0>
    d0b4:	e59f0020 	ldr	r0, [pc, #32]	; d0dc <kmalloc_init_set_start+0xf4>
    d0b8:	eb0001b2 	bl	d788 <printk>
    d0bc:	eb0002ba 	bl	dbac <clean_reboot>
    d0c0:	0000f984 	.word	0x0000f984
    d0c4:	0000f694 	.word	0x0000f694
    d0c8:	0000f484 	.word	0x0000f484
    d0cc:	0000f490 	.word	0x0000f490
    d0d0:	0000f4b8 	.word	0x0000f4b8
    d0d4:	0000e1c4 	.word	0x0000e1c4
    d0d8:	0000f4c4 	.word	0x0000f4c4
    d0dc:	0000f510 	.word	0x0000f510

0000d0e0 <kmalloc_notzero>:
    d0e0:	e52de004 	push	{lr}		; (str lr, [sp, #-4]!)
    d0e4:	e24dd00c 	sub	sp, sp, #12, 0
    d0e8:	e3500000 	cmp	r0, #0, 0
    d0ec:	0a00000f 	beq	d130 <kmalloc_notzero+0x50>
    d0f0:	e2800007 	add	r0, r0, #7, 0
    d0f4:	e3c03007 	bic	r3, r0, #7, 0
    d0f8:	e59f20ac 	ldr	r2, [pc, #172]	; d1ac <kmalloc_notzero+0xcc>
    d0fc:	e5920008 	ldr	r0, [r2, #8]
    d100:	e3100007 	tst	r0, #7, 0
    d104:	1a000011 	bne	d150 <kmalloc_notzero+0x70>
    d108:	e3500000 	cmp	r0, #0, 0
    d10c:	0a000017 	beq	d170 <kmalloc_notzero+0x90>
    d110:	e0802003 	add	r2, r0, r3
    d114:	e59f1090 	ldr	r1, [pc, #144]	; d1ac <kmalloc_notzero+0xcc>
    d118:	e5812008 	str	r2, [r1, #8]
    d11c:	e5911000 	ldr	r1, [r1]
    d120:	e1520001 	cmp	r2, r1
    d124:	8a000017 	bhi	d188 <kmalloc_notzero+0xa8>
    d128:	e28dd00c 	add	sp, sp, #12, 0
    d12c:	e49df004 	pop	{pc}		; (ldr pc, [sp], #4)
    d130:	e59f3078 	ldr	r3, [pc, #120]	; d1b0 <kmalloc_notzero+0xd0>
    d134:	e58d3000 	str	r3, [sp]
    d138:	e3a03041 	mov	r3, #65, 0	; 0x41
    d13c:	e59f2070 	ldr	r2, [pc, #112]	; d1b4 <kmalloc_notzero+0xd4>
    d140:	e59f1070 	ldr	r1, [pc, #112]	; d1b8 <kmalloc_notzero+0xd8>
    d144:	e59f0070 	ldr	r0, [pc, #112]	; d1bc <kmalloc_notzero+0xdc>
    d148:	eb00018e 	bl	d788 <printk>
    d14c:	eb000296 	bl	dbac <clean_reboot>
    d150:	e59f3068 	ldr	r3, [pc, #104]	; d1c0 <kmalloc_notzero+0xe0>
    d154:	e58d3000 	str	r3, [sp]
    d158:	e3a03044 	mov	r3, #68, 0	; 0x44
    d15c:	e59f2050 	ldr	r2, [pc, #80]	; d1b4 <kmalloc_notzero+0xd4>
    d160:	e59f1050 	ldr	r1, [pc, #80]	; d1b8 <kmalloc_notzero+0xd8>
    d164:	e59f0050 	ldr	r0, [pc, #80]	; d1bc <kmalloc_notzero+0xdc>
    d168:	eb000186 	bl	d788 <printk>
    d16c:	eb00028e 	bl	dbac <clean_reboot>
    d170:	e3a03048 	mov	r3, #72, 0	; 0x48
    d174:	e59f2038 	ldr	r2, [pc, #56]	; d1b4 <kmalloc_notzero+0xd4>
    d178:	e59f1038 	ldr	r1, [pc, #56]	; d1b8 <kmalloc_notzero+0xd8>
    d17c:	e59f0040 	ldr	r0, [pc, #64]	; d1c4 <kmalloc_notzero+0xe4>
    d180:	eb000180 	bl	d788 <printk>
    d184:	eb000288 	bl	dbac <clean_reboot>
    d188:	e0422001 	sub	r2, r2, r1
    d18c:	e58d2004 	str	r2, [sp, #4]
    d190:	e58d3000 	str	r3, [sp]
    d194:	e3a0304c 	mov	r3, #76, 0	; 0x4c
    d198:	e59f2014 	ldr	r2, [pc, #20]	; d1b4 <kmalloc_notzero+0xd4>
    d19c:	e59f1014 	ldr	r1, [pc, #20]	; d1b8 <kmalloc_notzero+0xd8>
    d1a0:	e59f0020 	ldr	r0, [pc, #32]	; d1c8 <kmalloc_notzero+0xe8>
    d1a4:	eb000177 	bl	d788 <printk>
    d1a8:	eb00027f 	bl	dbac <clean_reboot>
    d1ac:	0000f984 	.word	0x0000f984
    d1b0:	0000f36c 	.word	0x0000f36c
    d1b4:	0000f6ac 	.word	0x0000f6ac
    d1b8:	0000f484 	.word	0x0000f484
    d1bc:	0000e1c4 	.word	0x0000e1c4
    d1c0:	0000f554 	.word	0x0000f554
    d1c4:	0000f56c 	.word	0x0000f56c
    d1c8:	0000f598 	.word	0x0000f598

0000d1cc <kmalloc>:
    d1cc:	e92d4030 	push	{r4, r5, lr}
    d1d0:	e24dd00c 	sub	sp, sp, #12, 0
    d1d4:	e2504000 	subs	r4, r0, #0, 0
    d1d8:	0a000008 	beq	d200 <kmalloc+0x34>
    d1dc:	e1a00004 	mov	r0, r4
    d1e0:	ebffffbe 	bl	d0e0 <kmalloc_notzero>
    d1e4:	e1a05000 	mov	r5, r0
    d1e8:	e1a02004 	mov	r2, r4
    d1ec:	e3a01000 	mov	r1, #0, 0
    d1f0:	eb00013c 	bl	d6e8 <memset>
    d1f4:	e1a00005 	mov	r0, r5
    d1f8:	e28dd00c 	add	sp, sp, #12, 0
    d1fc:	e8bd8030 	pop	{r4, r5, pc}
    d200:	e59f3018 	ldr	r3, [pc, #24]	; d220 <kmalloc+0x54>
    d204:	e58d3000 	str	r3, [sp]
    d208:	e3a03054 	mov	r3, #84, 0	; 0x54
    d20c:	e59f2010 	ldr	r2, [pc, #16]	; d224 <kmalloc+0x58>
    d210:	e59f1010 	ldr	r1, [pc, #16]	; d228 <kmalloc+0x5c>
    d214:	e59f0010 	ldr	r0, [pc, #16]	; d22c <kmalloc+0x60>
    d218:	eb00015a 	bl	d788 <printk>
    d21c:	eb000262 	bl	dbac <clean_reboot>
    d220:	0000f36c 	.word	0x0000f36c
    d224:	0000f6bc 	.word	0x0000f6bc
    d228:	0000f484 	.word	0x0000f484
    d22c:	0000e1c4 	.word	0x0000e1c4

0000d230 <kmalloc_aligned>:
    d230:	e52de004 	push	{lr}		; (str lr, [sp, #-4]!)
    d234:	e24dd00c 	sub	sp, sp, #12, 0
    d238:	e3500000 	cmp	r0, #0, 0
    d23c:	0a000014 	beq	d294 <kmalloc_aligned+0x64>
    d240:	e2613000 	rsb	r3, r1, #0, 0
    d244:	e1d13003 	bics	r3, r1, r3
    d248:	1a000019 	bne	d2b4 <kmalloc_aligned+0x84>
    d24c:	e3510008 	cmp	r1, #8, 0
    d250:	33a01008 	movcc	r1, #8, 0
    d254:	e59f30b8 	ldr	r3, [pc, #184]	; d314 <kmalloc_aligned+0xe4>
    d258:	e5932008 	ldr	r2, [r3, #8]
    d25c:	e2613000 	rsb	r3, r1, #0, 0
    d260:	e1d1c003 	bics	ip, r1, r3
    d264:	1a00001a 	bne	d2d4 <kmalloc_aligned+0xa4>
    d268:	e0822001 	add	r2, r2, r1
    d26c:	e2422001 	sub	r2, r2, #1, 0
    d270:	e0033002 	and	r3, r3, r2
    d274:	e2411001 	sub	r1, r1, #1, 0
    d278:	e1110003 	tst	r1, r3
    d27c:	1a00001c 	bne	d2f4 <kmalloc_aligned+0xc4>
    d280:	e59f208c 	ldr	r2, [pc, #140]	; d314 <kmalloc_aligned+0xe4>
    d284:	e5823008 	str	r3, [r2, #8]
    d288:	ebffffcf 	bl	d1cc <kmalloc>
    d28c:	e28dd00c 	add	sp, sp, #12, 0
    d290:	e49df004 	pop	{pc}		; (ldr pc, [sp], #4)
    d294:	e59f307c 	ldr	r3, [pc, #124]	; d318 <kmalloc_aligned+0xe8>
    d298:	e58d3000 	str	r3, [sp]
    d29c:	e3a0305e 	mov	r3, #94, 0	; 0x5e
    d2a0:	e59f2074 	ldr	r2, [pc, #116]	; d31c <kmalloc_aligned+0xec>
    d2a4:	e59f1074 	ldr	r1, [pc, #116]	; d320 <kmalloc_aligned+0xf0>
    d2a8:	e59f0074 	ldr	r0, [pc, #116]	; d324 <kmalloc_aligned+0xf4>
    d2ac:	eb000135 	bl	d788 <printk>
    d2b0:	eb00023d 	bl	dbac <clean_reboot>
    d2b4:	e59f306c 	ldr	r3, [pc, #108]	; d328 <kmalloc_aligned+0xf8>
    d2b8:	e58d3000 	str	r3, [sp]
    d2bc:	e3a0305f 	mov	r3, #95, 0	; 0x5f
    d2c0:	e59f2054 	ldr	r2, [pc, #84]	; d31c <kmalloc_aligned+0xec>
    d2c4:	e59f1054 	ldr	r1, [pc, #84]	; d320 <kmalloc_aligned+0xf0>
    d2c8:	e59f005c 	ldr	r0, [pc, #92]	; d32c <kmalloc_aligned+0xfc>
    d2cc:	eb00012d 	bl	d788 <printk>
    d2d0:	eb000235 	bl	dbac <clean_reboot>
    d2d4:	e59f3054 	ldr	r3, [pc, #84]	; d330 <kmalloc_aligned+0x100>
    d2d8:	e58d3000 	str	r3, [sp]
    d2dc:	e3a03011 	mov	r3, #17, 0
    d2e0:	e59f204c 	ldr	r2, [pc, #76]	; d334 <kmalloc_aligned+0x104>
    d2e4:	e59f1034 	ldr	r1, [pc, #52]	; d320 <kmalloc_aligned+0xf0>
    d2e8:	e59f0034 	ldr	r0, [pc, #52]	; d324 <kmalloc_aligned+0xf4>
    d2ec:	eb000125 	bl	d788 <printk>
    d2f0:	eb00022d 	bl	dbac <clean_reboot>
    d2f4:	e59f303c 	ldr	r3, [pc, #60]	; d338 <kmalloc_aligned+0x108>
    d2f8:	e58d3000 	str	r3, [sp]
    d2fc:	e3a03066 	mov	r3, #102, 0	; 0x66
    d300:	e59f2014 	ldr	r2, [pc, #20]	; d31c <kmalloc_aligned+0xec>
    d304:	e59f1014 	ldr	r1, [pc, #20]	; d320 <kmalloc_aligned+0xf0>
    d308:	e59f002c 	ldr	r0, [pc, #44]	; d33c <kmalloc_aligned+0x10c>
    d30c:	eb00011d 	bl	d788 <printk>
    d310:	eb000225 	bl	dbac <clean_reboot>
    d314:	0000f984 	.word	0x0000f984
    d318:	0000f36c 	.word	0x0000f36c
    d31c:	0000f6c4 	.word	0x0000f6c4
    d320:	0000f484 	.word	0x0000f484
    d324:	0000e1c4 	.word	0x0000e1c4
    d328:	0000f620 	.word	0x0000f620
    d32c:	0000f5e0 	.word	0x0000f5e0
    d330:	0000f634 	.word	0x0000f634
    d334:	0000f6d4 	.word	0x0000f6d4
    d338:	0000f678 	.word	0x0000f678
    d33c:	0000f640 	.word	0x0000f640

0000d340 <kfree_all>:
    d340:	e59f3008 	ldr	r3, [pc, #8]	; d350 <kfree_all+0x10>
    d344:	e5932004 	ldr	r2, [r3, #4]
    d348:	e5832008 	str	r2, [r3, #8]
    d34c:	e12fff1e 	bx	lr
    d350:	0000f984 	.word	0x0000f984

0000d354 <__udivsi3>:
    d354:	e2512001 	subs	r2, r1, #1, 0
    d358:	012fff1e 	bxeq	lr
    d35c:	3a000036 	bcc	d43c <__udivsi3+0xe8>
    d360:	e1500001 	cmp	r0, r1
    d364:	9a000022 	bls	d3f4 <__udivsi3+0xa0>
    d368:	e1110002 	tst	r1, r2
    d36c:	0a000023 	beq	d400 <__udivsi3+0xac>
    d370:	e311020e 	tst	r1, #-536870912	; 0xe0000000
    d374:	01a01181 	lsleq	r1, r1, #3
    d378:	03a03008 	moveq	r3, #8, 0
    d37c:	13a03001 	movne	r3, #1, 0
    d380:	e3510201 	cmp	r1, #268435456	; 0x10000000
    d384:	31510000 	cmpcc	r1, r0
    d388:	31a01201 	lslcc	r1, r1, #4
    d38c:	31a03203 	lslcc	r3, r3, #4
    d390:	3afffffa 	bcc	d380 <__udivsi3+0x2c>
    d394:	e3510102 	cmp	r1, #-2147483648	; 0x80000000
    d398:	31510000 	cmpcc	r1, r0
    d39c:	31a01081 	lslcc	r1, r1, #1
    d3a0:	31a03083 	lslcc	r3, r3, #1
    d3a4:	3afffffa 	bcc	d394 <__udivsi3+0x40>
    d3a8:	e3a02000 	mov	r2, #0, 0
    d3ac:	e1500001 	cmp	r0, r1
    d3b0:	20400001 	subcs	r0, r0, r1
    d3b4:	21822003 	orrcs	r2, r2, r3
    d3b8:	e15000a1 	cmp	r0, r1, lsr #1
    d3bc:	204000a1 	subcs	r0, r0, r1, lsr #1
    d3c0:	218220a3 	orrcs	r2, r2, r3, lsr #1
    d3c4:	e1500121 	cmp	r0, r1, lsr #2
    d3c8:	20400121 	subcs	r0, r0, r1, lsr #2
    d3cc:	21822123 	orrcs	r2, r2, r3, lsr #2
    d3d0:	e15001a1 	cmp	r0, r1, lsr #3
    d3d4:	204001a1 	subcs	r0, r0, r1, lsr #3
    d3d8:	218221a3 	orrcs	r2, r2, r3, lsr #3
    d3dc:	e3500000 	cmp	r0, #0, 0
    d3e0:	11b03223 	lsrsne	r3, r3, #4
    d3e4:	11a01221 	lsrne	r1, r1, #4
    d3e8:	1affffef 	bne	d3ac <__udivsi3+0x58>
    d3ec:	e1a00002 	mov	r0, r2
    d3f0:	e12fff1e 	bx	lr
    d3f4:	03a00001 	moveq	r0, #1, 0
    d3f8:	13a00000 	movne	r0, #0, 0
    d3fc:	e12fff1e 	bx	lr
    d400:	e3510801 	cmp	r1, #65536	; 0x10000
    d404:	21a01821 	lsrcs	r1, r1, #16
    d408:	23a02010 	movcs	r2, #16, 0
    d40c:	33a02000 	movcc	r2, #0, 0
    d410:	e3510c01 	cmp	r1, #256	; 0x100
    d414:	21a01421 	lsrcs	r1, r1, #8
    d418:	22822008 	addcs	r2, r2, #8, 0
    d41c:	e3510010 	cmp	r1, #16, 0
    d420:	21a01221 	lsrcs	r1, r1, #4
    d424:	22822004 	addcs	r2, r2, #4, 0
    d428:	e3510004 	cmp	r1, #4, 0
    d42c:	82822003 	addhi	r2, r2, #3, 0
    d430:	908220a1 	addls	r2, r2, r1, lsr #1
    d434:	e1a00230 	lsr	r0, r0, r2
    d438:	e12fff1e 	bx	lr
    d43c:	e3500000 	cmp	r0, #0, 0
    d440:	13e00000 	mvnne	r0, #0, 0
    d444:	ea000007 	b	d468 <__aeabi_idiv0>

0000d448 <__aeabi_uidivmod>:
    d448:	e3510000 	cmp	r1, #0, 0
    d44c:	0afffffa 	beq	d43c <__udivsi3+0xe8>
    d450:	e92d4003 	push	{r0, r1, lr}
    d454:	ebffffbe 	bl	d354 <__udivsi3>
    d458:	e8bd4006 	pop	{r1, r2, lr}
    d45c:	e0030092 	mul	r3, r2, r0
    d460:	e0411003 	sub	r1, r1, r3
    d464:	e12fff1e 	bx	lr

0000d468 <__aeabi_idiv0>:
    d468:	e12fff1e 	bx	lr

0000d46c <gpio_set_on>:
    d46c:	e350002f 	cmp	r0, #47, 0	; 0x2f
    d470:	1350001f 	cmpne	r0, #31, 0
    d474:	812fff1e 	bxhi	lr
    d478:	e92d4010 	push	{r4, lr}
    d47c:	e59f3018 	ldr	r3, [pc, #24]	; d49c <gpio_set_on+0x30>
    d480:	e08332a0 	add	r3, r3, r0, lsr #5
    d484:	e200001f 	and	r0, r0, #31, 0
    d488:	e3a01001 	mov	r1, #1, 0
    d48c:	e1a01011 	lsl	r1, r1, r0
    d490:	e1a00103 	lsl	r0, r3, #2
    d494:	ebffeae2 	bl	8024 <PUT32>
    d498:	e8bd8010 	pop	{r4, pc}
    d49c:	08080007 	.word	0x08080007

0000d4a0 <gpio_set_off>:
    d4a0:	e350002f 	cmp	r0, #47, 0	; 0x2f
    d4a4:	1350001f 	cmpne	r0, #31, 0
    d4a8:	812fff1e 	bxhi	lr
    d4ac:	e92d4010 	push	{r4, lr}
    d4b0:	e59f3018 	ldr	r3, [pc, #24]	; d4d0 <gpio_set_off+0x30>
    d4b4:	e08332a0 	add	r3, r3, r0, lsr #5
    d4b8:	e200001f 	and	r0, r0, #31, 0
    d4bc:	e3a01001 	mov	r1, #1, 0
    d4c0:	e1a01011 	lsl	r1, r1, r0
    d4c4:	e1a00103 	lsl	r0, r3, #2
    d4c8:	ebffead5 	bl	8024 <PUT32>
    d4cc:	e8bd8010 	pop	{r4, pc}
    d4d0:	0808000a 	.word	0x0808000a

0000d4d4 <gpio_write>:
    d4d4:	e92d4010 	push	{r4, lr}
    d4d8:	e3510000 	cmp	r1, #0, 0
    d4dc:	0a000001 	beq	d4e8 <gpio_write+0x14>
    d4e0:	ebffffe1 	bl	d46c <gpio_set_on>
    d4e4:	e8bd8010 	pop	{r4, pc}
    d4e8:	ebffffec 	bl	d4a0 <gpio_set_off>
    d4ec:	e8bd8010 	pop	{r4, pc}

0000d4f0 <gpio_read>:
    d4f0:	e350001f 	cmp	r0, #31, 0
    d4f4:	8a000008 	bhi	d51c <gpio_read+0x2c>
    d4f8:	e92d4010 	push	{r4, lr}
    d4fc:	e1a04000 	mov	r4, r0
    d500:	e59f001c 	ldr	r0, [pc, #28]	; d524 <gpio_read+0x34>
    d504:	e08002a4 	add	r0, r0, r4, lsr #5
    d508:	e1a00100 	lsl	r0, r0, #2
    d50c:	ebffeac6 	bl	802c <GET32>
    d510:	e1a00430 	lsr	r0, r0, r4
    d514:	e2000001 	and	r0, r0, #1, 0
    d518:	e8bd8010 	pop	{r4, pc}
    d51c:	e3e00000 	mvn	r0, #0, 0
    d520:	e12fff1e 	bx	lr
    d524:	0808000d 	.word	0x0808000d

0000d528 <gpio_set_function>:
    d528:	e350002f 	cmp	r0, #47, 0	; 0x2f
    d52c:	1350001f 	cmpne	r0, #31, 0
    d530:	812fff1e 	bxhi	lr
    d534:	e92d40f0 	push	{r4, r5, r6, r7, lr}
    d538:	e24dd00c 	sub	sp, sp, #12, 0
    d53c:	e1a04000 	mov	r4, r0
    d540:	e1a06001 	mov	r6, r1
    d544:	e3510007 	cmp	r1, #7, 0
    d548:	9a000001 	bls	d554 <gpio_set_function+0x2c>
    d54c:	e28dd00c 	add	sp, sp, #12, 0
    d550:	e8bd80f0 	pop	{r4, r5, r6, r7, pc}
    d554:	e59f5044 	ldr	r5, [pc, #68]	; d5a0 <gpio_set_function+0x78>
    d558:	e0853095 	umull	r3, r5, r5, r0
    d55c:	e1a051a5 	lsr	r5, r5, #3
    d560:	e2857302 	add	r7, r5, #134217728	; 0x8000000
    d564:	e2877702 	add	r7, r7, #524288	; 0x80000
    d568:	e1a07107 	lsl	r7, r7, #2
    d56c:	e1a00007 	mov	r0, r7
    d570:	ebffeaad 	bl	802c <GET32>
    d574:	e58d0004 	str	r0, [sp, #4]
    d578:	e0855105 	add	r5, r5, r5, lsl #2
    d57c:	e0444085 	sub	r4, r4, r5, lsl #1
    d580:	e0844084 	add	r4, r4, r4, lsl #1
    d584:	e59d1004 	ldr	r1, [sp, #4]
    d588:	e3a03007 	mov	r3, #7, 0
    d58c:	e1c11413 	bic	r1, r1, r3, lsl r4
    d590:	e1811416 	orr	r1, r1, r6, lsl r4
    d594:	e1a00007 	mov	r0, r7
    d598:	ebffeaa1 	bl	8024 <PUT32>
    d59c:	eaffffea 	b	d54c <gpio_set_function+0x24>
    d5a0:	cccccccd 	.word	0xcccccccd

0000d5a4 <gpio_set_output>:
    d5a4:	e92d4010 	push	{r4, lr}
    d5a8:	e3a01001 	mov	r1, #1, 0
    d5ac:	ebffffdd 	bl	d528 <gpio_set_function>
    d5b0:	e8bd8010 	pop	{r4, pc}

0000d5b4 <gpio_set_input>:
    d5b4:	e92d4010 	push	{r4, lr}
    d5b8:	e3a01000 	mov	r1, #0, 0
    d5bc:	ebffffd9 	bl	d528 <gpio_set_function>
    d5c0:	e8bd8010 	pop	{r4, pc}

0000d5c4 <memcpy256>:
    d5c4:	e92d40f0 	push	{r4, r5, r6, r7, lr}
    d5c8:	e24dd00c 	sub	sp, sp, #12, 0
    d5cc:	e212401f 	ands	r4, r2, #31, 0
    d5d0:	01a06000 	moveq	r6, r0
    d5d4:	01a07001 	moveq	r7, r1
    d5d8:	01a052a2 	lsreq	r5, r2, #5
    d5dc:	0a00000f 	beq	d620 <memcpy256+0x5c>
    d5e0:	e3a03020 	mov	r3, #32, 0
    d5e4:	e58d3004 	str	r3, [sp, #4]
    d5e8:	e58d2000 	str	r2, [sp]
    d5ec:	e3a0300f 	mov	r3, #15, 0
    d5f0:	e59f2038 	ldr	r2, [pc, #56]	; d630 <memcpy256+0x6c>
    d5f4:	e59f1038 	ldr	r1, [pc, #56]	; d634 <memcpy256+0x70>
    d5f8:	e59f0038 	ldr	r0, [pc, #56]	; d638 <memcpy256+0x74>
    d5fc:	eb000061 	bl	d788 <printk>
    d600:	eb000169 	bl	dbac <clean_reboot>
    d604:	e086c284 	add	ip, r6, r4, lsl #5
    d608:	e087e284 	add	lr, r7, r4, lsl #5
    d60c:	e8be000f 	ldm	lr!, {r0, r1, r2, r3}
    d610:	e8ac000f 	stmia	ip!, {r0, r1, r2, r3}
    d614:	e89e000f 	ldm	lr, {r0, r1, r2, r3}
    d618:	e88c000f 	stm	ip, {r0, r1, r2, r3}
    d61c:	e2844001 	add	r4, r4, #1, 0
    d620:	e1540005 	cmp	r4, r5
    d624:	3afffff6 	bcc	d604 <memcpy256+0x40>
    d628:	e28dd00c 	add	sp, sp, #12, 0
    d62c:	e8bd80f0 	pop	{r4, r5, r6, r7, pc}
    d630:	0000f728 	.word	0x0000f728
    d634:	0000f6dc 	.word	0x0000f6dc
    d638:	0000f6ec 	.word	0x0000f6ec

0000d63c <memcpy>:
    d63c:	e3100007 	tst	r0, #7, 0
    d640:	1a00000f 	bne	d684 <memcpy+0x48>
    d644:	e3110007 	tst	r1, #7, 0
    d648:	1a00000d 	bne	d684 <memcpy+0x48>
    d64c:	e2123007 	ands	r3, r2, #7, 0
    d650:	1a00000b 	bne	d684 <memcpy+0x48>
    d654:	e1a021a2 	lsr	r2, r2, #3
    d658:	e1530002 	cmp	r3, r2
    d65c:	212fff1e 	bxcs	lr
    d660:	e92d0030 	push	{r4, r5}
    d664:	e1a0c183 	lsl	ip, r3, #3
    d668:	e18140dc 	ldrd	r4, [r1, ip]
    d66c:	e18040fc 	strd	r4, [r0, ip]
    d670:	e2833001 	add	r3, r3, #1, 0
    d674:	e1530002 	cmp	r3, r2
    d678:	3afffff9 	bcc	d664 <memcpy+0x28>
    d67c:	e8bd0030 	pop	{r4, r5}
    d680:	e12fff1e 	bx	lr
    d684:	e2103003 	ands	r3, r0, #3, 0
    d688:	1a000011 	bne	d6d4 <memcpy+0x98>
    d68c:	e211c003 	ands	ip, r1, #3, 0
    d690:	1a00000c 	bne	d6c8 <memcpy+0x8c>
    d694:	e2123003 	ands	r3, r2, #3, 0
    d698:	1a00000f 	bne	d6dc <memcpy+0xa0>
    d69c:	e1a02122 	lsr	r2, r2, #2
    d6a0:	ea000002 	b	d6b0 <memcpy+0x74>
    d6a4:	e791c103 	ldr	ip, [r1, r3, lsl #2]
    d6a8:	e780c103 	str	ip, [r0, r3, lsl #2]
    d6ac:	e2833001 	add	r3, r3, #1, 0
    d6b0:	e1530002 	cmp	r3, r2
    d6b4:	3afffffa 	bcc	d6a4 <memcpy+0x68>
    d6b8:	e12fff1e 	bx	lr
    d6bc:	e7d1c003 	ldrb	ip, [r1, r3]
    d6c0:	e7c0c003 	strb	ip, [r0, r3]
    d6c4:	e2833001 	add	r3, r3, #1, 0
    d6c8:	e1530002 	cmp	r3, r2
    d6cc:	3afffffa 	bcc	d6bc <memcpy+0x80>
    d6d0:	e12fff1e 	bx	lr
    d6d4:	e3a03000 	mov	r3, #0, 0
    d6d8:	eafffffa 	b	d6c8 <memcpy+0x8c>
    d6dc:	e1a0300c 	mov	r3, ip
    d6e0:	eafffff8 	b	d6c8 <memcpy+0x8c>

0000d6e4 <memcpy_end>:
    d6e4:	e12fff1e 	bx	lr

0000d6e8 <memset>:
    d6e8:	e3520000 	cmp	r2, #0, 0
    d6ec:	012fff1e 	bxeq	lr
    d6f0:	e3510000 	cmp	r1, #0, 0
    d6f4:	1a000007 	bne	d718 <memset+0x30>
    d6f8:	e3100007 	tst	r0, #7, 0
    d6fc:	1a000001 	bne	d708 <memset+0x20>
    d700:	e3120007 	tst	r2, #7, 0
    d704:	0a000011 	beq	d750 <memset+0x68>
    d708:	e3100003 	tst	r0, #3, 0
    d70c:	1a000001 	bne	d718 <memset+0x30>
    d710:	e3120003 	tst	r2, #3, 0
    d714:	0a000001 	beq	d720 <memset+0x38>
    d718:	e0802002 	add	r2, r0, r2
    d71c:	ea000008 	b	d744 <memset+0x5c>
    d720:	e1a02122 	lsr	r2, r2, #2
    d724:	ea000001 	b	d730 <memset+0x48>
    d728:	e4801004 	str	r1, [r0], #4
    d72c:	e1a02003 	mov	r2, r3
    d730:	e2423001 	sub	r3, r2, #1, 0
    d734:	e3520000 	cmp	r2, #0, 0
    d738:	1afffffa 	bne	d728 <memset+0x40>
    d73c:	e12fff1e 	bx	lr
    d740:	e4c01001 	strb	r1, [r0], #1
    d744:	e1500002 	cmp	r0, r2
    d748:	3afffffc 	bcc	d740 <memset+0x58>
    d74c:	e12fff1e 	bx	lr
    d750:	e1a021a2 	lsr	r2, r2, #3
    d754:	e2423001 	sub	r3, r2, #1, 0
    d758:	e3520000 	cmp	r2, #0, 0
    d75c:	012fff1e 	bxeq	lr
    d760:	e92d0030 	push	{r4, r5}
    d764:	e1a04001 	mov	r4, r1
    d768:	e1a05fc1 	asr	r5, r1, #31
    d76c:	e0c040f8 	strd	r4, [r0], #8
    d770:	e1a02003 	mov	r2, r3
    d774:	e2433001 	sub	r3, r3, #1, 0
    d778:	e3520000 	cmp	r2, #0, 0
    d77c:	1afffff8 	bne	d764 <memset+0x7c>
    d780:	e8bd0030 	pop	{r4, r5}
    d784:	e12fff1e 	bx	lr

0000d788 <printk>:
    d788:	e92d000f 	push	{r0, r1, r2, r3}
    d78c:	e52de004 	push	{lr}		; (str lr, [sp, #-4]!)
    d790:	e24dd00c 	sub	sp, sp, #12, 0
    d794:	e28d1014 	add	r1, sp, #20, 0
    d798:	e58d1004 	str	r1, [sp, #4]
    d79c:	e59d0010 	ldr	r0, [sp, #16]
    d7a0:	eb000047 	bl	d8c4 <vprintk>
    d7a4:	e28dd00c 	add	sp, sp, #12, 0
    d7a8:	e49de004 	pop	{lr}		; (ldr lr, [sp], #4)
    d7ac:	e28dd010 	add	sp, sp, #16, 0
    d7b0:	e12fff1e 	bx	lr

0000d7b4 <emit_val>:
    d7b4:	e92d4010 	push	{r4, lr}
    d7b8:	e24dd030 	sub	sp, sp, #48, 0	; 0x30
    d7bc:	e350000a 	cmp	r0, #10, 0
    d7c0:	0a000014 	beq	d818 <emit_val+0x64>
    d7c4:	e3500010 	cmp	r0, #16, 0
    d7c8:	0a000022 	beq	d858 <emit_val+0xa4>
    d7cc:	e3500002 	cmp	r0, #2, 0
    d7d0:	0a000006 	beq	d7f0 <emit_val+0x3c>
    d7d4:	e58d0000 	str	r0, [sp]
    d7d8:	e3a0301b 	mov	r3, #27, 0
    d7dc:	e59f20c0 	ldr	r2, [pc, #192]	; d8a4 <emit_val+0xf0>
    d7e0:	e59f10c0 	ldr	r1, [pc, #192]	; d8a8 <emit_val+0xf4>
    d7e4:	e59f00c0 	ldr	r0, [pc, #192]	; d8ac <emit_val+0xf8>
    d7e8:	ebffffe6 	bl	d788 <printk>
    d7ec:	eb0000ee 	bl	dbac <clean_reboot>
    d7f0:	e28d400c 	add	r4, sp, #12, 0
    d7f4:	e2012001 	and	r2, r1, #1, 0
    d7f8:	e59f00b0 	ldr	r0, [pc, #176]	; d8b0 <emit_val+0xfc>
    d7fc:	e7d02002 	ldrb	r2, [r0, r2]
    d800:	e5c42000 	strb	r2, [r4]
    d804:	e2844001 	add	r4, r4, #1, 0
    d808:	e3510001 	cmp	r1, #1, 0
    d80c:	e1a010a1 	lsr	r1, r1, #1
    d810:	8afffff7 	bhi	d7f4 <emit_val+0x40>
    d814:	ea00001d 	b	d890 <emit_val+0xdc>
    d818:	e28d400c 	add	r4, sp, #12, 0
    d81c:	e59f3090 	ldr	r3, [pc, #144]	; d8b4 <emit_val+0x100>
    d820:	e0832193 	umull	r2, r3, r3, r1
    d824:	e1a031a3 	lsr	r3, r3, #3
    d828:	e1a00003 	mov	r0, r3
    d82c:	e0833103 	add	r3, r3, r3, lsl #2
    d830:	e0413083 	sub	r3, r1, r3, lsl #1
    d834:	e59fc07c 	ldr	ip, [pc, #124]	; d8b8 <emit_val+0x104>
    d838:	e7dcc003 	ldrb	ip, [ip, r3]
    d83c:	e5c4c000 	strb	ip, [r4]
    d840:	e2844001 	add	r4, r4, #1, 0
    d844:	e1a03001 	mov	r3, r1
    d848:	e1a01000 	mov	r1, r0
    d84c:	e3530009 	cmp	r3, #9, 0
    d850:	8afffff1 	bhi	d81c <emit_val+0x68>
    d854:	ea00000d 	b	d890 <emit_val+0xdc>
    d858:	e28d400c 	add	r4, sp, #12, 0
    d85c:	e201200f 	and	r2, r1, #15, 0
    d860:	e59f0054 	ldr	r0, [pc, #84]	; d8bc <emit_val+0x108>
    d864:	e7d02002 	ldrb	r2, [r0, r2]
    d868:	e5c42000 	strb	r2, [r4]
    d86c:	e2844001 	add	r4, r4, #1, 0
    d870:	e351000f 	cmp	r1, #15, 0
    d874:	e1a01221 	lsr	r1, r1, #4
    d878:	8afffff7 	bhi	d85c <emit_val+0xa8>
    d87c:	ea000003 	b	d890 <emit_val+0xdc>
    d880:	e59f3038 	ldr	r3, [pc, #56]	; d8c0 <emit_val+0x10c>
    d884:	e5933000 	ldr	r3, [r3]
    d888:	e5740001 	ldrb	r0, [r4, #-1]!
    d88c:	e12fff33 	blx	r3
    d890:	e28d300c 	add	r3, sp, #12, 0
    d894:	e1540003 	cmp	r4, r3
    d898:	8afffff8 	bhi	d880 <emit_val+0xcc>
    d89c:	e28dd030 	add	sp, sp, #48, 0	; 0x30
    d8a0:	e8bd8010 	pop	{r4, pc}
    d8a4:	0000f7ec 	.word	0x0000f7ec
    d8a8:	0000f734 	.word	0x0000f734
    d8ac:	0000f744 	.word	0x0000f744
    d8b0:	0000f768 	.word	0x0000f768
    d8b4:	cccccccd 	.word	0xcccccccd
    d8b8:	0000f76c 	.word	0x0000f76c
    d8bc:	0000f778 	.word	0x0000f778
    d8c0:	0000f970 	.word	0x0000f970

0000d8c4 <vprintk>:
    d8c4:	e92d4030 	push	{r4, r5, lr}
    d8c8:	e24dd014 	sub	sp, sp, #20, 0
    d8cc:	e1a04000 	mov	r4, r0
    d8d0:	e58d100c 	str	r1, [sp, #12]
    d8d4:	ea000003 	b	d8e8 <vprintk+0x24>
    d8d8:	e59f3288 	ldr	r3, [pc, #648]	; db68 <vprintk+0x2a4>
    d8dc:	e5933000 	ldr	r3, [r3]
    d8e0:	e12fff33 	blx	r3
    d8e4:	e2844001 	add	r4, r4, #1, 0
    d8e8:	e5d40000 	ldrb	r0, [r4]
    d8ec:	e3500000 	cmp	r0, #0, 0
    d8f0:	0a00009a 	beq	db60 <vprintk+0x29c>
    d8f4:	e3500025 	cmp	r0, #37, 0	; 0x25
    d8f8:	1afffff6 	bne	d8d8 <vprintk+0x14>
    d8fc:	e2845001 	add	r5, r4, #1, 0
    d900:	e5d42001 	ldrb	r2, [r4, #1]
    d904:	e2423062 	sub	r3, r2, #98, 0	; 0x62
    d908:	e3530016 	cmp	r3, #22, 0
    d90c:	979ff103 	ldrls	pc, [pc, r3, lsl #2]
    d910:	ea00008b 	b	db44 <vprintk+0x280>
    d914:	0000d970 	.word	0x0000d970
    d918:	0000d9b0 	.word	0x0000d9b0
    d91c:	0000dac8 	.word	0x0000dac8
    d920:	0000db44 	.word	0x0000db44
    d924:	0000db44 	.word	0x0000db44
    d928:	0000db44 	.word	0x0000db44
    d92c:	0000db44 	.word	0x0000db44
    d930:	0000db44 	.word	0x0000db44
    d934:	0000db44 	.word	0x0000db44
    d938:	0000db44 	.word	0x0000db44
    d93c:	0000d9d4 	.word	0x0000d9d4
    d940:	0000db44 	.word	0x0000db44
    d944:	0000db44 	.word	0x0000db44
    d948:	0000db44 	.word	0x0000db44
    d94c:	0000da8c 	.word	0x0000da8c
    d950:	0000db44 	.word	0x0000db44
    d954:	0000db44 	.word	0x0000db44
    d958:	0000db0c 	.word	0x0000db0c
    d95c:	0000db44 	.word	0x0000db44
    d960:	0000d990 	.word	0x0000d990
    d964:	0000db44 	.word	0x0000db44
    d968:	0000db44 	.word	0x0000db44
    d96c:	0000da8c 	.word	0x0000da8c
    d970:	e59d300c 	ldr	r3, [sp, #12]
    d974:	e2832004 	add	r2, r3, #4, 0
    d978:	e58d200c 	str	r2, [sp, #12]
    d97c:	e5931000 	ldr	r1, [r3]
    d980:	e3a00002 	mov	r0, #2, 0
    d984:	ebffff8a 	bl	d7b4 <emit_val>
    d988:	e1a04005 	mov	r4, r5
    d98c:	eaffffd4 	b	d8e4 <vprintk+0x20>
    d990:	e59d300c 	ldr	r3, [sp, #12]
    d994:	e2832004 	add	r2, r3, #4, 0
    d998:	e58d200c 	str	r2, [sp, #12]
    d99c:	e5931000 	ldr	r1, [r3]
    d9a0:	e3a0000a 	mov	r0, #10, 0
    d9a4:	ebffff82 	bl	d7b4 <emit_val>
    d9a8:	e1a04005 	mov	r4, r5
    d9ac:	eaffffcc 	b	d8e4 <vprintk+0x20>
    d9b0:	e59f31b0 	ldr	r3, [pc, #432]	; db68 <vprintk+0x2a4>
    d9b4:	e5932000 	ldr	r2, [r3]
    d9b8:	e59d300c 	ldr	r3, [sp, #12]
    d9bc:	e2831004 	add	r1, r3, #4, 0
    d9c0:	e58d100c 	str	r1, [sp, #12]
    d9c4:	e5930000 	ldr	r0, [r3]
    d9c8:	e12fff32 	blx	r2
    d9cc:	e1a04005 	mov	r4, r5
    d9d0:	eaffffc3 	b	d8e4 <vprintk+0x20>
    d9d4:	e2842002 	add	r2, r4, #2, 0
    d9d8:	e5d43002 	ldrb	r3, [r4, #2]
    d9dc:	e353006c 	cmp	r3, #108, 0	; 0x6c
    d9e0:	1a000018 	bne	da48 <vprintk+0x184>
    d9e4:	e2845003 	add	r5, r4, #3, 0
    d9e8:	e5d43003 	ldrb	r3, [r4, #3]
    d9ec:	e3530078 	cmp	r3, #120, 0	; 0x78
    d9f0:	1a00001b 	bne	da64 <vprintk+0x1a0>
    d9f4:	e59f416c 	ldr	r4, [pc, #364]	; db68 <vprintk+0x2a4>
    d9f8:	e5943000 	ldr	r3, [r4]
    d9fc:	e3a00030 	mov	r0, #48, 0	; 0x30
    da00:	e12fff33 	blx	r3
    da04:	e5943000 	ldr	r3, [r4]
    da08:	e3a00078 	mov	r0, #120, 0	; 0x78
    da0c:	e12fff33 	blx	r3
    da10:	e59d300c 	ldr	r3, [sp, #12]
    da14:	e2833007 	add	r3, r3, #7, 0
    da18:	e3c33007 	bic	r3, r3, #7, 0
    da1c:	e2832008 	add	r2, r3, #8, 0
    da20:	e58d200c 	str	r2, [sp, #12]
    da24:	e5934000 	ldr	r4, [r3]
    da28:	e5931004 	ldr	r1, [r3, #4]
    da2c:	e3510000 	cmp	r1, #0, 0
    da30:	1a000012 	bne	da80 <vprintk+0x1bc>
    da34:	e1a01004 	mov	r1, r4
    da38:	e3a00010 	mov	r0, #16, 0
    da3c:	ebffff5c 	bl	d7b4 <emit_val>
    da40:	e1a04005 	mov	r4, r5
    da44:	eaffffa6 	b	d8e4 <vprintk+0x20>
    da48:	e58d2000 	str	r2, [sp]
    da4c:	e3a0303b 	mov	r3, #59, 0	; 0x3b
    da50:	e59f2114 	ldr	r2, [pc, #276]	; db6c <vprintk+0x2a8>
    da54:	e59f1114 	ldr	r1, [pc, #276]	; db70 <vprintk+0x2ac>
    da58:	e59f0114 	ldr	r0, [pc, #276]	; db74 <vprintk+0x2b0>
    da5c:	ebffff49 	bl	d788 <printk>
    da60:	eb000051 	bl	dbac <clean_reboot>
    da64:	e58d5000 	str	r5, [sp]
    da68:	e3a0303e 	mov	r3, #62, 0	; 0x3e
    da6c:	e59f20f8 	ldr	r2, [pc, #248]	; db6c <vprintk+0x2a8>
    da70:	e59f10f8 	ldr	r1, [pc, #248]	; db70 <vprintk+0x2ac>
    da74:	e59f00f8 	ldr	r0, [pc, #248]	; db74 <vprintk+0x2b0>
    da78:	ebffff42 	bl	d788 <printk>
    da7c:	eb00004a 	bl	dbac <clean_reboot>
    da80:	e3a00010 	mov	r0, #16, 0
    da84:	ebffff4a 	bl	d7b4 <emit_val>
    da88:	eaffffe9 	b	da34 <vprintk+0x170>
    da8c:	e59f40d4 	ldr	r4, [pc, #212]	; db68 <vprintk+0x2a4>
    da90:	e5943000 	ldr	r3, [r4]
    da94:	e3a00030 	mov	r0, #48, 0	; 0x30
    da98:	e12fff33 	blx	r3
    da9c:	e5943000 	ldr	r3, [r4]
    daa0:	e3a00078 	mov	r0, #120, 0	; 0x78
    daa4:	e12fff33 	blx	r3
    daa8:	e59d300c 	ldr	r3, [sp, #12]
    daac:	e2832004 	add	r2, r3, #4, 0
    dab0:	e58d200c 	str	r2, [sp, #12]
    dab4:	e5931000 	ldr	r1, [r3]
    dab8:	e3a00010 	mov	r0, #16, 0
    dabc:	ebffff3c 	bl	d7b4 <emit_val>
    dac0:	e1a04005 	mov	r4, r5
    dac4:	eaffff86 	b	d8e4 <vprintk+0x20>
    dac8:	e59d300c 	ldr	r3, [sp, #12]
    dacc:	e2832004 	add	r2, r3, #4, 0
    dad0:	e58d200c 	str	r2, [sp, #12]
    dad4:	e5934000 	ldr	r4, [r3]
    dad8:	e3540000 	cmp	r4, #0, 0
    dadc:	ba000004 	blt	daf4 <vprintk+0x230>
    dae0:	e1a01004 	mov	r1, r4
    dae4:	e3a0000a 	mov	r0, #10, 0
    dae8:	ebffff31 	bl	d7b4 <emit_val>
    daec:	e1a04005 	mov	r4, r5
    daf0:	eaffff7b 	b	d8e4 <vprintk+0x20>
    daf4:	e59f306c 	ldr	r3, [pc, #108]	; db68 <vprintk+0x2a4>
    daf8:	e5933000 	ldr	r3, [r3]
    dafc:	e3a0002d 	mov	r0, #45, 0	; 0x2d
    db00:	e12fff33 	blx	r3
    db04:	e2644000 	rsb	r4, r4, #0, 0
    db08:	eafffff4 	b	dae0 <vprintk+0x21c>
    db0c:	e59d300c 	ldr	r3, [sp, #12]
    db10:	e2832004 	add	r2, r3, #4, 0
    db14:	e58d200c 	str	r2, [sp, #12]
    db18:	e5934000 	ldr	r4, [r3]
    db1c:	e5d40000 	ldrb	r0, [r4]
    db20:	e3500000 	cmp	r0, #0, 0
    db24:	0a000004 	beq	db3c <vprintk+0x278>
    db28:	e59f3038 	ldr	r3, [pc, #56]	; db68 <vprintk+0x2a4>
    db2c:	e5933000 	ldr	r3, [r3]
    db30:	e12fff33 	blx	r3
    db34:	e2844001 	add	r4, r4, #1, 0
    db38:	eafffff7 	b	db1c <vprintk+0x258>
    db3c:	e1a04005 	mov	r4, r5
    db40:	eaffff67 	b	d8e4 <vprintk+0x20>
    db44:	e58d2000 	str	r2, [sp]
    db48:	e3a03062 	mov	r3, #98, 0	; 0x62
    db4c:	e59f2018 	ldr	r2, [pc, #24]	; db6c <vprintk+0x2a8>
    db50:	e59f1018 	ldr	r1, [pc, #24]	; db70 <vprintk+0x2ac>
    db54:	e59f001c 	ldr	r0, [pc, #28]	; db78 <vprintk+0x2b4>
    db58:	ebffff0a 	bl	d788 <printk>
    db5c:	eb000012 	bl	dbac <clean_reboot>
    db60:	e28dd014 	add	sp, sp, #20, 0
    db64:	e8bd8030 	pop	{r4, r5, pc}
    db68:	0000f970 	.word	0x0000f970
    db6c:	0000f7f8 	.word	0x0000f7f8
    db70:	0000f734 	.word	0x0000f734
    db74:	0000f78c 	.word	0x0000f78c
    db78:	0000f7c4 	.word	0x0000f7c4

0000db7c <default_putchar>:
    db7c:	e92d4010 	push	{r4, lr}
    db80:	e1a04000 	mov	r4, r0
    db84:	e6ef0070 	uxtb	r0, r0
    db88:	eb000119 	bl	dff4 <uart_put8>
    db8c:	e1a00004 	mov	r0, r4
    db90:	e8bd8010 	pop	{r4, pc}

0000db94 <rpi_putchar_set>:
    db94:	e59f300c 	ldr	r3, [pc, #12]	; dba8 <rpi_putchar_set+0x14>
    db98:	e5932000 	ldr	r2, [r3]
    db9c:	e5830000 	str	r0, [r3]
    dba0:	e1a00002 	mov	r0, r2
    dba4:	e12fff1e 	bx	lr
    dba8:	0000f970 	.word	0x0000f970

0000dbac <clean_reboot>:
    dbac:	e92d4010 	push	{r4, lr}
    dbb0:	e59f0010 	ldr	r0, [pc, #16]	; dbc8 <clean_reboot+0x1c>
    dbb4:	eb000157 	bl	e118 <putk>
    dbb8:	eb000140 	bl	e0c0 <uart_flush_tx>
    dbbc:	e3a0000a 	mov	r0, #10, 0
    dbc0:	eb000064 	bl	dd58 <delay_ms>
    dbc4:	eb00003f 	bl	dcc8 <rpi_reboot>
    dbc8:	0000f800 	.word	0x0000f800

0000dbcc <program_end>:
    dbcc:	e59f0000 	ldr	r0, [pc]	; dbd4 <program_end+0x8>
    dbd0:	e12fff1e 	bx	lr
    dbd4:	0000f990 	.word	0x0000f990

0000dbd8 <_cstart>:
    dbd8:	e92d4030 	push	{r4, r5, lr}
    dbdc:	e24dd00c 	sub	sp, sp, #12, 0
    dbe0:	e59f3098 	ldr	r3, [pc, #152]	; dc80 <_cstart+0xa8>
    dbe4:	e59f2098 	ldr	r2, [pc, #152]	; dc84 <_cstart+0xac>
    dbe8:	e1530002 	cmp	r3, r2
    dbec:	33a02000 	movcc	r2, #0, 0
    dbf0:	34c32001 	strbcc	r2, [r3], #1
    dbf4:	3afffffa 	bcc	dbe4 <_cstart+0xc>
    dbf8:	eb0000c4 	bl	df10 <uart_init>
    dbfc:	e3a03001 	mov	r3, #1, 0
    dc00:	ee0f3f1c 	mcr	15, 0, r3, cr15, cr12, {0}
    dc04:	e3a02a01 	mov	r2, #4096	; 0x1000
    dc08:	e3a01000 	mov	r1, #0, 0
    dc0c:	e1a00001 	mov	r0, r1
    dc10:	ebfffeb4 	bl	d6e8 <memset>
    dc14:	e3a04000 	mov	r4, #0, 0
    dc18:	e1a05004 	mov	r5, r4
    dc1c:	ea000005 	b	dc38 <_cstart+0x60>
    dc20:	e2855001 	add	r5, r5, #1, 0
    dc24:	e5912000 	ldr	r2, [r1]
    dc28:	e1a03005 	mov	r3, r5
    dc2c:	e59f0054 	ldr	r0, [pc, #84]	; dc88 <_cstart+0xb0>
    dc30:	ebfffed4 	bl	d788 <printk>
    dc34:	e2844001 	add	r4, r4, #1, 0
    dc38:	e3540b01 	cmp	r4, #1024	; 0x400
    dc3c:	2a000004 	bcs	dc54 <_cstart+0x7c>
    dc40:	e1a01104 	lsl	r1, r4, #2
    dc44:	e5913000 	ldr	r3, [r1]
    dc48:	e3530000 	cmp	r3, #0, 0
    dc4c:	0afffff8 	beq	dc34 <_cstart+0x5c>
    dc50:	eafffff2 	b	dc20 <_cstart+0x48>
    dc54:	e3550000 	cmp	r5, #0, 0
    dc58:	1a000001 	bne	dc64 <_cstart+0x8c>
    dc5c:	ebffe93c 	bl	8154 <notmain>
    dc60:	ebffffd1 	bl	dbac <clean_reboot>
    dc64:	e58d5000 	str	r5, [sp]
    dc68:	e3a0301b 	mov	r3, #27, 0
    dc6c:	e59f2018 	ldr	r2, [pc, #24]	; dc8c <_cstart+0xb4>
    dc70:	e59f1018 	ldr	r1, [pc, #24]	; dc90 <_cstart+0xb8>
    dc74:	e59f0018 	ldr	r0, [pc, #24]	; dc94 <_cstart+0xbc>
    dc78:	ebfffec2 	bl	d788 <printk>
    dc7c:	ebffffca 	bl	dbac <clean_reboot>
    dc80:	0000f974 	.word	0x0000f974
    dc84:	0000f990 	.word	0x0000f990
    dc88:	0000f80c 	.word	0x0000f80c
    dc8c:	0000f8a8 	.word	0x0000f8a8
    dc90:	0000f838 	.word	0x0000f838
    dc94:	0000f878 	.word	0x0000f878

0000dc98 <delay_cycles>:
    dc98:	e2403001 	sub	r3, r0, #1, 0
    dc9c:	e3500000 	cmp	r0, #0, 0
    dca0:	012fff1e 	bxeq	lr
    dca4:	e2811000 	add	r1, r1, #0, 0
    dca8:	e1a00003 	mov	r0, r3
    dcac:	eafffff9 	b	dc98 <delay_cycles>

0000dcb0 <dev_barrier>:
    dcb0:	ea000002 	b	dcc0 <dsb>

0000dcb4 <dmb>:
    dcb4:	e3a00000 	mov	r0, #0, 0
    dcb8:	ee070fba 	mcr	15, 0, r0, cr7, cr10, {5}
    dcbc:	e12fff1e 	bx	lr

0000dcc0 <dsb>:
    dcc0:	ee070f9a 	mcr	15, 0, r0, cr7, cr10, {4}
    dcc4:	e12fff1e 	bx	lr

0000dcc8 <rpi_reboot>:
    dcc8:	e92d4010 	push	{r4, lr}
    dccc:	e3a0000a 	mov	r0, #10, 0
    dcd0:	eb000020 	bl	dd58 <delay_ms>
    dcd4:	e59f1014 	ldr	r1, [pc, #20]	; dcf0 <rpi_reboot+0x28>
    dcd8:	e59f0014 	ldr	r0, [pc, #20]	; dcf4 <rpi_reboot+0x2c>
    dcdc:	ebffe8d0 	bl	8024 <PUT32>
    dce0:	e59f1010 	ldr	r1, [pc, #16]	; dcf8 <rpi_reboot+0x30>
    dce4:	e59f0010 	ldr	r0, [pc, #16]	; dcfc <rpi_reboot+0x34>
    dce8:	ebffe8cd 	bl	8024 <PUT32>
    dcec:	eafffffe 	b	dcec <rpi_reboot+0x24>
    dcf0:	5a000001 	.word	0x5a000001
    dcf4:	20100024 	.word	0x20100024
    dcf8:	5a000020 	.word	0x5a000020
    dcfc:	2010001c 	.word	0x2010001c

0000dd00 <rpi_wait>:
    dd00:	e12fff1e 	bx	lr

0000dd04 <timer_get_usec_raw>:
    dd04:	e92d4010 	push	{r4, lr}
    dd08:	e59f0004 	ldr	r0, [pc, #4]	; dd14 <timer_get_usec_raw+0x10>
    dd0c:	ebffe8c6 	bl	802c <GET32>
    dd10:	e8bd8010 	pop	{r4, pc}
    dd14:	20003004 	.word	0x20003004

0000dd18 <timer_get_usec>:
    dd18:	e92d4010 	push	{r4, lr}
    dd1c:	ebffffe3 	bl	dcb0 <dev_barrier>
    dd20:	ebfffff7 	bl	dd04 <timer_get_usec_raw>
    dd24:	e1a04000 	mov	r4, r0
    dd28:	ebffffe0 	bl	dcb0 <dev_barrier>
    dd2c:	e1a00004 	mov	r0, r4
    dd30:	e8bd8010 	pop	{r4, pc}

0000dd34 <delay_us>:
    dd34:	e92d4070 	push	{r4, r5, r6, lr}
    dd38:	e1a05000 	mov	r5, r0
    dd3c:	ebfffff5 	bl	dd18 <timer_get_usec>
    dd40:	e1a04000 	mov	r4, r0
    dd44:	ebfffff3 	bl	dd18 <timer_get_usec>
    dd48:	e0400004 	sub	r0, r0, r4
    dd4c:	e1500005 	cmp	r0, r5
    dd50:	3afffffb 	bcc	dd44 <delay_us+0x10>
    dd54:	e8bd8070 	pop	{r4, r5, r6, pc}

0000dd58 <delay_ms>:
    dd58:	e92d4010 	push	{r4, lr}
    dd5c:	e0603280 	rsb	r3, r0, r0, lsl #5
    dd60:	e0800103 	add	r0, r0, r3, lsl #2
    dd64:	e1a00180 	lsl	r0, r0, #3
    dd68:	ebfffff1 	bl	dd34 <delay_us>
    dd6c:	e8bd8010 	pop	{r4, pc}

0000dd70 <delay_sec>:
    dd70:	e92d4010 	push	{r4, lr}
    dd74:	e0603280 	rsb	r3, r0, r0, lsl #5
    dd78:	e0800103 	add	r0, r0, r3, lsl #2
    dd7c:	e1a00180 	lsl	r0, r0, #3
    dd80:	ebfffff4 	bl	dd58 <delay_ms>
    dd84:	e8bd8010 	pop	{r4, pc}

0000dd88 <gpio_set_pud>:
    dd88:	e92d4070 	push	{r4, r5, r6, lr}
    dd8c:	e24dd008 	sub	sp, sp, #8, 0
    dd90:	e350001f 	cmp	r0, #31, 0
    dd94:	8a000020 	bhi	de1c <gpio_set_pud+0x94>
    dd98:	e1a05000 	mov	r5, r0
    dd9c:	e1a04001 	mov	r4, r1
    dda0:	e3510003 	cmp	r1, #3, 0
    dda4:	8a000024 	bhi	de3c <gpio_set_pud+0xb4>
    dda8:	e3510002 	cmp	r1, #2, 0
    ddac:	8a00002a 	bhi	de5c <gpio_set_pud+0xd4>
    ddb0:	ebffffbe 	bl	dcb0 <dev_barrier>
    ddb4:	e59f60b8 	ldr	r6, [pc, #184]	; de74 <gpio_set_pud+0xec>
    ddb8:	e1a01004 	mov	r1, r4
    ddbc:	e1a00006 	mov	r0, r6
    ddc0:	ebffe897 	bl	8024 <PUT32>
    ddc4:	e3a00096 	mov	r0, #150, 0	; 0x96
    ddc8:	ebffffd9 	bl	dd34 <delay_us>
    ddcc:	e59f40a4 	ldr	r4, [pc, #164]	; de78 <gpio_set_pud+0xf0>
    ddd0:	e3a01001 	mov	r1, #1, 0
    ddd4:	e1a01511 	lsl	r1, r1, r5
    ddd8:	e1a00004 	mov	r0, r4
    dddc:	ebffe890 	bl	8024 <PUT32>
    dde0:	e3a00096 	mov	r0, #150, 0	; 0x96
    dde4:	ebffffd2 	bl	dd34 <delay_us>
    dde8:	e3a01000 	mov	r1, #0, 0
    ddec:	e1a00006 	mov	r0, r6
    ddf0:	ebffe88b 	bl	8024 <PUT32>
    ddf4:	e3a00096 	mov	r0, #150, 0	; 0x96
    ddf8:	ebffffcd 	bl	dd34 <delay_us>
    ddfc:	e3a01000 	mov	r1, #0, 0
    de00:	e1a00004 	mov	r0, r4
    de04:	ebffe886 	bl	8024 <PUT32>
    de08:	e3a00096 	mov	r0, #150, 0	; 0x96
    de0c:	ebffffc8 	bl	dd34 <delay_us>
    de10:	ebffffa6 	bl	dcb0 <dev_barrier>
    de14:	e28dd008 	add	sp, sp, #8, 0
    de18:	e8bd8070 	pop	{r4, r5, r6, pc}
    de1c:	e59f3058 	ldr	r3, [pc, #88]	; de7c <gpio_set_pud+0xf4>
    de20:	e58d3000 	str	r3, [sp]
    de24:	e3a03012 	mov	r3, #18, 0
    de28:	e59f2050 	ldr	r2, [pc, #80]	; de80 <gpio_set_pud+0xf8>
    de2c:	e59f1050 	ldr	r1, [pc, #80]	; de84 <gpio_set_pud+0xfc>
    de30:	e59f0050 	ldr	r0, [pc, #80]	; de88 <gpio_set_pud+0x100>
    de34:	ebfffe53 	bl	d788 <printk>
    de38:	ebffff5b 	bl	dbac <clean_reboot>
    de3c:	e59f3048 	ldr	r3, [pc, #72]	; de8c <gpio_set_pud+0x104>
    de40:	e58d3000 	str	r3, [sp]
    de44:	e3a03013 	mov	r3, #19, 0
    de48:	e59f2030 	ldr	r2, [pc, #48]	; de80 <gpio_set_pud+0xf8>
    de4c:	e59f1030 	ldr	r1, [pc, #48]	; de84 <gpio_set_pud+0xfc>
    de50:	e59f0038 	ldr	r0, [pc, #56]	; de90 <gpio_set_pud+0x108>
    de54:	ebfffe4b 	bl	d788 <printk>
    de58:	ebffff53 	bl	dbac <clean_reboot>
    de5c:	e3a03018 	mov	r3, #24, 0
    de60:	e59f2018 	ldr	r2, [pc, #24]	; de80 <gpio_set_pud+0xf8>
    de64:	e59f1018 	ldr	r1, [pc, #24]	; de84 <gpio_set_pud+0xfc>
    de68:	e59f0024 	ldr	r0, [pc, #36]	; de94 <gpio_set_pud+0x10c>
    de6c:	ebfffe45 	bl	d788 <printk>
    de70:	ebffff4d 	bl	dbac <clean_reboot>
    de74:	20200094 	.word	0x20200094
    de78:	20200098 	.word	0x20200098
    de7c:	0000f8fc 	.word	0x0000f8fc
    de80:	0000f960 	.word	0x0000f960
    de84:	0000f8b8 	.word	0x0000f8b8
    de88:	0000f8c4 	.word	0x0000f8c4
    de8c:	0000f940 	.word	0x0000f940
    de90:	0000f908 	.word	0x0000f908
    de94:	0000f948 	.word	0x0000f948

0000de98 <gpio_set_pullup>:
    de98:	e92d4010 	push	{r4, lr}
    de9c:	e3a01002 	mov	r1, #2, 0
    dea0:	ebffffb8 	bl	dd88 <gpio_set_pud>
    dea4:	e8bd8010 	pop	{r4, pc}

0000dea8 <gpio_set_pulldown>:
    dea8:	e92d4010 	push	{r4, lr}
    deac:	e3a01001 	mov	r1, #1, 0
    deb0:	ebffffb4 	bl	dd88 <gpio_set_pud>
    deb4:	e8bd8010 	pop	{r4, pc}

0000deb8 <gpio_pud_off>:
    deb8:	e92d4010 	push	{r4, lr}
    debc:	e3a01000 	mov	r1, #0, 0
    dec0:	ebffffb0 	bl	dd88 <gpio_set_pud>
    dec4:	e8bd8010 	pop	{r4, pc}

0000dec8 <gpio_get_pud>:
    dec8:	e92d4010 	push	{r4, lr}
    decc:	e59f0008 	ldr	r0, [pc, #8]	; dedc <gpio_get_pud+0x14>
    ded0:	ebffe855 	bl	802c <GET32>
    ded4:	e2000003 	and	r0, r0, #3, 0
    ded8:	e8bd8010 	pop	{r4, pc}
    dedc:	20200094 	.word	0x20200094

0000dee0 <gpio_is_pullup>:
    dee0:	e92d4010 	push	{r4, lr}
    dee4:	ebfffff7 	bl	dec8 <gpio_get_pud>
    dee8:	e3500002 	cmp	r0, #2, 0
    deec:	13a00000 	movne	r0, #0, 0
    def0:	03a00001 	moveq	r0, #1, 0
    def4:	e8bd8010 	pop	{r4, pc}

0000def8 <gpio_is_pulldown>:
    def8:	e92d4010 	push	{r4, lr}
    defc:	ebfffff1 	bl	dec8 <gpio_get_pud>
    df00:	e3500001 	cmp	r0, #1, 0
    df04:	13a00000 	movne	r0, #0, 0
    df08:	03a00001 	moveq	r0, #1, 0
    df0c:	e8bd8010 	pop	{r4, pc}

0000df10 <uart_init>:
    df10:	e92d4010 	push	{r4, lr}
    df14:	e24dd008 	sub	sp, sp, #8, 0
    df18:	ebffff64 	bl	dcb0 <dev_barrier>
    df1c:	e3a01002 	mov	r1, #2, 0
    df20:	e3a0000e 	mov	r0, #14, 0
    df24:	ebfffd7f 	bl	d528 <gpio_set_function>
    df28:	e3a01002 	mov	r1, #2, 0
    df2c:	e3a0000f 	mov	r0, #15, 0
    df30:	ebfffd7c 	bl	d528 <gpio_set_function>
    df34:	ebffff5d 	bl	dcb0 <dev_barrier>
    df38:	e59f4080 	ldr	r4, [pc, #128]	; dfc0 <uart_init+0xb0>
    df3c:	e1a00004 	mov	r0, r4
    df40:	ebffe839 	bl	802c <GET32>
    df44:	e58d0004 	str	r0, [sp, #4]
    df48:	e59d1004 	ldr	r1, [sp, #4]
    df4c:	e3811001 	orr	r1, r1, #1, 0
    df50:	e1a00004 	mov	r0, r4
    df54:	ebffe832 	bl	8024 <PUT32>
    df58:	ebffff54 	bl	dcb0 <dev_barrier>
    df5c:	e284405c 	add	r4, r4, #92, 0	; 0x5c
    df60:	e3a01000 	mov	r1, #0, 0
    df64:	e1a00004 	mov	r0, r4
    df68:	ebffe82d 	bl	8024 <PUT32>
    df6c:	e3a01000 	mov	r1, #0, 0
    df70:	e59f004c 	ldr	r0, [pc, #76]	; dfc4 <uart_init+0xb4>
    df74:	ebffe82a 	bl	8024 <PUT32>
    df78:	e3a01006 	mov	r1, #6, 0
    df7c:	e59f0044 	ldr	r0, [pc, #68]	; dfc8 <uart_init+0xb8>
    df80:	ebffe827 	bl	8024 <PUT32>
    df84:	e3a01003 	mov	r1, #3, 0
    df88:	e59f003c 	ldr	r0, [pc, #60]	; dfcc <uart_init+0xbc>
    df8c:	ebffe824 	bl	8024 <PUT32>
    df90:	e3a01000 	mov	r1, #0, 0
    df94:	e59f0034 	ldr	r0, [pc, #52]	; dfd0 <uart_init+0xc0>
    df98:	ebffe821 	bl	8024 <PUT32>
    df9c:	e59f1030 	ldr	r1, [pc, #48]	; dfd4 <uart_init+0xc4>
    dfa0:	e59f0030 	ldr	r0, [pc, #48]	; dfd8 <uart_init+0xc8>
    dfa4:	ebffe81e 	bl	8024 <PUT32>
    dfa8:	e3a01003 	mov	r1, #3, 0
    dfac:	e1a00004 	mov	r0, r4
    dfb0:	ebffe81b 	bl	8024 <PUT32>
    dfb4:	ebffff3d 	bl	dcb0 <dev_barrier>
    dfb8:	e28dd008 	add	sp, sp, #8, 0
    dfbc:	e8bd8010 	pop	{r4, pc}
    dfc0:	20215004 	.word	0x20215004
    dfc4:	20215044 	.word	0x20215044
    dfc8:	20215048 	.word	0x20215048
    dfcc:	2021504c 	.word	0x2021504c
    dfd0:	20215050 	.word	0x20215050
    dfd4:	0000010e 	.word	0x0000010e
    dfd8:	20215068 	.word	0x20215068

0000dfdc <uart_can_put8>:
    dfdc:	e92d4010 	push	{r4, lr}
    dfe0:	e59f0008 	ldr	r0, [pc, #8]	; dff0 <uart_can_put8+0x14>
    dfe4:	ebffe810 	bl	802c <GET32>
    dfe8:	e2000002 	and	r0, r0, #2, 0
    dfec:	e8bd8010 	pop	{r4, pc}
    dff0:	20215064 	.word	0x20215064

0000dff4 <uart_put8>:
    dff4:	e92d4010 	push	{r4, lr}
    dff8:	e1a04000 	mov	r4, r0
    dffc:	ebffff2b 	bl	dcb0 <dev_barrier>
    e000:	ebfffff5 	bl	dfdc <uart_can_put8>
    e004:	e3500000 	cmp	r0, #0, 0
    e008:	1a000001 	bne	e014 <uart_put8+0x20>
    e00c:	ebffff3b 	bl	dd00 <rpi_wait>
    e010:	eafffffa 	b	e000 <uart_put8+0xc>
    e014:	e1a01004 	mov	r1, r4
    e018:	e59f000c 	ldr	r0, [pc, #12]	; e02c <uart_put8+0x38>
    e01c:	ebffe800 	bl	8024 <PUT32>
    e020:	ebffff22 	bl	dcb0 <dev_barrier>
    e024:	e3a00001 	mov	r0, #1, 0
    e028:	e8bd8010 	pop	{r4, pc}
    e02c:	20215040 	.word	0x20215040

0000e030 <uart_has_data>:
    e030:	e92d4010 	push	{r4, lr}
    e034:	e59f0008 	ldr	r0, [pc, #8]	; e044 <uart_has_data+0x14>
    e038:	ebffe7fb 	bl	802c <GET32>
    e03c:	e2000001 	and	r0, r0, #1, 0
    e040:	e8bd8010 	pop	{r4, pc}
    e044:	20215064 	.word	0x20215064

0000e048 <uart_get8>:
    e048:	e92d4010 	push	{r4, lr}
    e04c:	ebffff17 	bl	dcb0 <dev_barrier>
    e050:	ebfffff6 	bl	e030 <uart_has_data>
    e054:	e3500000 	cmp	r0, #0, 0
    e058:	1a000001 	bne	e064 <uart_get8+0x1c>
    e05c:	ebffff27 	bl	dd00 <rpi_wait>
    e060:	eafffffa 	b	e050 <uart_get8+0x8>
    e064:	e59f0010 	ldr	r0, [pc, #16]	; e07c <uart_get8+0x34>
    e068:	ebffe7ef 	bl	802c <GET32>
    e06c:	e6ef4070 	uxtb	r4, r0
    e070:	ebffff0e 	bl	dcb0 <dev_barrier>
    e074:	e1a00004 	mov	r0, r4
    e078:	e8bd8010 	pop	{r4, pc}
    e07c:	20215040 	.word	0x20215040

0000e080 <uart_get8_async>:
    e080:	e92d4010 	push	{r4, lr}
    e084:	ebffff09 	bl	dcb0 <dev_barrier>
    e088:	ebffffe8 	bl	e030 <uart_has_data>
    e08c:	e3500000 	cmp	r0, #0, 0
    e090:	0a000001 	beq	e09c <uart_get8_async+0x1c>
    e094:	ebffffeb 	bl	e048 <uart_get8>
    e098:	e8bd8010 	pop	{r4, pc}
    e09c:	e3e00000 	mvn	r0, #0, 0
    e0a0:	e8bd8010 	pop	{r4, pc}

0000e0a4 <uart_tx_is_empty>:
    e0a4:	e92d4010 	push	{r4, lr}
    e0a8:	e59f000c 	ldr	r0, [pc, #12]	; e0bc <uart_tx_is_empty+0x18>
    e0ac:	ebffe7de 	bl	802c <GET32>
    e0b0:	e1a004a0 	lsr	r0, r0, #9
    e0b4:	e2000001 	and	r0, r0, #1, 0
    e0b8:	e8bd8010 	pop	{r4, pc}
    e0bc:	20215064 	.word	0x20215064

0000e0c0 <uart_flush_tx>:
    e0c0:	e92d4010 	push	{r4, lr}
    e0c4:	ebfffff6 	bl	e0a4 <uart_tx_is_empty>
    e0c8:	e3500000 	cmp	r0, #0, 0
    e0cc:	18bd8010 	popne	{r4, pc}
    e0d0:	ebffff0a 	bl	dd00 <rpi_wait>
    e0d4:	eafffffa 	b	e0c4 <uart_flush_tx+0x4>

0000e0d8 <uart_disable>:
    e0d8:	e92d4010 	push	{r4, lr}
    e0dc:	e24dd008 	sub	sp, sp, #8, 0
    e0e0:	ebfffef2 	bl	dcb0 <dev_barrier>
    e0e4:	ebfffff5 	bl	e0c0 <uart_flush_tx>
    e0e8:	e59f4024 	ldr	r4, [pc, #36]	; e114 <uart_disable+0x3c>
    e0ec:	e1a00004 	mov	r0, r4
    e0f0:	ebffe7cd 	bl	802c <GET32>
    e0f4:	e58d0004 	str	r0, [sp, #4]
    e0f8:	e59d1004 	ldr	r1, [sp, #4]
    e0fc:	e2011006 	and	r1, r1, #6, 0
    e100:	e1a00004 	mov	r0, r4
    e104:	ebffe7c6 	bl	8024 <PUT32>
    e108:	ebfffee8 	bl	dcb0 <dev_barrier>
    e10c:	e28dd008 	add	sp, sp, #8, 0
    e110:	e8bd8010 	pop	{r4, pc}
    e114:	20215004 	.word	0x20215004

0000e118 <putk>:
    e118:	e92d4010 	push	{r4, lr}
    e11c:	e1a04000 	mov	r4, r0
    e120:	e5d40000 	ldrb	r0, [r4]
    e124:	e3500000 	cmp	r0, #0, 0
    e128:	0a000004 	beq	e140 <putk+0x28>
    e12c:	e59f3014 	ldr	r3, [pc, #20]	; e148 <putk+0x30>
    e130:	e5933000 	ldr	r3, [r3]
    e134:	e12fff33 	blx	r3
    e138:	e2844001 	add	r4, r4, #1, 0
    e13c:	eafffff7 	b	e120 <putk+0x8>
    e140:	e3a00001 	mov	r0, #1, 0
    e144:	e8bd8010 	pop	{r4, pc}
    e148:	0000f970 	.word	0x0000f970

0000e14c <__code_end__>:
    e14c:	00000000 	.word	0x00000000
