
objs/basic.elf:     file format elf32-littlearm


Disassembly of section .text:

00008000 <__code_start__>:
    8000:	e3a00013 	mov	r0, #19, 0
    8004:	e3800080 	orr	r0, r0, #128, 0	; 0x80
    8008:	e129f000 	msr	CPSR_fc, r0
    800c:	e3a01000 	mov	r1, #0, 0
    8010:	ee071f95 	mcr	15, 0, r1, cr7, cr5, {4}
    8014:	e3a0d302 	mov	sp, #134217728	; 0x8000000
    8018:	e3a0b000 	mov	fp, #0, 0
    801c:	eb00068e 	bl	9a5c <_cstart>
    8020:	eb0006f3 	bl	9bf4 <rpi_reboot>

00008024 <PUT32>:
    8024:	e5801000 	str	r1, [r0]
    8028:	e12fff1e 	bx	lr

0000802c <GET32>:
    802c:	e5900000 	ldr	r0, [r0]
    8030:	e12fff1e 	bx	lr

00008034 <BRANCHTO>:
    8034:	e12fff10 	bx	r0

00008038 <notmain>:
    8038:	e92d4070 	push	{r4, r5, r6, lr}
    803c:	e3a00014 	mov	r0, #20, 0
    8040:	eb0004d1 	bl	938c <gpio_set_output>
    8044:	e3a04000 	mov	r4, #0, 0
    8048:	e3540009 	cmp	r4, #9, 0
    804c:	ca00000a 	bgt	807c <notmain+0x44>
    8050:	e3a00014 	mov	r0, #20, 0
    8054:	eb00047e 	bl	9254 <gpio_set_on>
    8058:	e59f5030 	ldr	r5, [pc, #48]	; 8090 <notmain+0x58>
    805c:	e1a00005 	mov	r0, r5
    8060:	eb0006dd 	bl	9bdc <delay_cycles>
    8064:	e3a00014 	mov	r0, #20, 0
    8068:	eb000486 	bl	9288 <gpio_set_off>
    806c:	e1a00005 	mov	r0, r5
    8070:	eb0006d9 	bl	9bdc <delay_cycles>
    8074:	e2844001 	add	r4, r4, #1, 0
    8078:	eafffff2 	b	8048 <notmain+0x10>
    807c:	e3a00014 	mov	r0, #20, 0
    8080:	eb000473 	bl	9254 <gpio_set_on>
    8084:	e3a00602 	mov	r0, #2097152	; 0x200000
    8088:	ebffffe9 	bl	8034 <BRANCHTO>
    808c:	e8bd8070 	pop	{r4, r5, r6, pc}
    8090:	000f4240 	.word	0x000f4240

00008094 <mmu_reset>:
    8094:	e3a02000 	mov	r2, #0, 0
    8098:	ee072f15 	mcr	15, 0, r2, cr7, cr5, {0}
    809c:	ee072f15 	mcr	15, 0, r2, cr7, cr5, {0}
    80a0:	ee072f15 	mcr	15, 0, r2, cr7, cr5, {0}
    80a4:	ee072f15 	mcr	15, 0, r2, cr7, cr5, {0}
    80a8:	e320f000 	nop	{0}
    80ac:	e320f000 	nop	{0}
    80b0:	e320f000 	nop	{0}
    80b4:	e320f000 	nop	{0}
    80b8:	e320f000 	nop	{0}
    80bc:	e320f000 	nop	{0}
    80c0:	e320f000 	nop	{0}
    80c4:	e320f000 	nop	{0}
    80c8:	e320f000 	nop	{0}
    80cc:	e320f000 	nop	{0}
    80d0:	e320f000 	nop	{0}
    80d4:	ee072f16 	mcr	15, 0, r2, cr7, cr6, {0}
    80d8:	ee082f17 	mcr	15, 0, r2, cr8, cr7, {0}
    80dc:	ee072f9a 	mcr	15, 0, r2, cr7, cr10, {4}
    80e0:	ee072fd5 	mcr	15, 0, r2, cr7, cr5, {6}
    80e4:	ee072f95 	mcr	15, 0, r2, cr7, cr5, {4}
    80e8:	e12fff1e 	bx	lr

000080ec <cp15_domain_ctrl_wr>:
    80ec:	ee030f10 	mcr	15, 0, r0, cr3, cr0, {0}
    80f0:	e3a02000 	mov	r2, #0, 0
    80f4:	ee072f95 	mcr	15, 0, r2, cr7, cr5, {4}
    80f8:	e12fff1e 	bx	lr

000080fc <cp15_set_procid_ttbr0>:
    80fc:	e3a02000 	mov	r2, #0, 0
    8100:	ee072f9a 	mcr	15, 0, r2, cr7, cr10, {4}
    8104:	ee0d2f30 	mcr	15, 0, r2, cr13, cr0, {1}
    8108:	ee072f95 	mcr	15, 0, r2, cr7, cr5, {4}
    810c:	ee021f10 	mcr	15, 0, r1, cr2, cr0, {0}
    8110:	ee022f30 	mcr	15, 0, r2, cr2, cr0, {1}
    8114:	ee022f50 	mcr	15, 0, r2, cr2, cr0, {2}
    8118:	ee072fd5 	mcr	15, 0, r2, cr7, cr5, {6}
    811c:	ee072f95 	mcr	15, 0, r2, cr7, cr5, {4}
    8120:	ee0d0f30 	mcr	15, 0, r0, cr13, cr0, {1}
    8124:	ee072fd5 	mcr	15, 0, r2, cr7, cr5, {6}
    8128:	ee072f95 	mcr	15, 0, r2, cr7, cr5, {4}
    812c:	e12fff1e 	bx	lr

00008130 <mmu_disable_set_asm>:
    8130:	e3a02000 	mov	r2, #0, 0
    8134:	ee072f1e 	mcr	15, 0, r2, cr7, cr14, {0}
    8138:	ee072f9a 	mcr	15, 0, r2, cr7, cr10, {4}
    813c:	ee012f10 	mcr	15, 0, r2, cr1, cr0, {0}
    8140:	ee072f95 	mcr	15, 0, r2, cr7, cr5, {4}
    8144:	ee072f15 	mcr	15, 0, r2, cr7, cr5, {0}
    8148:	ee072f15 	mcr	15, 0, r2, cr7, cr5, {0}
    814c:	ee072f15 	mcr	15, 0, r2, cr7, cr5, {0}
    8150:	ee072f15 	mcr	15, 0, r2, cr7, cr5, {0}
    8154:	e320f000 	nop	{0}
    8158:	e320f000 	nop	{0}
    815c:	e320f000 	nop	{0}
    8160:	e320f000 	nop	{0}
    8164:	e320f000 	nop	{0}
    8168:	e320f000 	nop	{0}
    816c:	e320f000 	nop	{0}
    8170:	e320f000 	nop	{0}
    8174:	e320f000 	nop	{0}
    8178:	e320f000 	nop	{0}
    817c:	e320f000 	nop	{0}
    8180:	ee072f9a 	mcr	15, 0, r2, cr7, cr10, {4}
    8184:	ee072fd5 	mcr	15, 0, r2, cr7, cr5, {6}
    8188:	ee072f95 	mcr	15, 0, r2, cr7, cr5, {4}
    818c:	e12fff1e 	bx	lr

00008190 <mmu_enable_set_asm>:
    8190:	e1a01000 	mov	r1, r0
    8194:	e3a02000 	mov	r2, #0, 0
    8198:	ee110f10 	mrc	15, 0, r0, cr1, cr0, {0}
    819c:	e3c00a01 	bic	r0, r0, #4096	; 0x1000
    81a0:	ee010f10 	mcr	15, 0, r0, cr1, cr0, {0}
    81a4:	ee072f95 	mcr	15, 0, r2, cr7, cr5, {4}
    81a8:	ee072f15 	mcr	15, 0, r2, cr7, cr5, {0}
    81ac:	ee072f15 	mcr	15, 0, r2, cr7, cr5, {0}
    81b0:	ee072f15 	mcr	15, 0, r2, cr7, cr5, {0}
    81b4:	ee072f15 	mcr	15, 0, r2, cr7, cr5, {0}
    81b8:	e320f000 	nop	{0}
    81bc:	e320f000 	nop	{0}
    81c0:	e320f000 	nop	{0}
    81c4:	e320f000 	nop	{0}
    81c8:	e320f000 	nop	{0}
    81cc:	e320f000 	nop	{0}
    81d0:	e320f000 	nop	{0}
    81d4:	e320f000 	nop	{0}
    81d8:	e320f000 	nop	{0}
    81dc:	e320f000 	nop	{0}
    81e0:	e320f000 	nop	{0}
    81e4:	ee072f9a 	mcr	15, 0, r2, cr7, cr10, {4}
    81e8:	e1a00001 	mov	r0, r1
    81ec:	ee010f10 	mcr	15, 0, r0, cr1, cr0, {0}
    81f0:	ee072f95 	mcr	15, 0, r2, cr7, cr5, {4}
    81f4:	ee072fd5 	mcr	15, 0, r2, cr7, cr5, {6}
    81f8:	ee072f95 	mcr	15, 0, r2, cr7, cr5, {4}
    81fc:	e12fff1e 	bx	lr

00008200 <mmu_sync_pte_mods>:
    8200:	e3a02000 	mov	r2, #0, 0
    8204:	ee072f1e 	mcr	15, 0, r2, cr7, cr14, {0}
    8208:	ee072f15 	mcr	15, 0, r2, cr7, cr5, {0}
    820c:	ee072f15 	mcr	15, 0, r2, cr7, cr5, {0}
    8210:	ee072f15 	mcr	15, 0, r2, cr7, cr5, {0}
    8214:	ee072f15 	mcr	15, 0, r2, cr7, cr5, {0}
    8218:	e320f000 	nop	{0}
    821c:	e320f000 	nop	{0}
    8220:	e320f000 	nop	{0}
    8224:	e320f000 	nop	{0}
    8228:	e320f000 	nop	{0}
    822c:	e320f000 	nop	{0}
    8230:	e320f000 	nop	{0}
    8234:	e320f000 	nop	{0}
    8238:	e320f000 	nop	{0}
    823c:	e320f000 	nop	{0}
    8240:	e320f000 	nop	{0}
    8244:	ee072f9a 	mcr	15, 0, r2, cr7, cr10, {4}
    8248:	ee082f17 	mcr	15, 0, r2, cr8, cr7, {0}
    824c:	ee072fd5 	mcr	15, 0, r2, cr7, cr5, {6}
    8250:	ee072f9a 	mcr	15, 0, r2, cr7, cr10, {4}
    8254:	ee072f95 	mcr	15, 0, r2, cr7, cr5, {4}
    8258:	e12fff1e 	bx	lr

0000825c <cp15_ctrl_reg1_get>:
    825c:	ee110f10 	mrc	15, 0, r0, cr1, cr0, {0}
    8260:	e12fff1e 	bx	lr

00008264 <cp15_ctrl_reg1_wr>:
    8264:	e3a02000 	mov	r2, #0, 0
    8268:	ee010f10 	mcr	15, 0, r0, cr1, cr0, {0}
    826c:	ee072f9a 	mcr	15, 0, r2, cr7, cr10, {4}
    8270:	ee072fd5 	mcr	15, 0, r2, cr7, cr5, {6}
    8274:	ee072f9a 	mcr	15, 0, r2, cr7, cr10, {4}
    8278:	ee072f95 	mcr	15, 0, r2, cr7, cr5, {4}
    827c:	e12fff1e 	bx	lr

00008280 <pin_mmu_enable>:
    8280:	e92d4010 	push	{r4, lr}
    8284:	eb000132 	bl	8754 <mmu_enable>
    8288:	e8bd8010 	pop	{r4, pc}

0000828c <pin_mmu_disable>:
    828c:	e92d4010 	push	{r4, lr}
    8290:	eb000107 	bl	86b4 <mmu_disable>
    8294:	e8bd8010 	pop	{r4, pc}

00008298 <pin_set_context>:
    8298:	e92d4010 	push	{r4, lr}
    829c:	e1a04000 	mov	r4, r0
    82a0:	e3a01901 	mov	r1, #16384	; 0x4000
    82a4:	e1a00001 	mov	r0, r1
    82a8:	eb0003a0 	bl	9130 <kmalloc_aligned>
    82ac:	e1a02000 	mov	r2, r0
    82b0:	e1a01004 	mov	r1, r4
    82b4:	e3a00080 	mov	r0, #128, 0	; 0x80
    82b8:	eb00013a 	bl	87a8 <mmu_set_ctx>
    82bc:	e8bd8010 	pop	{r4, pc}

000082c0 <pin_mmu_sec>:
    82c0:	e24dd008 	sub	sp, sp, #8, 0
    82c4:	e52de004 	push	{lr}		; (str lr, [sp, #-4]!)
    82c8:	e24dd00c 	sub	sp, sp, #12, 0
    82cc:	e58d3014 	str	r3, [sp, #20]
    82d0:	e3500007 	cmp	r0, #7, 0
    82d4:	8a00001c 	bhi	834c <pin_mmu_sec+0x8c>
    82d8:	eeaf0f54 	mcr	15, 5, r0, cr15, cr4, {2}
    82dc:	e3a00000 	mov	r0, #0, 0
    82e0:	ee070f95 	mcr	15, 0, r0, cr7, cr5, {4}
    82e4:	e59dc014 	ldr	ip, [sp, #20]
    82e8:	e59d3018 	ldr	r3, [sp, #24]
    82ec:	e183348c 	orr	r3, r3, ip, lsl #9
    82f0:	e1831001 	orr	r1, r3, r1
    82f4:	eeaf1f55 	mcr	15, 5, r1, cr15, cr5, {2}
    82f8:	ee070f95 	mcr	15, 0, r0, cr7, cr5, {4}
    82fc:	e5dd1025 	ldrb	r1, [sp, #37]	; 0x25
    8300:	e59d301c 	ldr	r3, [sp, #28]
    8304:	e1a03383 	lsl	r3, r3, #7
    8308:	e1833081 	orr	r3, r3, r1, lsl #1
    830c:	eeaf3f57 	mcr	15, 5, r3, cr15, cr7, {2}
    8310:	ee070f95 	mcr	15, 0, r0, cr7, cr5, {4}
    8314:	e5dd3024 	ldrb	r3, [sp, #36]	; 0x24
    8318:	e1a03083 	lsl	r3, r3, #1
    831c:	e3833001 	orr	r3, r3, #1, 0
    8320:	e59d1020 	ldr	r1, [sp, #32]
    8324:	e1833301 	orr	r3, r3, r1, lsl #6
    8328:	e1832002 	orr	r2, r3, r2
    832c:	eeaf2f56 	mcr	15, 5, r2, cr15, cr6, {2}
    8330:	ee070f95 	mcr	15, 0, r0, cr7, cr5, {4}
    8334:	ee070f9a 	mcr	15, 0, r0, cr7, cr10, {4}
    8338:	ee070f95 	mcr	15, 0, r0, cr7, cr5, {4}
    833c:	e28dd00c 	add	sp, sp, #12, 0
    8340:	e49de004 	pop	{lr}		; (ldr lr, [sp], #4)
    8344:	e28dd008 	add	sp, sp, #8, 0
    8348:	e12fff1e 	bx	lr
    834c:	e59f3018 	ldr	r3, [pc, #24]	; 836c <pin_mmu_sec+0xac>
    8350:	e58d3000 	str	r3, [sp]
    8354:	e3a03026 	mov	r3, #38, 0	; 0x26
    8358:	e59f2010 	ldr	r2, [pc, #16]	; 8370 <pin_mmu_sec+0xb0>
    835c:	e59f1010 	ldr	r1, [pc, #16]	; 8374 <pin_mmu_sec+0xb4>
    8360:	e59f0010 	ldr	r0, [pc, #16]	; 8378 <pin_mmu_sec+0xb8>
    8364:	eb000481 	bl	9570 <printk>
    8368:	eb0005b0 	bl	9a30 <clean_reboot>
    836c:	00009f44 	.word	0x00009f44
    8370:	0000a070 	.word	0x0000a070
    8374:	00009f08 	.word	0x00009f08
    8378:	00009f14 	.word	0x00009f14

0000837c <tlb_contains_va>:
    837c:	ee071f18 	mcr	15, 0, r1, cr7, cr8, {0}
    8380:	e3a03000 	mov	r3, #0, 0
    8384:	ee073f95 	mcr	15, 0, r3, cr7, cr5, {4}
    8388:	ee173f14 	mrc	15, 0, r3, cr7, cr4, {0}
    838c:	e2232001 	eor	r2, r3, #1, 0
    8390:	e3c33fff 	bic	r3, r3, #1020	; 0x3fc
    8394:	e3c33003 	bic	r3, r3, #3, 0
    8398:	e1a01b01 	lsl	r1, r1, #22
    839c:	e1a01b21 	lsr	r1, r1, #22
    83a0:	e1833001 	orr	r3, r3, r1
    83a4:	e5803000 	str	r3, [r0]
    83a8:	e2020001 	and	r0, r2, #1, 0
    83ac:	e12fff1e 	bx	lr

000083b0 <pin_exists>:
    83b0:	e52de004 	push	{lr}		; (str lr, [sp, #-4]!)
    83b4:	e24dd00c 	sub	sp, sp, #12, 0
    83b8:	e1a01000 	mov	r1, r0
    83bc:	e28d0004 	add	r0, sp, #4, 0
    83c0:	ebffffed 	bl	837c <tlb_contains_va>
    83c4:	e28dd00c 	add	sp, sp, #12, 0
    83c8:	e49df004 	pop	{pc}		; (ldr pc, [sp], #4)

000083cc <get_regs_idx>:
    83cc:	eeaf0f54 	mcr	15, 5, r0, cr15, cr4, {2}
    83d0:	e3a00000 	mov	r0, #0, 0
    83d4:	ee070f95 	mcr	15, 0, r0, cr7, cr5, {4}
    83d8:	eebf1f55 	mrc	15, 5, r1, cr15, cr5, {2}
    83dc:	eebf2f56 	mrc	15, 5, r2, cr15, cr6, {2}
    83e0:	eebf3f57 	mrc	15, 5, r3, cr15, cr7, {2}
    83e4:	ee070f9a 	mcr	15, 0, r0, cr7, cr10, {4}
    83e8:	ee070f95 	mcr	15, 0, r0, cr7, cr5, {4}
    83ec:	e5801000 	str	r1, [r0]
    83f0:	e5802004 	str	r2, [r0, #4]
    83f4:	e5803008 	str	r3, [r0, #8]
    83f8:	e12fff1e 	bx	lr

000083fc <lockdown_print_entry>:
    83fc:	e92d4ff0 	push	{r4, r5, r6, r7, r8, r9, sl, fp, lr}
    8400:	e24dd01c 	sub	sp, sp, #28, 0
    8404:	e1a07000 	mov	r7, r0
    8408:	e59f1140 	ldr	r1, [pc, #320]	; 8550 <lockdown_print_entry+0x154>
    840c:	e59f0140 	ldr	r0, [pc, #320]	; 8554 <lockdown_print_entry+0x158>
    8410:	eb000456 	bl	9570 <printk>
    8414:	e1a01007 	mov	r1, r7
    8418:	e59f0138 	ldr	r0, [pc, #312]	; 8558 <lockdown_print_entry+0x15c>
    841c:	eb000453 	bl	9570 <printk>
    8420:	e1a00007 	mov	r0, r7
    8424:	ebffffe8 	bl	83cc <get_regs_idx>
    8428:	e5906000 	ldr	r6, [r0]
    842c:	e5904004 	ldr	r4, [r0, #4]
    8430:	e5905008 	ldr	r5, [r0, #8]
    8434:	e214a001 	ands	sl, r4, #1, 0
    8438:	0a00003d 	beq	8534 <lockdown_print_entry+0x138>
    843c:	e1a03626 	lsr	r3, r6, #12
    8440:	e58d3010 	str	r3, [sp, #16]
    8444:	e1a094a6 	lsr	r9, r6, #9
    8448:	e2099001 	and	r9, r9, #1, 0
    844c:	e6efb076 	uxtb	fp, r6
    8450:	e59f80f8 	ldr	r8, [pc, #248]	; 8550 <lockdown_print_entry+0x154>
    8454:	e59f70f8 	ldr	r7, [pc, #248]	; 8554 <lockdown_print_entry+0x158>
    8458:	e1a01008 	mov	r1, r8
    845c:	e1a00007 	mov	r0, r7
    8460:	eb000442 	bl	9570 <printk>
    8464:	e58db000 	str	fp, [sp]
    8468:	e1a03009 	mov	r3, r9
    846c:	e59d2010 	ldr	r2, [sp, #16]
    8470:	e1a01006 	mov	r1, r6
    8474:	e59f00e0 	ldr	r0, [pc, #224]	; 855c <lockdown_print_entry+0x160>
    8478:	eb00043c 	bl	9570 <printk>
    847c:	e1a03624 	lsr	r3, r4, #12
    8480:	e58d3010 	str	r3, [sp, #16]
    8484:	e1a034a4 	lsr	r3, r4, #9
    8488:	e2031001 	and	r1, r3, #1, 0
    848c:	e58d1014 	str	r1, [sp, #20]
    8490:	e1a06424 	lsr	r6, r4, #8
    8494:	e2066001 	and	r6, r6, #1, 0
    8498:	e1a09324 	lsr	r9, r4, #6
    849c:	e2099003 	and	r9, r9, #3, 0
    84a0:	e1a0b0a4 	lsr	fp, r4, #1
    84a4:	e20bb003 	and	fp, fp, #3, 0
    84a8:	e1a01008 	mov	r1, r8
    84ac:	e1a00007 	mov	r0, r7
    84b0:	eb00042e 	bl	9570 <printk>
    84b4:	e58da00c 	str	sl, [sp, #12]
    84b8:	e58db008 	str	fp, [sp, #8]
    84bc:	e58d9004 	str	r9, [sp, #4]
    84c0:	e58d6000 	str	r6, [sp]
    84c4:	e59d3014 	ldr	r3, [sp, #20]
    84c8:	e59d2010 	ldr	r2, [sp, #16]
    84cc:	e1a01004 	mov	r1, r4
    84d0:	e59f0088 	ldr	r0, [pc, #136]	; 8560 <lockdown_print_entry+0x164>
    84d4:	eb000425 	bl	9570 <printk>
    84d8:	e1a043a5 	lsr	r4, r5, #7
    84dc:	e204400f 	and	r4, r4, #15, 0
    84e0:	e1a06325 	lsr	r6, r5, #6
    84e4:	e2066001 	and	r6, r6, #1, 0
    84e8:	e1a091a5 	lsr	r9, r5, #3
    84ec:	e2099007 	and	r9, r9, #7, 0
    84f0:	e1a0a125 	lsr	sl, r5, #2
    84f4:	e20aa001 	and	sl, sl, #1, 0
    84f8:	e1a0b0a5 	lsr	fp, r5, #1
    84fc:	e20bb001 	and	fp, fp, #1, 0
    8500:	e1a01008 	mov	r1, r8
    8504:	e1a00007 	mov	r0, r7
    8508:	eb000418 	bl	9570 <printk>
    850c:	e58db008 	str	fp, [sp, #8]
    8510:	e58da004 	str	sl, [sp, #4]
    8514:	e58d9000 	str	r9, [sp]
    8518:	e1a03006 	mov	r3, r6
    851c:	e1a02004 	mov	r2, r4
    8520:	e1a01005 	mov	r1, r5
    8524:	e59f0038 	ldr	r0, [pc, #56]	; 8564 <lockdown_print_entry+0x168>
    8528:	eb000410 	bl	9570 <printk>
    852c:	e28dd01c 	add	sp, sp, #28, 0
    8530:	e8bd8ff0 	pop	{r4, r5, r6, r7, r8, r9, sl, fp, pc}
    8534:	e59f1014 	ldr	r1, [pc, #20]	; 8550 <lockdown_print_entry+0x154>
    8538:	e59f0014 	ldr	r0, [pc, #20]	; 8554 <lockdown_print_entry+0x158>
    853c:	eb00040b 	bl	9570 <printk>
    8540:	e1a01007 	mov	r1, r7
    8544:	e59f001c 	ldr	r0, [pc, #28]	; 8568 <lockdown_print_entry+0x16c>
    8548:	eb000408 	bl	9570 <printk>
    854c:	eafffff6 	b	852c <lockdown_print_entry+0x130>
    8550:	0000a07c 	.word	0x0000a07c
    8554:	00009f4c 	.word	0x00009f4c
    8558:	00009f58 	.word	0x00009f58
    855c:	00009f80 	.word	0x00009f80
    8560:	00009fa4 	.word	0x00009fa4
    8564:	00009fe0 	.word	0x00009fe0
    8568:	00009f64 	.word	0x00009f64

0000856c <lockdown_print_entries>:
    856c:	e92d4070 	push	{r4, r5, r6, lr}
    8570:	e1a04000 	mov	r4, r0
    8574:	e59f6060 	ldr	r6, [pc, #96]	; 85dc <lockdown_print_entries+0x70>
    8578:	e59f5060 	ldr	r5, [pc, #96]	; 85e0 <lockdown_print_entries+0x74>
    857c:	e1a01006 	mov	r1, r6
    8580:	e1a00005 	mov	r0, r5
    8584:	eb0003f9 	bl	9570 <printk>
    8588:	e1a01004 	mov	r1, r4
    858c:	e59f0050 	ldr	r0, [pc, #80]	; 85e4 <lockdown_print_entries+0x78>
    8590:	eb0003f6 	bl	9570 <printk>
    8594:	e1a01006 	mov	r1, r6
    8598:	e1a00005 	mov	r0, r5
    859c:	eb0003f3 	bl	9570 <printk>
    85a0:	e59f0040 	ldr	r0, [pc, #64]	; 85e8 <lockdown_print_entries+0x7c>
    85a4:	eb0003f1 	bl	9570 <printk>
    85a8:	e3a04000 	mov	r4, #0, 0
    85ac:	ea000002 	b	85bc <lockdown_print_entries+0x50>
    85b0:	e1a00004 	mov	r0, r4
    85b4:	ebffff90 	bl	83fc <lockdown_print_entry>
    85b8:	e2844001 	add	r4, r4, #1, 0
    85bc:	e3540007 	cmp	r4, #7, 0
    85c0:	dafffffa 	ble	85b0 <lockdown_print_entries+0x44>
    85c4:	e59f1010 	ldr	r1, [pc, #16]	; 85dc <lockdown_print_entries+0x70>
    85c8:	e59f0010 	ldr	r0, [pc, #16]	; 85e0 <lockdown_print_entries+0x74>
    85cc:	eb0003e7 	bl	9570 <printk>
    85d0:	e59f0014 	ldr	r0, [pc, #20]	; 85ec <lockdown_print_entries+0x80>
    85d4:	eb0003e5 	bl	9570 <printk>
    85d8:	e8bd8070 	pop	{r4, r5, r6, pc}
    85dc:	0000a094 	.word	0x0000a094
    85e0:	00009f4c 	.word	0x00009f4c
    85e4:	0000a010 	.word	0x0000a010
    85e8:	0000a024 	.word	0x0000a024
    85ec:	0000a044 	.word	0x0000a044

000085f0 <pin_clear>:
    85f0:	e12fff1e 	bx	lr

000085f4 <pin_mmu_init>:
    85f4:	e92d4010 	push	{r4, lr}
    85f8:	e1a04000 	mov	r4, r0
    85fc:	eb00008a 	bl	882c <mmu_init>
    8600:	e1a00004 	mov	r0, r4
    8604:	eb0000ac 	bl	88bc <domain_access_ctrl_set>
    8608:	e8bd8010 	pop	{r4, pc}

0000860c <cp15_ctrl_reg1_rd>:
    860c:	e52de004 	push	{lr}		; (str lr, [sp, #-4]!)
    8610:	e24dd00c 	sub	sp, sp, #12, 0
    8614:	ebffff10 	bl	825c <cp15_ctrl_reg1_get>
    8618:	e58d0000 	str	r0, [sp]
    861c:	e3a02004 	mov	r2, #4, 0
    8620:	e1a0100d 	mov	r1, sp
    8624:	e08d0002 	add	r0, sp, r2
    8628:	eb00037d 	bl	9424 <memcpy>
    862c:	e59d0004 	ldr	r0, [sp, #4]
    8630:	e28dd00c 	add	sp, sp, #12, 0
    8634:	e49df004 	pop	{pc}		; (ldr pc, [sp], #4)

00008638 <mmu_is_enabled>:
    8638:	e92d4010 	push	{r4, lr}
    863c:	ebfffff2 	bl	860c <cp15_ctrl_reg1_rd>
    8640:	e2000001 	and	r0, r0, #1, 0
    8644:	e8bd8010 	pop	{r4, pc}

00008648 <mmu_disable_set>:
    8648:	e92d4030 	push	{r4, r5, lr}
    864c:	e24dd00c 	sub	sp, sp, #12, 0
    8650:	e3100001 	tst	r0, #1, 0
    8654:	1a000007 	bne	8678 <mmu_disable_set+0x30>
    8658:	e1a04000 	mov	r4, r0
    865c:	e1a05120 	lsr	r5, r0, #2
    8660:	e2055001 	and	r5, r5, #1, 0
    8664:	ebfffeb1 	bl	8130 <mmu_disable_set_asm>
    8668:	e3550000 	cmp	r5, #0, 0
    866c:	1a000009 	bne	8698 <mmu_disable_set+0x50>
    8670:	e28dd00c 	add	sp, sp, #12, 0
    8674:	e8bd8030 	pop	{r4, r5, pc}
    8678:	e59f3024 	ldr	r3, [pc, #36]	; 86a4 <mmu_disable_set+0x5c>
    867c:	e58d3000 	str	r3, [sp]
    8680:	e3a0301f 	mov	r3, #31, 0
    8684:	e59f201c 	ldr	r2, [pc, #28]	; 86a8 <mmu_disable_set+0x60>
    8688:	e59f101c 	ldr	r1, [pc, #28]	; 86ac <mmu_disable_set+0x64>
    868c:	e59f001c 	ldr	r0, [pc, #28]	; 86b0 <mmu_disable_set+0x68>
    8690:	eb0003b6 	bl	9570 <printk>
    8694:	eb0004e5 	bl	9a30 <clean_reboot>
    8698:	e3840004 	orr	r0, r4, #4, 0
    869c:	ebfffef0 	bl	8264 <cp15_ctrl_reg1_wr>
    86a0:	eafffff2 	b	8670 <mmu_disable_set+0x28>
    86a4:	0000a0b4 	.word	0x0000a0b4
    86a8:	0000a100 	.word	0x0000a100
    86ac:	0000a0ac 	.word	0x0000a0ac
    86b0:	00009f14 	.word	0x00009f14

000086b4 <mmu_disable>:
    86b4:	e52de004 	push	{lr}		; (str lr, [sp, #-4]!)
    86b8:	e24dd00c 	sub	sp, sp, #12, 0
    86bc:	ebffffd2 	bl	860c <cp15_ctrl_reg1_rd>
    86c0:	e3100001 	tst	r0, #1, 0
    86c4:	0a000003 	beq	86d8 <mmu_disable+0x24>
    86c8:	e3c00001 	bic	r0, r0, #1, 0
    86cc:	ebffffdd 	bl	8648 <mmu_disable_set>
    86d0:	e28dd00c 	add	sp, sp, #12, 0
    86d4:	e49df004 	pop	{pc}		; (ldr pc, [sp], #4)
    86d8:	e59f3018 	ldr	r3, [pc, #24]	; 86f8 <mmu_disable+0x44>
    86dc:	e58d3000 	str	r3, [sp]
    86e0:	e3a03033 	mov	r3, #51, 0	; 0x33
    86e4:	e59f2010 	ldr	r2, [pc, #16]	; 86fc <mmu_disable+0x48>
    86e8:	e59f1010 	ldr	r1, [pc, #16]	; 8700 <mmu_disable+0x4c>
    86ec:	e59f0010 	ldr	r0, [pc, #16]	; 8704 <mmu_disable+0x50>
    86f0:	eb00039e 	bl	9570 <printk>
    86f4:	eb0004cd 	bl	9a30 <clean_reboot>
    86f8:	0000a0c4 	.word	0x0000a0c4
    86fc:	0000a110 	.word	0x0000a110
    8700:	0000a0ac 	.word	0x0000a0ac
    8704:	00009f14 	.word	0x00009f14

00008708 <mmu_enable_set>:
    8708:	e52de004 	push	{lr}		; (str lr, [sp, #-4]!)
    870c:	e24dd00c 	sub	sp, sp, #12, 0
    8710:	e3100001 	tst	r0, #1, 0
    8714:	0a000002 	beq	8724 <mmu_enable_set+0x1c>
    8718:	ebfffe9c 	bl	8190 <mmu_enable_set_asm>
    871c:	e28dd00c 	add	sp, sp, #12, 0
    8720:	e49df004 	pop	{pc}		; (ldr pc, [sp], #4)
    8724:	e59f3018 	ldr	r3, [pc, #24]	; 8744 <mmu_enable_set+0x3c>
    8728:	e58d3000 	str	r3, [sp]
    872c:	e3a0303d 	mov	r3, #61, 0	; 0x3d
    8730:	e59f2010 	ldr	r2, [pc, #16]	; 8748 <mmu_enable_set+0x40>
    8734:	e59f1010 	ldr	r1, [pc, #16]	; 874c <mmu_enable_set+0x44>
    8738:	e59f0010 	ldr	r0, [pc, #16]	; 8750 <mmu_enable_set+0x48>
    873c:	eb00038b 	bl	9570 <printk>
    8740:	eb0004ba 	bl	9a30 <clean_reboot>
    8744:	0000a0c4 	.word	0x0000a0c4
    8748:	0000a11c 	.word	0x0000a11c
    874c:	0000a0ac 	.word	0x0000a0ac
    8750:	00009f14 	.word	0x00009f14

00008754 <mmu_enable>:
    8754:	e52de004 	push	{lr}		; (str lr, [sp, #-4]!)
    8758:	e24dd00c 	sub	sp, sp, #12, 0
    875c:	ebffffaa 	bl	860c <cp15_ctrl_reg1_rd>
    8760:	e3100001 	tst	r0, #1, 0
    8764:	1a000003 	bne	8778 <mmu_enable+0x24>
    8768:	e3800001 	orr	r0, r0, #1, 0
    876c:	ebffffe5 	bl	8708 <mmu_enable_set>
    8770:	e28dd00c 	add	sp, sp, #12, 0
    8774:	e49df004 	pop	{pc}		; (ldr pc, [sp], #4)
    8778:	e59f3018 	ldr	r3, [pc, #24]	; 8798 <mmu_enable+0x44>
    877c:	e58d3000 	str	r3, [sp]
    8780:	e3a03044 	mov	r3, #68, 0	; 0x44
    8784:	e59f2010 	ldr	r2, [pc, #16]	; 879c <mmu_enable+0x48>
    8788:	e59f1010 	ldr	r1, [pc, #16]	; 87a0 <mmu_enable+0x4c>
    878c:	e59f0010 	ldr	r0, [pc, #16]	; 87a4 <mmu_enable+0x50>
    8790:	eb000376 	bl	9570 <printk>
    8794:	eb0004a5 	bl	9a30 <clean_reboot>
    8798:	0000a0b4 	.word	0x0000a0b4
    879c:	0000a12c 	.word	0x0000a12c
    87a0:	0000a0ac 	.word	0x0000a0ac
    87a4:	00009f14 	.word	0x00009f14

000087a8 <mmu_set_ctx>:
    87a8:	e52de004 	push	{lr}		; (str lr, [sp, #-4]!)
    87ac:	e24dd00c 	sub	sp, sp, #12, 0
    87b0:	e1a03001 	mov	r3, r1
    87b4:	e3530000 	cmp	r3, #0, 0
    87b8:	0a000006 	beq	87d8 <mmu_set_ctx+0x30>
    87bc:	e1a01002 	mov	r1, r2
    87c0:	e353003f 	cmp	r3, #63, 0	; 0x3f
    87c4:	8a00000b 	bhi	87f8 <mmu_set_ctx+0x50>
    87c8:	e1830400 	orr	r0, r3, r0, lsl #8
    87cc:	ebfffe4a 	bl	80fc <cp15_set_procid_ttbr0>
    87d0:	e28dd00c 	add	sp, sp, #12, 0
    87d4:	e49df004 	pop	{pc}		; (ldr pc, [sp], #4)
    87d8:	e59f3038 	ldr	r3, [pc, #56]	; 8818 <mmu_set_ctx+0x70>
    87dc:	e58d3000 	str	r3, [sp]
    87e0:	e3a0304b 	mov	r3, #75, 0	; 0x4b
    87e4:	e59f2030 	ldr	r2, [pc, #48]	; 881c <mmu_set_ctx+0x74>
    87e8:	e59f1030 	ldr	r1, [pc, #48]	; 8820 <mmu_set_ctx+0x78>
    87ec:	e59f0030 	ldr	r0, [pc, #48]	; 8824 <mmu_set_ctx+0x7c>
    87f0:	eb00035e 	bl	9570 <printk>
    87f4:	eb00048d 	bl	9a30 <clean_reboot>
    87f8:	e59f3028 	ldr	r3, [pc, #40]	; 8828 <mmu_set_ctx+0x80>
    87fc:	e58d3000 	str	r3, [sp]
    8800:	e3a0304c 	mov	r3, #76, 0	; 0x4c
    8804:	e59f2010 	ldr	r2, [pc, #16]	; 881c <mmu_set_ctx+0x74>
    8808:	e59f1010 	ldr	r1, [pc, #16]	; 8820 <mmu_set_ctx+0x78>
    880c:	e59f0010 	ldr	r0, [pc, #16]	; 8824 <mmu_set_ctx+0x7c>
    8810:	eb000356 	bl	9570 <printk>
    8814:	eb000485 	bl	9a30 <clean_reboot>
    8818:	0000a0d4 	.word	0x0000a0d4
    881c:	0000a138 	.word	0x0000a138
    8820:	0000a0ac 	.word	0x0000a0ac
    8824:	00009f14 	.word	0x00009f14
    8828:	0000a0dc 	.word	0x0000a0dc

0000882c <mmu_init>:
    882c:	e52de004 	push	{lr}		; (str lr, [sp, #-4]!)
    8830:	e24dd00c 	sub	sp, sp, #12, 0
    8834:	ebfffe16 	bl	8094 <mmu_reset>
    8838:	ebffff73 	bl	860c <cp15_ctrl_reg1_rd>
    883c:	e3800502 	orr	r0, r0, #8388608	; 0x800000
    8840:	ebfffe87 	bl	8264 <cp15_ctrl_reg1_wr>
    8844:	ebffff70 	bl	860c <cp15_ctrl_reg1_rd>
    8848:	e3100502 	tst	r0, #8388608	; 0x800000
    884c:	0a000003 	beq	8860 <mmu_init+0x34>
    8850:	e3100001 	tst	r0, #1, 0
    8854:	1a000009 	bne	8880 <mmu_init+0x54>
    8858:	e28dd00c 	add	sp, sp, #12, 0
    885c:	e49df004 	pop	{pc}		; (ldr pc, [sp], #4)
    8860:	e59f3038 	ldr	r3, [pc, #56]	; 88a0 <mmu_init+0x74>
    8864:	e58d3000 	str	r3, [sp]
    8868:	e3a03067 	mov	r3, #103, 0	; 0x67
    886c:	e59f2030 	ldr	r2, [pc, #48]	; 88a4 <mmu_init+0x78>
    8870:	e59f1030 	ldr	r1, [pc, #48]	; 88a8 <mmu_init+0x7c>
    8874:	e59f0030 	ldr	r0, [pc, #48]	; 88ac <mmu_init+0x80>
    8878:	eb00033c 	bl	9570 <printk>
    887c:	eb00046b 	bl	9a30 <clean_reboot>
    8880:	e59f3028 	ldr	r3, [pc, #40]	; 88b0 <mmu_init+0x84>
    8884:	e58d3000 	str	r3, [sp]
    8888:	e3a03068 	mov	r3, #104, 0	; 0x68
    888c:	e59f2010 	ldr	r2, [pc, #16]	; 88a4 <mmu_init+0x78>
    8890:	e59f1010 	ldr	r1, [pc, #16]	; 88a8 <mmu_init+0x7c>
    8894:	e59f0010 	ldr	r0, [pc, #16]	; 88ac <mmu_init+0x80>
    8898:	eb000334 	bl	9570 <printk>
    889c:	eb000463 	bl	9a30 <clean_reboot>
    88a0:	0000a0e4 	.word	0x0000a0e4
    88a4:	0000a144 	.word	0x0000a144
    88a8:	0000a0ac 	.word	0x0000a0ac
    88ac:	00009f14 	.word	0x00009f14
    88b0:	0000a0f0 	.word	0x0000a0f0

000088b4 <domain_access_ctrl_get>:
    88b4:	ee130f10 	mrc	15, 0, r0, cr3, cr0, {0}
    88b8:	e12fff1e 	bx	lr

000088bc <domain_access_ctrl_set>:
    88bc:	e92d4010 	push	{r4, lr}
    88c0:	ebfffe09 	bl	80ec <cp15_domain_ctrl_wr>
    88c4:	e8bd8010 	pop	{r4, pc}

000088c8 <bits_mask>:
    88c8:	e3500020 	cmp	r0, #32, 0
    88cc:	0a00000f 	beq	8910 <bits_mask+0x48>
    88d0:	e350001f 	cmp	r0, #31, 0
    88d4:	8a000003 	bhi	88e8 <bits_mask+0x20>
    88d8:	e3a03001 	mov	r3, #1, 0
    88dc:	e1a00013 	lsl	r0, r3, r0
    88e0:	e2400001 	sub	r0, r0, #1, 0
    88e4:	e12fff1e 	bx	lr
    88e8:	e52de004 	push	{lr}		; (str lr, [sp, #-4]!)
    88ec:	e24dd00c 	sub	sp, sp, #12, 0
    88f0:	e59f3020 	ldr	r3, [pc, #32]	; 8918 <bits_mask+0x50>
    88f4:	e58d3000 	str	r3, [sp]
    88f8:	e3a03033 	mov	r3, #51, 0	; 0x33
    88fc:	e59f2018 	ldr	r2, [pc, #24]	; 891c <bits_mask+0x54>
    8900:	e59f1018 	ldr	r1, [pc, #24]	; 8920 <bits_mask+0x58>
    8904:	e59f0018 	ldr	r0, [pc, #24]	; 8924 <bits_mask+0x5c>
    8908:	eb000318 	bl	9570 <printk>
    890c:	eb000447 	bl	9a30 <clean_reboot>
    8910:	e3e00000 	mvn	r0, #0, 0
    8914:	e12fff1e 	bx	lr
    8918:	0000a18c 	.word	0x0000a18c
    891c:	0000a468 	.word	0x0000a468
    8920:	0000a150 	.word	0x0000a150
    8924:	00009f14 	.word	0x00009f14

00008928 <mode_get>:
    8928:	e92d4010 	push	{r4, lr}
    892c:	e24dd008 	sub	sp, sp, #8, 0
    8930:	e1a04000 	mov	r4, r0
    8934:	e3a00005 	mov	r0, #5, 0
    8938:	ebffffe2 	bl	88c8 <bits_mask>
    893c:	e0000004 	and	r0, r0, r4
    8940:	e3500012 	cmp	r0, #18, 0
    8944:	13500010 	cmpne	r0, #16, 0
    8948:	0a000005 	beq	8964 <mode_get+0x3c>
    894c:	e3500017 	cmp	r0, #23, 0
    8950:	13500013 	cmpne	r0, #19, 0
    8954:	0a000002 	beq	8964 <mode_get+0x3c>
    8958:	e350001f 	cmp	r0, #31, 0
    895c:	1350001b 	cmpne	r0, #27, 0
    8960:	1a000001 	bne	896c <mode_get+0x44>
    8964:	e28dd008 	add	sp, sp, #8, 0
    8968:	e8bd8010 	pop	{r4, pc}
    896c:	e58d0004 	str	r0, [sp, #4]
    8970:	e58d0000 	str	r0, [sp]
    8974:	e3a03013 	mov	r3, #19, 0
    8978:	e59f200c 	ldr	r2, [pc, #12]	; 898c <mode_get+0x64>
    897c:	e59f100c 	ldr	r1, [pc, #12]	; 8990 <mode_get+0x68>
    8980:	e59f000c 	ldr	r0, [pc, #12]	; 8994 <mode_get+0x6c>
    8984:	eb0002f9 	bl	9570 <printk>
    8988:	eb000428 	bl	9a30 <clean_reboot>
    898c:	0000a474 	.word	0x0000a474
    8990:	0000a1a4 	.word	0x0000a1a4
    8994:	0000a1e0 	.word	0x0000a1e0

00008998 <fixup_regs>:
    8998:	e92d4070 	push	{r4, r5, r6, lr}
    899c:	e1a05000 	mov	r5, r0
    89a0:	e1a04001 	mov	r4, r1
    89a4:	e1a00001 	mov	r0, r1
    89a8:	ebffffde 	bl	8928 <mode_get>
    89ac:	e3500010 	cmp	r0, #16, 0
    89b0:	08bd8070 	popeq	{r4, r5, r6, pc}
    89b4:	e2852038 	add	r2, r5, #56, 0	; 0x38
    89b8:	e2851034 	add	r1, r5, #52, 0	; 0x34
    89bc:	e1a00004 	mov	r0, r4
    89c0:	eb000941 	bl	aecc <priv_get_sp_lr_asm>
    89c4:	e8bd8070 	pop	{r4, r5, r6, pc}

000089c8 <switchto>:
    89c8:	e92d4010 	push	{r4, lr}
    89cc:	e1a04000 	mov	r4, r0
    89d0:	e5900040 	ldr	r0, [r0, #64]	; 0x40
    89d4:	ebffffd3 	bl	8928 <mode_get>
    89d8:	e3500010 	cmp	r0, #16, 0
    89dc:	0a000001 	beq	89e8 <switchto+0x20>
    89e0:	e1a00004 	mov	r0, r4
    89e4:	eb000925 	bl	ae80 <switchto_priv_asm>
    89e8:	e1a00004 	mov	r0, r4
    89ec:	eb000911 	bl	ae38 <switchto_user_asm>

000089f0 <prefetch_abort_full_except>:
    89f0:	e52de004 	push	{lr}		; (str lr, [sp, #-4]!)
    89f4:	e24dd00c 	sub	sp, sp, #12, 0
    89f8:	e5903040 	ldr	r3, [r0, #64]	; 0x40
    89fc:	e1530001 	cmp	r3, r1
    8a00:	1a00000e 	bne	8a40 <prefetch_abort_full_except+0x50>
    8a04:	e1a04000 	mov	r4, r0
    8a08:	e590303c 	ldr	r3, [r0, #60]	; 0x3c
    8a0c:	e1530002 	cmp	r3, r2
    8a10:	1a000012 	bne	8a60 <prefetch_abort_full_except+0x70>
    8a14:	e59f3080 	ldr	r3, [pc, #128]	; 8a9c <prefetch_abort_full_except+0xac>
    8a18:	e5933000 	ldr	r3, [r3]
    8a1c:	e3530000 	cmp	r3, #0, 0
    8a20:	0a000016 	beq	8a80 <prefetch_abort_full_except+0x90>
    8a24:	ebffffdb 	bl	8998 <fixup_regs>
    8a28:	e59f306c 	ldr	r3, [pc, #108]	; 8a9c <prefetch_abort_full_except+0xac>
    8a2c:	e5933000 	ldr	r3, [r3]
    8a30:	e1a00004 	mov	r0, r4
    8a34:	e12fff33 	blx	r3
    8a38:	e1a00004 	mov	r0, r4
    8a3c:	ebffffe1 	bl	89c8 <switchto>
    8a40:	e59f3058 	ldr	r3, [pc, #88]	; 8aa0 <prefetch_abort_full_except+0xb0>
    8a44:	e58d3000 	str	r3, [sp]
    8a48:	e3a03031 	mov	r3, #49, 0	; 0x31
    8a4c:	e59f2050 	ldr	r2, [pc, #80]	; 8aa4 <prefetch_abort_full_except+0xb4>
    8a50:	e59f1050 	ldr	r1, [pc, #80]	; 8aa8 <prefetch_abort_full_except+0xb8>
    8a54:	e59f0050 	ldr	r0, [pc, #80]	; 8aac <prefetch_abort_full_except+0xbc>
    8a58:	eb0002c4 	bl	9570 <printk>
    8a5c:	eb0003f3 	bl	9a30 <clean_reboot>
    8a60:	e59f3048 	ldr	r3, [pc, #72]	; 8ab0 <prefetch_abort_full_except+0xc0>
    8a64:	e58d3000 	str	r3, [sp]
    8a68:	e3a03032 	mov	r3, #50, 0	; 0x32
    8a6c:	e59f2030 	ldr	r2, [pc, #48]	; 8aa4 <prefetch_abort_full_except+0xb4>
    8a70:	e59f1030 	ldr	r1, [pc, #48]	; 8aa8 <prefetch_abort_full_except+0xb8>
    8a74:	e59f0030 	ldr	r0, [pc, #48]	; 8aac <prefetch_abort_full_except+0xbc>
    8a78:	eb0002bc 	bl	9570 <printk>
    8a7c:	eb0003eb 	bl	9a30 <clean_reboot>
    8a80:	e58d2000 	str	r2, [sp]
    8a84:	e3a03035 	mov	r3, #53, 0	; 0x35
    8a88:	e59f2014 	ldr	r2, [pc, #20]	; 8aa4 <prefetch_abort_full_except+0xb4>
    8a8c:	e59f1014 	ldr	r1, [pc, #20]	; 8aa8 <prefetch_abort_full_except+0xb8>
    8a90:	e59f001c 	ldr	r0, [pc, #28]	; 8ab4 <prefetch_abort_full_except+0xc4>
    8a94:	eb0002b5 	bl	9570 <printk>
    8a98:	eb0003e4 	bl	9a30 <clean_reboot>
    8a9c:	0000b0c0 	.word	0x0000b0c0
    8aa0:	0000a220 	.word	0x0000a220
    8aa4:	0000a480 	.word	0x0000a480
    8aa8:	0000a20c 	.word	0x0000a20c
    8aac:	00009f14 	.word	0x00009f14
    8ab0:	0000a23c 	.word	0x0000a23c
    8ab4:	0000a254 	.word	0x0000a254

00008ab8 <data_abort_full_except>:
    8ab8:	e52de004 	push	{lr}		; (str lr, [sp, #-4]!)
    8abc:	e24dd00c 	sub	sp, sp, #12, 0
    8ac0:	e5903040 	ldr	r3, [r0, #64]	; 0x40
    8ac4:	e1530001 	cmp	r3, r1
    8ac8:	1a00000e 	bne	8b08 <data_abort_full_except+0x50>
    8acc:	e1a04000 	mov	r4, r0
    8ad0:	e590303c 	ldr	r3, [r0, #60]	; 0x3c
    8ad4:	e1530002 	cmp	r3, r2
    8ad8:	1a000012 	bne	8b28 <data_abort_full_except+0x70>
    8adc:	e59f3080 	ldr	r3, [pc, #128]	; 8b64 <data_abort_full_except+0xac>
    8ae0:	e5933004 	ldr	r3, [r3, #4]
    8ae4:	e3530000 	cmp	r3, #0, 0
    8ae8:	0a000016 	beq	8b48 <data_abort_full_except+0x90>
    8aec:	ebffffa9 	bl	8998 <fixup_regs>
    8af0:	e59f306c 	ldr	r3, [pc, #108]	; 8b64 <data_abort_full_except+0xac>
    8af4:	e5933004 	ldr	r3, [r3, #4]
    8af8:	e1a00004 	mov	r0, r4
    8afc:	e12fff33 	blx	r3
    8b00:	e1a00004 	mov	r0, r4
    8b04:	ebffffaf 	bl	89c8 <switchto>
    8b08:	e59f3058 	ldr	r3, [pc, #88]	; 8b68 <data_abort_full_except+0xb0>
    8b0c:	e58d3000 	str	r3, [sp]
    8b10:	e3a0303e 	mov	r3, #62, 0	; 0x3e
    8b14:	e59f2050 	ldr	r2, [pc, #80]	; 8b6c <data_abort_full_except+0xb4>
    8b18:	e59f1050 	ldr	r1, [pc, #80]	; 8b70 <data_abort_full_except+0xb8>
    8b1c:	e59f0050 	ldr	r0, [pc, #80]	; 8b74 <data_abort_full_except+0xbc>
    8b20:	eb000292 	bl	9570 <printk>
    8b24:	eb0003c1 	bl	9a30 <clean_reboot>
    8b28:	e59f3048 	ldr	r3, [pc, #72]	; 8b78 <data_abort_full_except+0xc0>
    8b2c:	e58d3000 	str	r3, [sp]
    8b30:	e3a0303f 	mov	r3, #63, 0	; 0x3f
    8b34:	e59f2030 	ldr	r2, [pc, #48]	; 8b6c <data_abort_full_except+0xb4>
    8b38:	e59f1030 	ldr	r1, [pc, #48]	; 8b70 <data_abort_full_except+0xb8>
    8b3c:	e59f0030 	ldr	r0, [pc, #48]	; 8b74 <data_abort_full_except+0xbc>
    8b40:	eb00028a 	bl	9570 <printk>
    8b44:	eb0003b9 	bl	9a30 <clean_reboot>
    8b48:	e58d2000 	str	r2, [sp]
    8b4c:	e3a03042 	mov	r3, #66, 0	; 0x42
    8b50:	e59f2014 	ldr	r2, [pc, #20]	; 8b6c <data_abort_full_except+0xb4>
    8b54:	e59f1014 	ldr	r1, [pc, #20]	; 8b70 <data_abort_full_except+0xb8>
    8b58:	e59f001c 	ldr	r0, [pc, #28]	; 8b7c <data_abort_full_except+0xc4>
    8b5c:	eb000283 	bl	9570 <printk>
    8b60:	eb0003b2 	bl	9a30 <clean_reboot>
    8b64:	0000b0c0 	.word	0x0000b0c0
    8b68:	0000a220 	.word	0x0000a220
    8b6c:	0000a49c 	.word	0x0000a49c
    8b70:	0000a20c 	.word	0x0000a20c
    8b74:	00009f14 	.word	0x00009f14
    8b78:	0000a23c 	.word	0x0000a23c
    8b7c:	0000a28c 	.word	0x0000a28c

00008b80 <syscall_full_except>:
    8b80:	e52de004 	push	{lr}		; (str lr, [sp, #-4]!)
    8b84:	e24dd014 	sub	sp, sp, #20, 0
    8b88:	e5903040 	ldr	r3, [r0, #64]	; 0x40
    8b8c:	e1530001 	cmp	r3, r1
    8b90:	1a00000c 	bne	8bc8 <syscall_full_except+0x48>
    8b94:	e1a04000 	mov	r4, r0
    8b98:	e1a05002 	mov	r5, r2
    8b9c:	e590303c 	ldr	r3, [r0, #60]	; 0x3c
    8ba0:	e1530002 	cmp	r3, r2
    8ba4:	0a00000f 	beq	8be8 <syscall_full_except+0x68>
    8ba8:	e59f30d0 	ldr	r3, [pc, #208]	; 8c80 <syscall_full_except+0x100>
    8bac:	e58d3000 	str	r3, [sp]
    8bb0:	e3a0304d 	mov	r3, #77, 0	; 0x4d
    8bb4:	e59f20c8 	ldr	r2, [pc, #200]	; 8c84 <syscall_full_except+0x104>
    8bb8:	e59f10c8 	ldr	r1, [pc, #200]	; 8c88 <syscall_full_except+0x108>
    8bbc:	e59f00c8 	ldr	r0, [pc, #200]	; 8c8c <syscall_full_except+0x10c>
    8bc0:	eb00026a 	bl	9570 <printk>
    8bc4:	eb000399 	bl	9a30 <clean_reboot>
    8bc8:	e59f30c0 	ldr	r3, [pc, #192]	; 8c90 <syscall_full_except+0x110>
    8bcc:	e58d3000 	str	r3, [sp]
    8bd0:	e3a0304c 	mov	r3, #76, 0	; 0x4c
    8bd4:	e59f20a8 	ldr	r2, [pc, #168]	; 8c84 <syscall_full_except+0x104>
    8bd8:	e59f10a8 	ldr	r1, [pc, #168]	; 8c88 <syscall_full_except+0x108>
    8bdc:	e59f00a8 	ldr	r0, [pc, #168]	; 8c8c <syscall_full_except+0x10c>
    8be0:	eb000262 	bl	9570 <printk>
    8be4:	eb000391 	bl	9a30 <clean_reboot>
    8be8:	e1a00001 	mov	r0, r1
    8bec:	ebffff4d 	bl	8928 <mode_get>
    8bf0:	e3500010 	cmp	r0, #16, 0
    8bf4:	1a00000c 	bne	8c2c <syscall_full_except+0xac>
    8bf8:	e28d200c 	add	r2, sp, #12, 0
    8bfc:	e59f3090 	ldr	r3, [pc, #144]	; 8c94 <syscall_full_except+0x114>
    8c00:	e1520003 	cmp	r2, r3
    8c04:	9a00000e 	bls	8c44 <syscall_full_except+0xc4>
    8c08:	e59f3088 	ldr	r3, [pc, #136]	; 8c98 <syscall_full_except+0x118>
    8c0c:	e5933008 	ldr	r3, [r3, #8]
    8c10:	e3530000 	cmp	r3, #0, 0
    8c14:	0a000012 	beq	8c64 <syscall_full_except+0xe4>
    8c18:	e1a00004 	mov	r0, r4
    8c1c:	e12fff33 	blx	r3
    8c20:	e5840000 	str	r0, [r4]
    8c24:	e1a00004 	mov	r0, r4
    8c28:	ebffff66 	bl	89c8 <switchto>
    8c2c:	e3a03050 	mov	r3, #80, 0	; 0x50
    8c30:	e59f204c 	ldr	r2, [pc, #76]	; 8c84 <syscall_full_except+0x104>
    8c34:	e59f104c 	ldr	r1, [pc, #76]	; 8c88 <syscall_full_except+0x108>
    8c38:	e59f005c 	ldr	r0, [pc, #92]	; 8c9c <syscall_full_except+0x11c>
    8c3c:	eb00024b 	bl	9570 <printk>
    8c40:	eb00037a 	bl	9a30 <clean_reboot>
    8c44:	e59f3054 	ldr	r3, [pc, #84]	; 8ca0 <syscall_full_except+0x120>
    8c48:	e58d3000 	str	r3, [sp]
    8c4c:	e3a03055 	mov	r3, #85, 0	; 0x55
    8c50:	e59f202c 	ldr	r2, [pc, #44]	; 8c84 <syscall_full_except+0x104>
    8c54:	e59f102c 	ldr	r1, [pc, #44]	; 8c88 <syscall_full_except+0x108>
    8c58:	e59f0044 	ldr	r0, [pc, #68]	; 8ca4 <syscall_full_except+0x124>
    8c5c:	eb000243 	bl	9570 <printk>
    8c60:	eb000372 	bl	9a30 <clean_reboot>
    8c64:	e58d5000 	str	r5, [sp]
    8c68:	e3a0305a 	mov	r3, #90, 0	; 0x5a
    8c6c:	e59f2010 	ldr	r2, [pc, #16]	; 8c84 <syscall_full_except+0x104>
    8c70:	e59f1010 	ldr	r1, [pc, #16]	; 8c88 <syscall_full_except+0x108>
    8c74:	e59f002c 	ldr	r0, [pc, #44]	; 8ca8 <syscall_full_except+0x128>
    8c78:	eb00023c 	bl	9570 <printk>
    8c7c:	eb00036b 	bl	9a30 <clean_reboot>
    8c80:	0000a23c 	.word	0x0000a23c
    8c84:	0000a4b4 	.word	0x0000a4b4
    8c88:	0000a20c 	.word	0x0000a20c
    8c8c:	00009f14 	.word	0x00009f14
    8c90:	0000a220 	.word	0x0000a220
    8c94:	000186a0 	.word	0x000186a0
    8c98:	0000b0c0 	.word	0x0000b0c0
    8c9c:	0000a2c0 	.word	0x0000a2c0
    8ca0:	0000a340 	.word	0x0000a340
    8ca4:	0000a2fc 	.word	0x0000a2fc
    8ca8:	0000a358 	.word	0x0000a358

00008cac <full_except_set_prefetch>:
    8cac:	e59f300c 	ldr	r3, [pc, #12]	; 8cc0 <full_except_set_prefetch+0x14>
    8cb0:	e5932000 	ldr	r2, [r3]
    8cb4:	e5830000 	str	r0, [r3]
    8cb8:	e1a00002 	mov	r0, r2
    8cbc:	e12fff1e 	bx	lr
    8cc0:	0000b0c0 	.word	0x0000b0c0

00008cc4 <full_except_set_data_abort>:
    8cc4:	e59f300c 	ldr	r3, [pc, #12]	; 8cd8 <full_except_set_data_abort+0x14>
    8cc8:	e5932004 	ldr	r2, [r3, #4]
    8ccc:	e5830004 	str	r0, [r3, #4]
    8cd0:	e1a00002 	mov	r0, r2
    8cd4:	e12fff1e 	bx	lr
    8cd8:	0000b0c0 	.word	0x0000b0c0

00008cdc <full_except_set_syscall>:
    8cdc:	e59f300c 	ldr	r3, [pc, #12]	; 8cf0 <full_except_set_syscall+0x14>
    8ce0:	e5932008 	ldr	r2, [r3, #8]
    8ce4:	e5830008 	str	r0, [r3, #8]
    8ce8:	e1a00002 	mov	r0, r2
    8cec:	e12fff1e 	bx	lr
    8cf0:	0000b0c0 	.word	0x0000b0c0

00008cf4 <full_except_install>:
    8cf4:	e52de004 	push	{lr}		; (str lr, [sp, #-4]!)
    8cf8:	e24dd00c 	sub	sp, sp, #12, 0
    8cfc:	e3500000 	cmp	r0, #0, 0
    8d00:	1a000007 	bne	8d24 <full_except_install+0x30>
    8d04:	ee1c3f10 	mrc	15, 0, r3, cr12, cr0, {0}
    8d08:	e3530000 	cmp	r3, #0, 0
    8d0c:	0a000030 	beq	8dd4 <full_except_install+0xe0>
    8d10:	e59f217c 	ldr	r2, [pc, #380]	; 8e94 <full_except_install+0x1a0>
    8d14:	e1530002 	cmp	r3, r2
    8d18:	1a000056 	bne	8e78 <full_except_install+0x184>
    8d1c:	e28dd00c 	add	sp, sp, #12, 0
    8d20:	e49df004 	pop	{pc}		; (ldr pc, [sp], #4)
    8d24:	e59f3168 	ldr	r3, [pc, #360]	; 8e94 <full_except_install+0x1a0>
    8d28:	e313001f 	tst	r3, #31, 0
    8d2c:	1a000017 	bne	8d90 <full_except_install+0x9c>
    8d30:	e3a03001 	mov	r3, #1, 0
    8d34:	e3530000 	cmp	r3, #0, 0
    8d38:	0a000016 	beq	8d98 <full_except_install+0xa4>
    8d3c:	ee1c3f10 	mrc	15, 0, r3, cr12, cr0, {0}
    8d40:	e59f214c 	ldr	r2, [pc, #332]	; 8e94 <full_except_install+0x1a0>
    8d44:	e1530002 	cmp	r3, r2
    8d48:	0afffff3 	beq	8d1c <full_except_install+0x28>
    8d4c:	e3530000 	cmp	r3, #0, 0
    8d50:	1a000018 	bne	8db8 <full_except_install+0xc4>
    8d54:	e59f3138 	ldr	r3, [pc, #312]	; 8e94 <full_except_install+0x1a0>
    8d58:	ee0c3f10 	mcr	15, 0, r3, cr12, cr0, {0}
    8d5c:	e3a02000 	mov	r2, #0, 0
    8d60:	ee072f95 	mcr	15, 0, r2, cr7, cr5, {4}
    8d64:	ee1c2f10 	mrc	15, 0, r2, cr12, cr0, {0}
    8d68:	e1520003 	cmp	r2, r3
    8d6c:	0affffea 	beq	8d1c <full_except_install+0x28>
    8d70:	e58d2004 	str	r2, [sp, #4]
    8d74:	e58d3000 	str	r3, [sp]
    8d78:	e3a03036 	mov	r3, #54, 0	; 0x36
    8d7c:	e59f2114 	ldr	r2, [pc, #276]	; 8e98 <full_except_install+0x1a4>
    8d80:	e59f1114 	ldr	r1, [pc, #276]	; 8e9c <full_except_install+0x1a8>
    8d84:	e59f0114 	ldr	r0, [pc, #276]	; 8ea0 <full_except_install+0x1ac>
    8d88:	eb0001f8 	bl	9570 <printk>
    8d8c:	eb000327 	bl	9a30 <clean_reboot>
    8d90:	e3a03000 	mov	r3, #0, 0
    8d94:	eaffffe6 	b	8d34 <full_except_install+0x40>
    8d98:	e59f30f4 	ldr	r3, [pc, #244]	; 8e94 <full_except_install+0x1a0>
    8d9c:	e58d3000 	str	r3, [sp]
    8da0:	e3a03028 	mov	r3, #40, 0	; 0x28
    8da4:	e59f20ec 	ldr	r2, [pc, #236]	; 8e98 <full_except_install+0x1a4>
    8da8:	e59f10ec 	ldr	r1, [pc, #236]	; 8e9c <full_except_install+0x1a8>
    8dac:	e59f00f0 	ldr	r0, [pc, #240]	; 8ea4 <full_except_install+0x1b0>
    8db0:	eb0001ee 	bl	9570 <printk>
    8db4:	eb00031d 	bl	9a30 <clean_reboot>
    8db8:	e58d3000 	str	r3, [sp]
    8dbc:	e3a03031 	mov	r3, #49, 0	; 0x31
    8dc0:	e59f20d0 	ldr	r2, [pc, #208]	; 8e98 <full_except_install+0x1a4>
    8dc4:	e59f10d0 	ldr	r1, [pc, #208]	; 8e9c <full_except_install+0x1a8>
    8dc8:	e59f00d8 	ldr	r0, [pc, #216]	; 8ea8 <full_except_install+0x1b4>
    8dcc:	eb0001e7 	bl	9570 <printk>
    8dd0:	eb000316 	bl	9a30 <clean_reboot>
    8dd4:	e59f30b8 	ldr	r3, [pc, #184]	; 8e94 <full_except_install+0x1a0>
    8dd8:	e313001f 	tst	r3, #31, 0
    8ddc:	03a00001 	moveq	r0, #1, 0
    8de0:	e3500000 	cmp	r0, #0, 0
    8de4:	0a000014 	beq	8e3c <full_except_install+0x148>
    8de8:	ee1c3f10 	mrc	15, 0, r3, cr12, cr0, {0}
    8dec:	e59f20a0 	ldr	r2, [pc, #160]	; 8e94 <full_except_install+0x1a0>
    8df0:	e1530002 	cmp	r3, r2
    8df4:	0affffc8 	beq	8d1c <full_except_install+0x28>
    8df8:	e3530000 	cmp	r3, #0, 0
    8dfc:	1a000016 	bne	8e5c <full_except_install+0x168>
    8e00:	e59f308c 	ldr	r3, [pc, #140]	; 8e94 <full_except_install+0x1a0>
    8e04:	ee0c3f10 	mcr	15, 0, r3, cr12, cr0, {0}
    8e08:	e3a02000 	mov	r2, #0, 0
    8e0c:	ee072f95 	mcr	15, 0, r2, cr7, cr5, {4}
    8e10:	ee1c2f10 	mrc	15, 0, r2, cr12, cr0, {0}
    8e14:	e1520003 	cmp	r2, r3
    8e18:	0affffbf 	beq	8d1c <full_except_install+0x28>
    8e1c:	e58d2004 	str	r2, [sp, #4]
    8e20:	e58d3000 	str	r3, [sp]
    8e24:	e3a03036 	mov	r3, #54, 0	; 0x36
    8e28:	e59f2068 	ldr	r2, [pc, #104]	; 8e98 <full_except_install+0x1a4>
    8e2c:	e59f1068 	ldr	r1, [pc, #104]	; 8e9c <full_except_install+0x1a8>
    8e30:	e59f0068 	ldr	r0, [pc, #104]	; 8ea0 <full_except_install+0x1ac>
    8e34:	eb0001cd 	bl	9570 <printk>
    8e38:	eb0002fc 	bl	9a30 <clean_reboot>
    8e3c:	e59f3050 	ldr	r3, [pc, #80]	; 8e94 <full_except_install+0x1a0>
    8e40:	e58d3000 	str	r3, [sp]
    8e44:	e3a03028 	mov	r3, #40, 0	; 0x28
    8e48:	e59f2048 	ldr	r2, [pc, #72]	; 8e98 <full_except_install+0x1a4>
    8e4c:	e59f1048 	ldr	r1, [pc, #72]	; 8e9c <full_except_install+0x1a8>
    8e50:	e59f004c 	ldr	r0, [pc, #76]	; 8ea4 <full_except_install+0x1b0>
    8e54:	eb0001c5 	bl	9570 <printk>
    8e58:	eb0002f4 	bl	9a30 <clean_reboot>
    8e5c:	e58d3000 	str	r3, [sp]
    8e60:	e3a03031 	mov	r3, #49, 0	; 0x31
    8e64:	e59f202c 	ldr	r2, [pc, #44]	; 8e98 <full_except_install+0x1a4>
    8e68:	e59f102c 	ldr	r1, [pc, #44]	; 8e9c <full_except_install+0x1a8>
    8e6c:	e59f0034 	ldr	r0, [pc, #52]	; 8ea8 <full_except_install+0x1b4>
    8e70:	eb0001be 	bl	9570 <printk>
    8e74:	eb0002ed 	bl	9a30 <clean_reboot>
    8e78:	e58d3000 	str	r3, [sp]
    8e7c:	e3a03089 	mov	r3, #137, 0	; 0x89
    8e80:	e59f2024 	ldr	r2, [pc, #36]	; 8eac <full_except_install+0x1b8>
    8e84:	e59f1024 	ldr	r1, [pc, #36]	; 8eb0 <full_except_install+0x1bc>
    8e88:	e59f0024 	ldr	r0, [pc, #36]	; 8eb4 <full_except_install+0x1c0>
    8e8c:	eb0001b7 	bl	9570 <printk>
    8e90:	eb0002e6 	bl	9a30 <clean_reboot>
    8e94:	0000adc0 	.word	0x0000adc0
    8e98:	0000a4c8 	.word	0x0000a4c8
    8e9c:	0000a388 	.word	0x0000a388
    8ea0:	0000a3f8 	.word	0x0000a3f8
    8ea4:	0000a398 	.word	0x0000a398
    8ea8:	0000a3c0 	.word	0x0000a3c0
    8eac:	0000a4d8 	.word	0x0000a4d8
    8eb0:	0000a20c 	.word	0x0000a20c
    8eb4:	0000a424 	.word	0x0000a424

00008eb8 <kmalloc_heap_end>:
    8eb8:	e59f3004 	ldr	r3, [pc, #4]	; 8ec4 <kmalloc_heap_end+0xc>
    8ebc:	e5930000 	ldr	r0, [r3]
    8ec0:	e12fff1e 	bx	lr
    8ec4:	0000b0cc 	.word	0x0000b0cc

00008ec8 <kmalloc_heap_start>:
    8ec8:	e59f3004 	ldr	r3, [pc, #4]	; 8ed4 <kmalloc_heap_start+0xc>
    8ecc:	e5930004 	ldr	r0, [r3, #4]
    8ed0:	e12fff1e 	bx	lr
    8ed4:	0000b0cc 	.word	0x0000b0cc

00008ed8 <kmalloc_heap_ptr>:
    8ed8:	e59f3004 	ldr	r3, [pc, #4]	; 8ee4 <kmalloc_heap_ptr+0xc>
    8edc:	e5930008 	ldr	r0, [r3, #8]
    8ee0:	e12fff1e 	bx	lr
    8ee4:	0000b0cc 	.word	0x0000b0cc

00008ee8 <kmalloc_init_set_start>:
    8ee8:	e92d4030 	push	{r4, r5, lr}
    8eec:	e24dd00c 	sub	sp, sp, #12, 0
    8ef0:	e1a04000 	mov	r4, r0
    8ef4:	e1a05001 	mov	r5, r1
    8ef8:	eb0002d4 	bl	9a50 <program_end>
    8efc:	e1540000 	cmp	r4, r0
    8f00:	3a000010 	bcc	8f48 <kmalloc_init_set_start+0x60>
    8f04:	e3550000 	cmp	r5, #0, 0
    8f08:	0a000014 	beq	8f60 <kmalloc_init_set_start+0x78>
    8f0c:	e59f30ac 	ldr	r3, [pc, #172]	; 8fc0 <kmalloc_init_set_start+0xd8>
    8f10:	e5933004 	ldr	r3, [r3, #4]
    8f14:	e1530004 	cmp	r3, r4
    8f18:	8a000018 	bhi	8f80 <kmalloc_init_set_start+0x98>
    8f1c:	e59f309c 	ldr	r3, [pc, #156]	; 8fc0 <kmalloc_init_set_start+0xd8>
    8f20:	e5933008 	ldr	r3, [r3, #8]
    8f24:	e1530004 	cmp	r3, r4
    8f28:	8a00001a 	bhi	8f98 <kmalloc_init_set_start+0xb0>
    8f2c:	e59f308c 	ldr	r3, [pc, #140]	; 8fc0 <kmalloc_init_set_start+0xd8>
    8f30:	e5834008 	str	r4, [r3, #8]
    8f34:	e5834004 	str	r4, [r3, #4]
    8f38:	e0844005 	add	r4, r4, r5
    8f3c:	e5834000 	str	r4, [r3]
    8f40:	e28dd00c 	add	sp, sp, #12, 0
    8f44:	e8bd8030 	pop	{r4, r5, pc}
    8f48:	e3a03030 	mov	r3, #48, 0	; 0x30
    8f4c:	e59f2070 	ldr	r2, [pc, #112]	; 8fc4 <kmalloc_init_set_start+0xdc>
    8f50:	e59f1070 	ldr	r1, [pc, #112]	; 8fc8 <kmalloc_init_set_start+0xe0>
    8f54:	e59f0070 	ldr	r0, [pc, #112]	; 8fcc <kmalloc_init_set_start+0xe4>
    8f58:	eb000184 	bl	9570 <printk>
    8f5c:	eb0002b3 	bl	9a30 <clean_reboot>
    8f60:	e59f3068 	ldr	r3, [pc, #104]	; 8fd0 <kmalloc_init_set_start+0xe8>
    8f64:	e58d3000 	str	r3, [sp]
    8f68:	e3a03032 	mov	r3, #50, 0	; 0x32
    8f6c:	e59f2050 	ldr	r2, [pc, #80]	; 8fc4 <kmalloc_init_set_start+0xdc>
    8f70:	e59f1050 	ldr	r1, [pc, #80]	; 8fc8 <kmalloc_init_set_start+0xe0>
    8f74:	e59f0058 	ldr	r0, [pc, #88]	; 8fd4 <kmalloc_init_set_start+0xec>
    8f78:	eb00017c 	bl	9570 <printk>
    8f7c:	eb0002ab 	bl	9a30 <clean_reboot>
    8f80:	e3a03034 	mov	r3, #52, 0	; 0x34
    8f84:	e59f2038 	ldr	r2, [pc, #56]	; 8fc4 <kmalloc_init_set_start+0xdc>
    8f88:	e59f1038 	ldr	r1, [pc, #56]	; 8fc8 <kmalloc_init_set_start+0xe0>
    8f8c:	e59f0044 	ldr	r0, [pc, #68]	; 8fd8 <kmalloc_init_set_start+0xf0>
    8f90:	eb000176 	bl	9570 <printk>
    8f94:	eb0002a5 	bl	9a30 <clean_reboot>
    8f98:	e59f3020 	ldr	r3, [pc, #32]	; 8fc0 <kmalloc_init_set_start+0xd8>
    8f9c:	e5933000 	ldr	r3, [r3]
    8fa0:	e58d3004 	str	r3, [sp, #4]
    8fa4:	e58d4000 	str	r4, [sp]
    8fa8:	e3a03038 	mov	r3, #56, 0	; 0x38
    8fac:	e59f2010 	ldr	r2, [pc, #16]	; 8fc4 <kmalloc_init_set_start+0xdc>
    8fb0:	e59f1010 	ldr	r1, [pc, #16]	; 8fc8 <kmalloc_init_set_start+0xe0>
    8fb4:	e59f0020 	ldr	r0, [pc, #32]	; 8fdc <kmalloc_init_set_start+0xf4>
    8fb8:	eb00016c 	bl	9570 <printk>
    8fbc:	eb00029b 	bl	9a30 <clean_reboot>
    8fc0:	0000b0cc 	.word	0x0000b0cc
    8fc4:	0000a6fc 	.word	0x0000a6fc
    8fc8:	0000a4ec 	.word	0x0000a4ec
    8fcc:	0000a4f8 	.word	0x0000a4f8
    8fd0:	0000a520 	.word	0x0000a520
    8fd4:	00009f14 	.word	0x00009f14
    8fd8:	0000a52c 	.word	0x0000a52c
    8fdc:	0000a578 	.word	0x0000a578

00008fe0 <kmalloc_notzero>:
    8fe0:	e52de004 	push	{lr}		; (str lr, [sp, #-4]!)
    8fe4:	e24dd00c 	sub	sp, sp, #12, 0
    8fe8:	e3500000 	cmp	r0, #0, 0
    8fec:	0a00000f 	beq	9030 <kmalloc_notzero+0x50>
    8ff0:	e2800007 	add	r0, r0, #7, 0
    8ff4:	e3c03007 	bic	r3, r0, #7, 0
    8ff8:	e59f20ac 	ldr	r2, [pc, #172]	; 90ac <kmalloc_notzero+0xcc>
    8ffc:	e5920008 	ldr	r0, [r2, #8]
    9000:	e3100007 	tst	r0, #7, 0
    9004:	1a000011 	bne	9050 <kmalloc_notzero+0x70>
    9008:	e3500000 	cmp	r0, #0, 0
    900c:	0a000017 	beq	9070 <kmalloc_notzero+0x90>
    9010:	e0802003 	add	r2, r0, r3
    9014:	e59f1090 	ldr	r1, [pc, #144]	; 90ac <kmalloc_notzero+0xcc>
    9018:	e5812008 	str	r2, [r1, #8]
    901c:	e5911000 	ldr	r1, [r1]
    9020:	e1520001 	cmp	r2, r1
    9024:	8a000017 	bhi	9088 <kmalloc_notzero+0xa8>
    9028:	e28dd00c 	add	sp, sp, #12, 0
    902c:	e49df004 	pop	{pc}		; (ldr pc, [sp], #4)
    9030:	e59f3078 	ldr	r3, [pc, #120]	; 90b0 <kmalloc_notzero+0xd0>
    9034:	e58d3000 	str	r3, [sp]
    9038:	e3a03041 	mov	r3, #65, 0	; 0x41
    903c:	e59f2070 	ldr	r2, [pc, #112]	; 90b4 <kmalloc_notzero+0xd4>
    9040:	e59f1070 	ldr	r1, [pc, #112]	; 90b8 <kmalloc_notzero+0xd8>
    9044:	e59f0070 	ldr	r0, [pc, #112]	; 90bc <kmalloc_notzero+0xdc>
    9048:	eb000148 	bl	9570 <printk>
    904c:	eb000277 	bl	9a30 <clean_reboot>
    9050:	e59f3068 	ldr	r3, [pc, #104]	; 90c0 <kmalloc_notzero+0xe0>
    9054:	e58d3000 	str	r3, [sp]
    9058:	e3a03044 	mov	r3, #68, 0	; 0x44
    905c:	e59f2050 	ldr	r2, [pc, #80]	; 90b4 <kmalloc_notzero+0xd4>
    9060:	e59f1050 	ldr	r1, [pc, #80]	; 90b8 <kmalloc_notzero+0xd8>
    9064:	e59f0050 	ldr	r0, [pc, #80]	; 90bc <kmalloc_notzero+0xdc>
    9068:	eb000140 	bl	9570 <printk>
    906c:	eb00026f 	bl	9a30 <clean_reboot>
    9070:	e3a03048 	mov	r3, #72, 0	; 0x48
    9074:	e59f2038 	ldr	r2, [pc, #56]	; 90b4 <kmalloc_notzero+0xd4>
    9078:	e59f1038 	ldr	r1, [pc, #56]	; 90b8 <kmalloc_notzero+0xd8>
    907c:	e59f0040 	ldr	r0, [pc, #64]	; 90c4 <kmalloc_notzero+0xe4>
    9080:	eb00013a 	bl	9570 <printk>
    9084:	eb000269 	bl	9a30 <clean_reboot>
    9088:	e0422001 	sub	r2, r2, r1
    908c:	e58d2004 	str	r2, [sp, #4]
    9090:	e58d3000 	str	r3, [sp]
    9094:	e3a0304c 	mov	r3, #76, 0	; 0x4c
    9098:	e59f2014 	ldr	r2, [pc, #20]	; 90b4 <kmalloc_notzero+0xd4>
    909c:	e59f1014 	ldr	r1, [pc, #20]	; 90b8 <kmalloc_notzero+0xd8>
    90a0:	e59f0020 	ldr	r0, [pc, #32]	; 90c8 <kmalloc_notzero+0xe8>
    90a4:	eb000131 	bl	9570 <printk>
    90a8:	eb000260 	bl	9a30 <clean_reboot>
    90ac:	0000b0cc 	.word	0x0000b0cc
    90b0:	0000a524 	.word	0x0000a524
    90b4:	0000a714 	.word	0x0000a714
    90b8:	0000a4ec 	.word	0x0000a4ec
    90bc:	00009f14 	.word	0x00009f14
    90c0:	0000a5bc 	.word	0x0000a5bc
    90c4:	0000a5d4 	.word	0x0000a5d4
    90c8:	0000a600 	.word	0x0000a600

000090cc <kmalloc>:
    90cc:	e92d4030 	push	{r4, r5, lr}
    90d0:	e24dd00c 	sub	sp, sp, #12, 0
    90d4:	e2504000 	subs	r4, r0, #0, 0
    90d8:	0a000008 	beq	9100 <kmalloc+0x34>
    90dc:	e1a00004 	mov	r0, r4
    90e0:	ebffffbe 	bl	8fe0 <kmalloc_notzero>
    90e4:	e1a05000 	mov	r5, r0
    90e8:	e1a02004 	mov	r2, r4
    90ec:	e3a01000 	mov	r1, #0, 0
    90f0:	eb0000f6 	bl	94d0 <memset>
    90f4:	e1a00005 	mov	r0, r5
    90f8:	e28dd00c 	add	sp, sp, #12, 0
    90fc:	e8bd8030 	pop	{r4, r5, pc}
    9100:	e59f3018 	ldr	r3, [pc, #24]	; 9120 <kmalloc+0x54>
    9104:	e58d3000 	str	r3, [sp]
    9108:	e3a03054 	mov	r3, #84, 0	; 0x54
    910c:	e59f2010 	ldr	r2, [pc, #16]	; 9124 <kmalloc+0x58>
    9110:	e59f1010 	ldr	r1, [pc, #16]	; 9128 <kmalloc+0x5c>
    9114:	e59f0010 	ldr	r0, [pc, #16]	; 912c <kmalloc+0x60>
    9118:	eb000114 	bl	9570 <printk>
    911c:	eb000243 	bl	9a30 <clean_reboot>
    9120:	0000a524 	.word	0x0000a524
    9124:	0000a724 	.word	0x0000a724
    9128:	0000a4ec 	.word	0x0000a4ec
    912c:	00009f14 	.word	0x00009f14

00009130 <kmalloc_aligned>:
    9130:	e52de004 	push	{lr}		; (str lr, [sp, #-4]!)
    9134:	e24dd00c 	sub	sp, sp, #12, 0
    9138:	e3500000 	cmp	r0, #0, 0
    913c:	0a000014 	beq	9194 <kmalloc_aligned+0x64>
    9140:	e2613000 	rsb	r3, r1, #0, 0
    9144:	e1d13003 	bics	r3, r1, r3
    9148:	1a000019 	bne	91b4 <kmalloc_aligned+0x84>
    914c:	e3510008 	cmp	r1, #8, 0
    9150:	33a01008 	movcc	r1, #8, 0
    9154:	e59f30b8 	ldr	r3, [pc, #184]	; 9214 <kmalloc_aligned+0xe4>
    9158:	e5932008 	ldr	r2, [r3, #8]
    915c:	e2613000 	rsb	r3, r1, #0, 0
    9160:	e1d1c003 	bics	ip, r1, r3
    9164:	1a00001a 	bne	91d4 <kmalloc_aligned+0xa4>
    9168:	e0822001 	add	r2, r2, r1
    916c:	e2422001 	sub	r2, r2, #1, 0
    9170:	e0033002 	and	r3, r3, r2
    9174:	e2411001 	sub	r1, r1, #1, 0
    9178:	e1110003 	tst	r1, r3
    917c:	1a00001c 	bne	91f4 <kmalloc_aligned+0xc4>
    9180:	e59f208c 	ldr	r2, [pc, #140]	; 9214 <kmalloc_aligned+0xe4>
    9184:	e5823008 	str	r3, [r2, #8]
    9188:	ebffffcf 	bl	90cc <kmalloc>
    918c:	e28dd00c 	add	sp, sp, #12, 0
    9190:	e49df004 	pop	{pc}		; (ldr pc, [sp], #4)
    9194:	e59f307c 	ldr	r3, [pc, #124]	; 9218 <kmalloc_aligned+0xe8>
    9198:	e58d3000 	str	r3, [sp]
    919c:	e3a0305e 	mov	r3, #94, 0	; 0x5e
    91a0:	e59f2074 	ldr	r2, [pc, #116]	; 921c <kmalloc_aligned+0xec>
    91a4:	e59f1074 	ldr	r1, [pc, #116]	; 9220 <kmalloc_aligned+0xf0>
    91a8:	e59f0074 	ldr	r0, [pc, #116]	; 9224 <kmalloc_aligned+0xf4>
    91ac:	eb0000ef 	bl	9570 <printk>
    91b0:	eb00021e 	bl	9a30 <clean_reboot>
    91b4:	e59f306c 	ldr	r3, [pc, #108]	; 9228 <kmalloc_aligned+0xf8>
    91b8:	e58d3000 	str	r3, [sp]
    91bc:	e3a0305f 	mov	r3, #95, 0	; 0x5f
    91c0:	e59f2054 	ldr	r2, [pc, #84]	; 921c <kmalloc_aligned+0xec>
    91c4:	e59f1054 	ldr	r1, [pc, #84]	; 9220 <kmalloc_aligned+0xf0>
    91c8:	e59f005c 	ldr	r0, [pc, #92]	; 922c <kmalloc_aligned+0xfc>
    91cc:	eb0000e7 	bl	9570 <printk>
    91d0:	eb000216 	bl	9a30 <clean_reboot>
    91d4:	e59f3054 	ldr	r3, [pc, #84]	; 9230 <kmalloc_aligned+0x100>
    91d8:	e58d3000 	str	r3, [sp]
    91dc:	e3a03011 	mov	r3, #17, 0
    91e0:	e59f204c 	ldr	r2, [pc, #76]	; 9234 <kmalloc_aligned+0x104>
    91e4:	e59f1034 	ldr	r1, [pc, #52]	; 9220 <kmalloc_aligned+0xf0>
    91e8:	e59f0034 	ldr	r0, [pc, #52]	; 9224 <kmalloc_aligned+0xf4>
    91ec:	eb0000df 	bl	9570 <printk>
    91f0:	eb00020e 	bl	9a30 <clean_reboot>
    91f4:	e59f303c 	ldr	r3, [pc, #60]	; 9238 <kmalloc_aligned+0x108>
    91f8:	e58d3000 	str	r3, [sp]
    91fc:	e3a03066 	mov	r3, #102, 0	; 0x66
    9200:	e59f2014 	ldr	r2, [pc, #20]	; 921c <kmalloc_aligned+0xec>
    9204:	e59f1014 	ldr	r1, [pc, #20]	; 9220 <kmalloc_aligned+0xf0>
    9208:	e59f002c 	ldr	r0, [pc, #44]	; 923c <kmalloc_aligned+0x10c>
    920c:	eb0000d7 	bl	9570 <printk>
    9210:	eb000206 	bl	9a30 <clean_reboot>
    9214:	0000b0cc 	.word	0x0000b0cc
    9218:	0000a524 	.word	0x0000a524
    921c:	0000a72c 	.word	0x0000a72c
    9220:	0000a4ec 	.word	0x0000a4ec
    9224:	00009f14 	.word	0x00009f14
    9228:	0000a688 	.word	0x0000a688
    922c:	0000a648 	.word	0x0000a648
    9230:	0000a69c 	.word	0x0000a69c
    9234:	0000a73c 	.word	0x0000a73c
    9238:	0000a6e0 	.word	0x0000a6e0
    923c:	0000a6a8 	.word	0x0000a6a8

00009240 <kfree_all>:
    9240:	e59f3008 	ldr	r3, [pc, #8]	; 9250 <kfree_all+0x10>
    9244:	e5932004 	ldr	r2, [r3, #4]
    9248:	e5832008 	str	r2, [r3, #8]
    924c:	e12fff1e 	bx	lr
    9250:	0000b0cc 	.word	0x0000b0cc

00009254 <gpio_set_on>:
    9254:	e350002f 	cmp	r0, #47, 0	; 0x2f
    9258:	1350001f 	cmpne	r0, #31, 0
    925c:	812fff1e 	bxhi	lr
    9260:	e92d4010 	push	{r4, lr}
    9264:	e59f3018 	ldr	r3, [pc, #24]	; 9284 <gpio_set_on+0x30>
    9268:	e08332a0 	add	r3, r3, r0, lsr #5
    926c:	e200001f 	and	r0, r0, #31, 0
    9270:	e3a01001 	mov	r1, #1, 0
    9274:	e1a01011 	lsl	r1, r1, r0
    9278:	e1a00103 	lsl	r0, r3, #2
    927c:	ebfffb68 	bl	8024 <PUT32>
    9280:	e8bd8010 	pop	{r4, pc}
    9284:	08080007 	.word	0x08080007

00009288 <gpio_set_off>:
    9288:	e350002f 	cmp	r0, #47, 0	; 0x2f
    928c:	1350001f 	cmpne	r0, #31, 0
    9290:	812fff1e 	bxhi	lr
    9294:	e92d4010 	push	{r4, lr}
    9298:	e59f3018 	ldr	r3, [pc, #24]	; 92b8 <gpio_set_off+0x30>
    929c:	e08332a0 	add	r3, r3, r0, lsr #5
    92a0:	e200001f 	and	r0, r0, #31, 0
    92a4:	e3a01001 	mov	r1, #1, 0
    92a8:	e1a01011 	lsl	r1, r1, r0
    92ac:	e1a00103 	lsl	r0, r3, #2
    92b0:	ebfffb5b 	bl	8024 <PUT32>
    92b4:	e8bd8010 	pop	{r4, pc}
    92b8:	0808000a 	.word	0x0808000a

000092bc <gpio_write>:
    92bc:	e92d4010 	push	{r4, lr}
    92c0:	e3510000 	cmp	r1, #0, 0
    92c4:	0a000001 	beq	92d0 <gpio_write+0x14>
    92c8:	ebffffe1 	bl	9254 <gpio_set_on>
    92cc:	e8bd8010 	pop	{r4, pc}
    92d0:	ebffffec 	bl	9288 <gpio_set_off>
    92d4:	e8bd8010 	pop	{r4, pc}

000092d8 <gpio_read>:
    92d8:	e350001f 	cmp	r0, #31, 0
    92dc:	8a000008 	bhi	9304 <gpio_read+0x2c>
    92e0:	e92d4010 	push	{r4, lr}
    92e4:	e1a04000 	mov	r4, r0
    92e8:	e59f001c 	ldr	r0, [pc, #28]	; 930c <gpio_read+0x34>
    92ec:	e08002a4 	add	r0, r0, r4, lsr #5
    92f0:	e1a00100 	lsl	r0, r0, #2
    92f4:	ebfffb4c 	bl	802c <GET32>
    92f8:	e1a00430 	lsr	r0, r0, r4
    92fc:	e2000001 	and	r0, r0, #1, 0
    9300:	e8bd8010 	pop	{r4, pc}
    9304:	e3e00000 	mvn	r0, #0, 0
    9308:	e12fff1e 	bx	lr
    930c:	0808000d 	.word	0x0808000d

00009310 <gpio_set_function>:
    9310:	e350002f 	cmp	r0, #47, 0	; 0x2f
    9314:	1350001f 	cmpne	r0, #31, 0
    9318:	812fff1e 	bxhi	lr
    931c:	e92d40f0 	push	{r4, r5, r6, r7, lr}
    9320:	e24dd00c 	sub	sp, sp, #12, 0
    9324:	e1a04000 	mov	r4, r0
    9328:	e1a06001 	mov	r6, r1
    932c:	e3510007 	cmp	r1, #7, 0
    9330:	9a000001 	bls	933c <gpio_set_function+0x2c>
    9334:	e28dd00c 	add	sp, sp, #12, 0
    9338:	e8bd80f0 	pop	{r4, r5, r6, r7, pc}
    933c:	e59f5044 	ldr	r5, [pc, #68]	; 9388 <gpio_set_function+0x78>
    9340:	e0853095 	umull	r3, r5, r5, r0
    9344:	e1a051a5 	lsr	r5, r5, #3
    9348:	e2857302 	add	r7, r5, #134217728	; 0x8000000
    934c:	e2877702 	add	r7, r7, #524288	; 0x80000
    9350:	e1a07107 	lsl	r7, r7, #2
    9354:	e1a00007 	mov	r0, r7
    9358:	ebfffb33 	bl	802c <GET32>
    935c:	e58d0004 	str	r0, [sp, #4]
    9360:	e0855105 	add	r5, r5, r5, lsl #2
    9364:	e0444085 	sub	r4, r4, r5, lsl #1
    9368:	e0844084 	add	r4, r4, r4, lsl #1
    936c:	e59d1004 	ldr	r1, [sp, #4]
    9370:	e3a03007 	mov	r3, #7, 0
    9374:	e1c11413 	bic	r1, r1, r3, lsl r4
    9378:	e1811416 	orr	r1, r1, r6, lsl r4
    937c:	e1a00007 	mov	r0, r7
    9380:	ebfffb27 	bl	8024 <PUT32>
    9384:	eaffffea 	b	9334 <gpio_set_function+0x24>
    9388:	cccccccd 	.word	0xcccccccd

0000938c <gpio_set_output>:
    938c:	e92d4010 	push	{r4, lr}
    9390:	e3a01001 	mov	r1, #1, 0
    9394:	ebffffdd 	bl	9310 <gpio_set_function>
    9398:	e8bd8010 	pop	{r4, pc}

0000939c <gpio_set_input>:
    939c:	e92d4010 	push	{r4, lr}
    93a0:	e3a01000 	mov	r1, #0, 0
    93a4:	ebffffd9 	bl	9310 <gpio_set_function>
    93a8:	e8bd8010 	pop	{r4, pc}

000093ac <memcpy256>:
    93ac:	e92d40f0 	push	{r4, r5, r6, r7, lr}
    93b0:	e24dd00c 	sub	sp, sp, #12, 0
    93b4:	e212401f 	ands	r4, r2, #31, 0
    93b8:	01a06000 	moveq	r6, r0
    93bc:	01a07001 	moveq	r7, r1
    93c0:	01a052a2 	lsreq	r5, r2, #5
    93c4:	0a00000f 	beq	9408 <memcpy256+0x5c>
    93c8:	e3a03020 	mov	r3, #32, 0
    93cc:	e58d3004 	str	r3, [sp, #4]
    93d0:	e58d2000 	str	r2, [sp]
    93d4:	e3a0300f 	mov	r3, #15, 0
    93d8:	e59f2038 	ldr	r2, [pc, #56]	; 9418 <memcpy256+0x6c>
    93dc:	e59f1038 	ldr	r1, [pc, #56]	; 941c <memcpy256+0x70>
    93e0:	e59f0038 	ldr	r0, [pc, #56]	; 9420 <memcpy256+0x74>
    93e4:	eb000061 	bl	9570 <printk>
    93e8:	eb000190 	bl	9a30 <clean_reboot>
    93ec:	e086c284 	add	ip, r6, r4, lsl #5
    93f0:	e087e284 	add	lr, r7, r4, lsl #5
    93f4:	e8be000f 	ldm	lr!, {r0, r1, r2, r3}
    93f8:	e8ac000f 	stmia	ip!, {r0, r1, r2, r3}
    93fc:	e89e000f 	ldm	lr, {r0, r1, r2, r3}
    9400:	e88c000f 	stm	ip, {r0, r1, r2, r3}
    9404:	e2844001 	add	r4, r4, #1, 0
    9408:	e1540005 	cmp	r4, r5
    940c:	3afffff6 	bcc	93ec <memcpy256+0x40>
    9410:	e28dd00c 	add	sp, sp, #12, 0
    9414:	e8bd80f0 	pop	{r4, r5, r6, r7, pc}
    9418:	0000a790 	.word	0x0000a790
    941c:	0000a744 	.word	0x0000a744
    9420:	0000a754 	.word	0x0000a754

00009424 <memcpy>:
    9424:	e3100007 	tst	r0, #7, 0
    9428:	1a00000f 	bne	946c <memcpy+0x48>
    942c:	e3110007 	tst	r1, #7, 0
    9430:	1a00000d 	bne	946c <memcpy+0x48>
    9434:	e2123007 	ands	r3, r2, #7, 0
    9438:	1a00000b 	bne	946c <memcpy+0x48>
    943c:	e1a021a2 	lsr	r2, r2, #3
    9440:	e1530002 	cmp	r3, r2
    9444:	212fff1e 	bxcs	lr
    9448:	e92d0030 	push	{r4, r5}
    944c:	e1a0c183 	lsl	ip, r3, #3
    9450:	e18140dc 	ldrd	r4, [r1, ip]
    9454:	e18040fc 	strd	r4, [r0, ip]
    9458:	e2833001 	add	r3, r3, #1, 0
    945c:	e1530002 	cmp	r3, r2
    9460:	3afffff9 	bcc	944c <memcpy+0x28>
    9464:	e8bd0030 	pop	{r4, r5}
    9468:	e12fff1e 	bx	lr
    946c:	e2103003 	ands	r3, r0, #3, 0
    9470:	1a000011 	bne	94bc <memcpy+0x98>
    9474:	e211c003 	ands	ip, r1, #3, 0
    9478:	1a00000c 	bne	94b0 <memcpy+0x8c>
    947c:	e2123003 	ands	r3, r2, #3, 0
    9480:	1a00000f 	bne	94c4 <memcpy+0xa0>
    9484:	e1a02122 	lsr	r2, r2, #2
    9488:	ea000002 	b	9498 <memcpy+0x74>
    948c:	e791c103 	ldr	ip, [r1, r3, lsl #2]
    9490:	e780c103 	str	ip, [r0, r3, lsl #2]
    9494:	e2833001 	add	r3, r3, #1, 0
    9498:	e1530002 	cmp	r3, r2
    949c:	3afffffa 	bcc	948c <memcpy+0x68>
    94a0:	e12fff1e 	bx	lr
    94a4:	e7d1c003 	ldrb	ip, [r1, r3]
    94a8:	e7c0c003 	strb	ip, [r0, r3]
    94ac:	e2833001 	add	r3, r3, #1, 0
    94b0:	e1530002 	cmp	r3, r2
    94b4:	3afffffa 	bcc	94a4 <memcpy+0x80>
    94b8:	e12fff1e 	bx	lr
    94bc:	e3a03000 	mov	r3, #0, 0
    94c0:	eafffffa 	b	94b0 <memcpy+0x8c>
    94c4:	e1a0300c 	mov	r3, ip
    94c8:	eafffff8 	b	94b0 <memcpy+0x8c>

000094cc <memcpy_end>:
    94cc:	e12fff1e 	bx	lr

000094d0 <memset>:
    94d0:	e3520000 	cmp	r2, #0, 0
    94d4:	012fff1e 	bxeq	lr
    94d8:	e3510000 	cmp	r1, #0, 0
    94dc:	1a000007 	bne	9500 <memset+0x30>
    94e0:	e3100007 	tst	r0, #7, 0
    94e4:	1a000001 	bne	94f0 <memset+0x20>
    94e8:	e3120007 	tst	r2, #7, 0
    94ec:	0a000011 	beq	9538 <memset+0x68>
    94f0:	e3100003 	tst	r0, #3, 0
    94f4:	1a000001 	bne	9500 <memset+0x30>
    94f8:	e3120003 	tst	r2, #3, 0
    94fc:	0a000001 	beq	9508 <memset+0x38>
    9500:	e0802002 	add	r2, r0, r2
    9504:	ea000008 	b	952c <memset+0x5c>
    9508:	e1a02122 	lsr	r2, r2, #2
    950c:	ea000001 	b	9518 <memset+0x48>
    9510:	e4801004 	str	r1, [r0], #4
    9514:	e1a02003 	mov	r2, r3
    9518:	e2423001 	sub	r3, r2, #1, 0
    951c:	e3520000 	cmp	r2, #0, 0
    9520:	1afffffa 	bne	9510 <memset+0x40>
    9524:	e12fff1e 	bx	lr
    9528:	e4c01001 	strb	r1, [r0], #1
    952c:	e1500002 	cmp	r0, r2
    9530:	3afffffc 	bcc	9528 <memset+0x58>
    9534:	e12fff1e 	bx	lr
    9538:	e1a021a2 	lsr	r2, r2, #3
    953c:	e2423001 	sub	r3, r2, #1, 0
    9540:	e3520000 	cmp	r2, #0, 0
    9544:	012fff1e 	bxeq	lr
    9548:	e92d0030 	push	{r4, r5}
    954c:	e1a04001 	mov	r4, r1
    9550:	e1a05fc1 	asr	r5, r1, #31
    9554:	e0c040f8 	strd	r4, [r0], #8
    9558:	e1a02003 	mov	r2, r3
    955c:	e2433001 	sub	r3, r3, #1, 0
    9560:	e3520000 	cmp	r2, #0, 0
    9564:	1afffff8 	bne	954c <memset+0x7c>
    9568:	e8bd0030 	pop	{r4, r5}
    956c:	e12fff1e 	bx	lr

00009570 <printk>:
    9570:	e92d000f 	push	{r0, r1, r2, r3}
    9574:	e52de004 	push	{lr}		; (str lr, [sp, #-4]!)
    9578:	e24dd00c 	sub	sp, sp, #12, 0
    957c:	e28d1014 	add	r1, sp, #20, 0
    9580:	e58d1004 	str	r1, [sp, #4]
    9584:	e59d0010 	ldr	r0, [sp, #16]
    9588:	eb000047 	bl	96ac <vprintk>
    958c:	e28dd00c 	add	sp, sp, #12, 0
    9590:	e49de004 	pop	{lr}		; (ldr lr, [sp], #4)
    9594:	e28dd010 	add	sp, sp, #16, 0
    9598:	e12fff1e 	bx	lr

0000959c <emit_val>:
    959c:	e92d4010 	push	{r4, lr}
    95a0:	e24dd030 	sub	sp, sp, #48, 0	; 0x30
    95a4:	e350000a 	cmp	r0, #10, 0
    95a8:	0a000014 	beq	9600 <emit_val+0x64>
    95ac:	e3500010 	cmp	r0, #16, 0
    95b0:	0a000022 	beq	9640 <emit_val+0xa4>
    95b4:	e3500002 	cmp	r0, #2, 0
    95b8:	0a000006 	beq	95d8 <emit_val+0x3c>
    95bc:	e58d0000 	str	r0, [sp]
    95c0:	e3a0301b 	mov	r3, #27, 0
    95c4:	e59f20c0 	ldr	r2, [pc, #192]	; 968c <emit_val+0xf0>
    95c8:	e59f10c0 	ldr	r1, [pc, #192]	; 9690 <emit_val+0xf4>
    95cc:	e59f00c0 	ldr	r0, [pc, #192]	; 9694 <emit_val+0xf8>
    95d0:	ebffffe6 	bl	9570 <printk>
    95d4:	eb000115 	bl	9a30 <clean_reboot>
    95d8:	e28d400c 	add	r4, sp, #12, 0
    95dc:	e2012001 	and	r2, r1, #1, 0
    95e0:	e59f00b0 	ldr	r0, [pc, #176]	; 9698 <emit_val+0xfc>
    95e4:	e7d02002 	ldrb	r2, [r0, r2]
    95e8:	e5c42000 	strb	r2, [r4]
    95ec:	e2844001 	add	r4, r4, #1, 0
    95f0:	e3510001 	cmp	r1, #1, 0
    95f4:	e1a010a1 	lsr	r1, r1, #1
    95f8:	8afffff7 	bhi	95dc <emit_val+0x40>
    95fc:	ea00001d 	b	9678 <emit_val+0xdc>
    9600:	e28d400c 	add	r4, sp, #12, 0
    9604:	e59f3090 	ldr	r3, [pc, #144]	; 969c <emit_val+0x100>
    9608:	e0832193 	umull	r2, r3, r3, r1
    960c:	e1a031a3 	lsr	r3, r3, #3
    9610:	e1a00003 	mov	r0, r3
    9614:	e0833103 	add	r3, r3, r3, lsl #2
    9618:	e0413083 	sub	r3, r1, r3, lsl #1
    961c:	e59fc07c 	ldr	ip, [pc, #124]	; 96a0 <emit_val+0x104>
    9620:	e7dcc003 	ldrb	ip, [ip, r3]
    9624:	e5c4c000 	strb	ip, [r4]
    9628:	e2844001 	add	r4, r4, #1, 0
    962c:	e1a03001 	mov	r3, r1
    9630:	e1a01000 	mov	r1, r0
    9634:	e3530009 	cmp	r3, #9, 0
    9638:	8afffff1 	bhi	9604 <emit_val+0x68>
    963c:	ea00000d 	b	9678 <emit_val+0xdc>
    9640:	e28d400c 	add	r4, sp, #12, 0
    9644:	e201200f 	and	r2, r1, #15, 0
    9648:	e59f0054 	ldr	r0, [pc, #84]	; 96a4 <emit_val+0x108>
    964c:	e7d02002 	ldrb	r2, [r0, r2]
    9650:	e5c42000 	strb	r2, [r4]
    9654:	e2844001 	add	r4, r4, #1, 0
    9658:	e351000f 	cmp	r1, #15, 0
    965c:	e1a01221 	lsr	r1, r1, #4
    9660:	8afffff7 	bhi	9644 <emit_val+0xa8>
    9664:	ea000003 	b	9678 <emit_val+0xdc>
    9668:	e59f3038 	ldr	r3, [pc, #56]	; 96a8 <emit_val+0x10c>
    966c:	e5933000 	ldr	r3, [r3]
    9670:	e5740001 	ldrb	r0, [r4, #-1]!
    9674:	e12fff33 	blx	r3
    9678:	e28d300c 	add	r3, sp, #12, 0
    967c:	e1540003 	cmp	r4, r3
    9680:	8afffff8 	bhi	9668 <emit_val+0xcc>
    9684:	e28dd030 	add	sp, sp, #48, 0	; 0x30
    9688:	e8bd8010 	pop	{r4, pc}
    968c:	0000a854 	.word	0x0000a854
    9690:	0000a79c 	.word	0x0000a79c
    9694:	0000a7ac 	.word	0x0000a7ac
    9698:	0000a7d0 	.word	0x0000a7d0
    969c:	cccccccd 	.word	0xcccccccd
    96a0:	0000a7d4 	.word	0x0000a7d4
    96a4:	0000a7e0 	.word	0x0000a7e0
    96a8:	0000b0bc 	.word	0x0000b0bc

000096ac <vprintk>:
    96ac:	e92d4030 	push	{r4, r5, lr}
    96b0:	e24dd014 	sub	sp, sp, #20, 0
    96b4:	e1a04000 	mov	r4, r0
    96b8:	e58d100c 	str	r1, [sp, #12]
    96bc:	ea000003 	b	96d0 <vprintk+0x24>
    96c0:	e59f3288 	ldr	r3, [pc, #648]	; 9950 <vprintk+0x2a4>
    96c4:	e5933000 	ldr	r3, [r3]
    96c8:	e12fff33 	blx	r3
    96cc:	e2844001 	add	r4, r4, #1, 0
    96d0:	e5d40000 	ldrb	r0, [r4]
    96d4:	e3500000 	cmp	r0, #0, 0
    96d8:	0a00009a 	beq	9948 <vprintk+0x29c>
    96dc:	e3500025 	cmp	r0, #37, 0	; 0x25
    96e0:	1afffff6 	bne	96c0 <vprintk+0x14>
    96e4:	e2845001 	add	r5, r4, #1, 0
    96e8:	e5d42001 	ldrb	r2, [r4, #1]
    96ec:	e2423062 	sub	r3, r2, #98, 0	; 0x62
    96f0:	e3530016 	cmp	r3, #22, 0
    96f4:	979ff103 	ldrls	pc, [pc, r3, lsl #2]
    96f8:	ea00008b 	b	992c <vprintk+0x280>
    96fc:	00009758 	.word	0x00009758
    9700:	00009798 	.word	0x00009798
    9704:	000098b0 	.word	0x000098b0
    9708:	0000992c 	.word	0x0000992c
    970c:	0000992c 	.word	0x0000992c
    9710:	0000992c 	.word	0x0000992c
    9714:	0000992c 	.word	0x0000992c
    9718:	0000992c 	.word	0x0000992c
    971c:	0000992c 	.word	0x0000992c
    9720:	0000992c 	.word	0x0000992c
    9724:	000097bc 	.word	0x000097bc
    9728:	0000992c 	.word	0x0000992c
    972c:	0000992c 	.word	0x0000992c
    9730:	0000992c 	.word	0x0000992c
    9734:	00009874 	.word	0x00009874
    9738:	0000992c 	.word	0x0000992c
    973c:	0000992c 	.word	0x0000992c
    9740:	000098f4 	.word	0x000098f4
    9744:	0000992c 	.word	0x0000992c
    9748:	00009778 	.word	0x00009778
    974c:	0000992c 	.word	0x0000992c
    9750:	0000992c 	.word	0x0000992c
    9754:	00009874 	.word	0x00009874
    9758:	e59d300c 	ldr	r3, [sp, #12]
    975c:	e2832004 	add	r2, r3, #4, 0
    9760:	e58d200c 	str	r2, [sp, #12]
    9764:	e5931000 	ldr	r1, [r3]
    9768:	e3a00002 	mov	r0, #2, 0
    976c:	ebffff8a 	bl	959c <emit_val>
    9770:	e1a04005 	mov	r4, r5
    9774:	eaffffd4 	b	96cc <vprintk+0x20>
    9778:	e59d300c 	ldr	r3, [sp, #12]
    977c:	e2832004 	add	r2, r3, #4, 0
    9780:	e58d200c 	str	r2, [sp, #12]
    9784:	e5931000 	ldr	r1, [r3]
    9788:	e3a0000a 	mov	r0, #10, 0
    978c:	ebffff82 	bl	959c <emit_val>
    9790:	e1a04005 	mov	r4, r5
    9794:	eaffffcc 	b	96cc <vprintk+0x20>
    9798:	e59f31b0 	ldr	r3, [pc, #432]	; 9950 <vprintk+0x2a4>
    979c:	e5932000 	ldr	r2, [r3]
    97a0:	e59d300c 	ldr	r3, [sp, #12]
    97a4:	e2831004 	add	r1, r3, #4, 0
    97a8:	e58d100c 	str	r1, [sp, #12]
    97ac:	e5930000 	ldr	r0, [r3]
    97b0:	e12fff32 	blx	r2
    97b4:	e1a04005 	mov	r4, r5
    97b8:	eaffffc3 	b	96cc <vprintk+0x20>
    97bc:	e2842002 	add	r2, r4, #2, 0
    97c0:	e5d43002 	ldrb	r3, [r4, #2]
    97c4:	e353006c 	cmp	r3, #108, 0	; 0x6c
    97c8:	1a000018 	bne	9830 <vprintk+0x184>
    97cc:	e2845003 	add	r5, r4, #3, 0
    97d0:	e5d43003 	ldrb	r3, [r4, #3]
    97d4:	e3530078 	cmp	r3, #120, 0	; 0x78
    97d8:	1a00001b 	bne	984c <vprintk+0x1a0>
    97dc:	e59f416c 	ldr	r4, [pc, #364]	; 9950 <vprintk+0x2a4>
    97e0:	e5943000 	ldr	r3, [r4]
    97e4:	e3a00030 	mov	r0, #48, 0	; 0x30
    97e8:	e12fff33 	blx	r3
    97ec:	e5943000 	ldr	r3, [r4]
    97f0:	e3a00078 	mov	r0, #120, 0	; 0x78
    97f4:	e12fff33 	blx	r3
    97f8:	e59d300c 	ldr	r3, [sp, #12]
    97fc:	e2833007 	add	r3, r3, #7, 0
    9800:	e3c33007 	bic	r3, r3, #7, 0
    9804:	e2832008 	add	r2, r3, #8, 0
    9808:	e58d200c 	str	r2, [sp, #12]
    980c:	e5934000 	ldr	r4, [r3]
    9810:	e5931004 	ldr	r1, [r3, #4]
    9814:	e3510000 	cmp	r1, #0, 0
    9818:	1a000012 	bne	9868 <vprintk+0x1bc>
    981c:	e1a01004 	mov	r1, r4
    9820:	e3a00010 	mov	r0, #16, 0
    9824:	ebffff5c 	bl	959c <emit_val>
    9828:	e1a04005 	mov	r4, r5
    982c:	eaffffa6 	b	96cc <vprintk+0x20>
    9830:	e58d2000 	str	r2, [sp]
    9834:	e3a0303b 	mov	r3, #59, 0	; 0x3b
    9838:	e59f2114 	ldr	r2, [pc, #276]	; 9954 <vprintk+0x2a8>
    983c:	e59f1114 	ldr	r1, [pc, #276]	; 9958 <vprintk+0x2ac>
    9840:	e59f0114 	ldr	r0, [pc, #276]	; 995c <vprintk+0x2b0>
    9844:	ebffff49 	bl	9570 <printk>
    9848:	eb000078 	bl	9a30 <clean_reboot>
    984c:	e58d5000 	str	r5, [sp]
    9850:	e3a0303e 	mov	r3, #62, 0	; 0x3e
    9854:	e59f20f8 	ldr	r2, [pc, #248]	; 9954 <vprintk+0x2a8>
    9858:	e59f10f8 	ldr	r1, [pc, #248]	; 9958 <vprintk+0x2ac>
    985c:	e59f00f8 	ldr	r0, [pc, #248]	; 995c <vprintk+0x2b0>
    9860:	ebffff42 	bl	9570 <printk>
    9864:	eb000071 	bl	9a30 <clean_reboot>
    9868:	e3a00010 	mov	r0, #16, 0
    986c:	ebffff4a 	bl	959c <emit_val>
    9870:	eaffffe9 	b	981c <vprintk+0x170>
    9874:	e59f40d4 	ldr	r4, [pc, #212]	; 9950 <vprintk+0x2a4>
    9878:	e5943000 	ldr	r3, [r4]
    987c:	e3a00030 	mov	r0, #48, 0	; 0x30
    9880:	e12fff33 	blx	r3
    9884:	e5943000 	ldr	r3, [r4]
    9888:	e3a00078 	mov	r0, #120, 0	; 0x78
    988c:	e12fff33 	blx	r3
    9890:	e59d300c 	ldr	r3, [sp, #12]
    9894:	e2832004 	add	r2, r3, #4, 0
    9898:	e58d200c 	str	r2, [sp, #12]
    989c:	e5931000 	ldr	r1, [r3]
    98a0:	e3a00010 	mov	r0, #16, 0
    98a4:	ebffff3c 	bl	959c <emit_val>
    98a8:	e1a04005 	mov	r4, r5
    98ac:	eaffff86 	b	96cc <vprintk+0x20>
    98b0:	e59d300c 	ldr	r3, [sp, #12]
    98b4:	e2832004 	add	r2, r3, #4, 0
    98b8:	e58d200c 	str	r2, [sp, #12]
    98bc:	e5934000 	ldr	r4, [r3]
    98c0:	e3540000 	cmp	r4, #0, 0
    98c4:	ba000004 	blt	98dc <vprintk+0x230>
    98c8:	e1a01004 	mov	r1, r4
    98cc:	e3a0000a 	mov	r0, #10, 0
    98d0:	ebffff31 	bl	959c <emit_val>
    98d4:	e1a04005 	mov	r4, r5
    98d8:	eaffff7b 	b	96cc <vprintk+0x20>
    98dc:	e59f306c 	ldr	r3, [pc, #108]	; 9950 <vprintk+0x2a4>
    98e0:	e5933000 	ldr	r3, [r3]
    98e4:	e3a0002d 	mov	r0, #45, 0	; 0x2d
    98e8:	e12fff33 	blx	r3
    98ec:	e2644000 	rsb	r4, r4, #0, 0
    98f0:	eafffff4 	b	98c8 <vprintk+0x21c>
    98f4:	e59d300c 	ldr	r3, [sp, #12]
    98f8:	e2832004 	add	r2, r3, #4, 0
    98fc:	e58d200c 	str	r2, [sp, #12]
    9900:	e5934000 	ldr	r4, [r3]
    9904:	e5d40000 	ldrb	r0, [r4]
    9908:	e3500000 	cmp	r0, #0, 0
    990c:	0a000004 	beq	9924 <vprintk+0x278>
    9910:	e59f3038 	ldr	r3, [pc, #56]	; 9950 <vprintk+0x2a4>
    9914:	e5933000 	ldr	r3, [r3]
    9918:	e12fff33 	blx	r3
    991c:	e2844001 	add	r4, r4, #1, 0
    9920:	eafffff7 	b	9904 <vprintk+0x258>
    9924:	e1a04005 	mov	r4, r5
    9928:	eaffff67 	b	96cc <vprintk+0x20>
    992c:	e58d2000 	str	r2, [sp]
    9930:	e3a03062 	mov	r3, #98, 0	; 0x62
    9934:	e59f2018 	ldr	r2, [pc, #24]	; 9954 <vprintk+0x2a8>
    9938:	e59f1018 	ldr	r1, [pc, #24]	; 9958 <vprintk+0x2ac>
    993c:	e59f001c 	ldr	r0, [pc, #28]	; 9960 <vprintk+0x2b4>
    9940:	ebffff0a 	bl	9570 <printk>
    9944:	eb000039 	bl	9a30 <clean_reboot>
    9948:	e28dd014 	add	sp, sp, #20, 0
    994c:	e8bd8030 	pop	{r4, r5, pc}
    9950:	0000b0bc 	.word	0x0000b0bc
    9954:	0000a860 	.word	0x0000a860
    9958:	0000a79c 	.word	0x0000a79c
    995c:	0000a7f4 	.word	0x0000a7f4
    9960:	0000a82c 	.word	0x0000a82c

00009964 <default_putchar>:
    9964:	e92d4010 	push	{r4, lr}
    9968:	e1a04000 	mov	r4, r0
    996c:	e6ef0070 	uxtb	r0, r0
    9970:	eb000107 	bl	9d94 <uart_put8>
    9974:	e1a00004 	mov	r0, r4
    9978:	e8bd8010 	pop	{r4, pc}

0000997c <rpi_putchar_set>:
    997c:	e59f300c 	ldr	r3, [pc, #12]	; 9990 <rpi_putchar_set+0x14>
    9980:	e5932000 	ldr	r2, [r3]
    9984:	e5830000 	str	r0, [r3]
    9988:	e1a00002 	mov	r0, r2
    998c:	e12fff1e 	bx	lr
    9990:	0000b0bc 	.word	0x0000b0bc

00009994 <asm_not_reached_helper>:
    9994:	e92d4010 	push	{r4, lr}
    9998:	e1a04000 	mov	r4, r0
    999c:	e59f0010 	ldr	r0, [pc, #16]	; 99b4 <asm_not_reached_helper+0x20>
    99a0:	ebfffef2 	bl	9570 <printk>
    99a4:	e1a01004 	mov	r1, r4
    99a8:	e59f0008 	ldr	r0, [pc, #8]	; 99b8 <asm_not_reached_helper+0x24>
    99ac:	ebfffeef 	bl	9570 <printk>
    99b0:	eb00001e 	bl	9a30 <clean_reboot>
    99b4:	0000a868 	.word	0x0000a868
    99b8:	0000a89c 	.word	0x0000a89c

000099bc <asm_not_implemented_helper>:
    99bc:	e92d4010 	push	{r4, lr}
    99c0:	e1a04000 	mov	r4, r0
    99c4:	e59f0010 	ldr	r0, [pc, #16]	; 99dc <asm_not_implemented_helper+0x20>
    99c8:	ebfffee8 	bl	9570 <printk>
    99cc:	e1a01004 	mov	r1, r4
    99d0:	e59f0008 	ldr	r0, [pc, #8]	; 99e0 <asm_not_implemented_helper+0x24>
    99d4:	ebfffee5 	bl	9570 <printk>
    99d8:	eb000014 	bl	9a30 <clean_reboot>
    99dc:	0000a8d0 	.word	0x0000a8d0
    99e0:	0000a89c 	.word	0x0000a89c

000099e4 <asm_todo_helper>:
    99e4:	e92d4010 	push	{r4, lr}
    99e8:	e1a04001 	mov	r4, r1
    99ec:	e59f0018 	ldr	r0, [pc, #24]	; 9a0c <asm_todo_helper+0x28>
    99f0:	ebfffede 	bl	9570 <printk>
    99f4:	e59f0014 	ldr	r0, [pc, #20]	; 9a10 <asm_todo_helper+0x2c>
    99f8:	ebfffedc 	bl	9570 <printk>
    99fc:	e1a01004 	mov	r1, r4
    9a00:	e59f000c 	ldr	r0, [pc, #12]	; 9a14 <asm_todo_helper+0x30>
    9a04:	ebfffed9 	bl	9570 <printk>
    9a08:	eb000008 	bl	9a30 <clean_reboot>
    9a0c:	0000a8fc 	.word	0x0000a8fc
    9a10:	0000a934 	.word	0x0000a934
    9a14:	0000a968 	.word	0x0000a968

00009a18 <asm_bad_exception_helper>:
    9a18:	e92d4010 	push	{r4, lr}
    9a1c:	e1a02000 	mov	r2, r0
    9a20:	e59f0004 	ldr	r0, [pc, #4]	; 9a2c <asm_bad_exception_helper+0x14>
    9a24:	ebfffed1 	bl	9570 <printk>
    9a28:	eb000000 	bl	9a30 <clean_reboot>
    9a2c:	0000a970 	.word	0x0000a970

00009a30 <clean_reboot>:
    9a30:	e92d4010 	push	{r4, lr}
    9a34:	e59f0010 	ldr	r0, [pc, #16]	; 9a4c <clean_reboot+0x1c>
    9a38:	eb00011e 	bl	9eb8 <putk>
    9a3c:	eb000107 	bl	9e60 <uart_flush_tx>
    9a40:	e3a0000a 	mov	r0, #10, 0
    9a44:	eb00008d 	bl	9c80 <delay_ms>
    9a48:	eb000069 	bl	9bf4 <rpi_reboot>
    9a4c:	0000a990 	.word	0x0000a990

00009a50 <program_end>:
    9a50:	e59f0000 	ldr	r0, [pc]	; 9a58 <program_end+0x8>
    9a54:	e12fff1e 	bx	lr
    9a58:	0000b0d8 	.word	0x0000b0d8

00009a5c <_cstart>:
    9a5c:	e92d4030 	push	{r4, r5, lr}
    9a60:	e24dd00c 	sub	sp, sp, #12, 0
    9a64:	e59f3098 	ldr	r3, [pc, #152]	; 9b04 <_cstart+0xa8>
    9a68:	e59f2098 	ldr	r2, [pc, #152]	; 9b08 <_cstart+0xac>
    9a6c:	e1530002 	cmp	r3, r2
    9a70:	33a02000 	movcc	r2, #0, 0
    9a74:	34c32001 	strbcc	r2, [r3], #1
    9a78:	3afffffa 	bcc	9a68 <_cstart+0xc>
    9a7c:	eb00008b 	bl	9cb0 <uart_init>
    9a80:	e3a03001 	mov	r3, #1, 0
    9a84:	ee0f3f1c 	mcr	15, 0, r3, cr15, cr12, {0}
    9a88:	e3a02a01 	mov	r2, #4096	; 0x1000
    9a8c:	e3a01000 	mov	r1, #0, 0
    9a90:	e1a00001 	mov	r0, r1
    9a94:	ebfffe8d 	bl	94d0 <memset>
    9a98:	e3a04000 	mov	r4, #0, 0
    9a9c:	e1a05004 	mov	r5, r4
    9aa0:	ea000005 	b	9abc <_cstart+0x60>
    9aa4:	e2855001 	add	r5, r5, #1, 0
    9aa8:	e5912000 	ldr	r2, [r1]
    9aac:	e1a03005 	mov	r3, r5
    9ab0:	e59f0054 	ldr	r0, [pc, #84]	; 9b0c <_cstart+0xb0>
    9ab4:	ebfffead 	bl	9570 <printk>
    9ab8:	e2844001 	add	r4, r4, #1, 0
    9abc:	e3540b01 	cmp	r4, #1024	; 0x400
    9ac0:	2a000004 	bcs	9ad8 <_cstart+0x7c>
    9ac4:	e1a01104 	lsl	r1, r4, #2
    9ac8:	e5913000 	ldr	r3, [r1]
    9acc:	e3530000 	cmp	r3, #0, 0
    9ad0:	0afffff8 	beq	9ab8 <_cstart+0x5c>
    9ad4:	eafffff2 	b	9aa4 <_cstart+0x48>
    9ad8:	e3550000 	cmp	r5, #0, 0
    9adc:	1a000001 	bne	9ae8 <_cstart+0x8c>
    9ae0:	ebfff954 	bl	8038 <notmain>
    9ae4:	ebffffd1 	bl	9a30 <clean_reboot>
    9ae8:	e58d5000 	str	r5, [sp]
    9aec:	e3a0301b 	mov	r3, #27, 0
    9af0:	e59f2018 	ldr	r2, [pc, #24]	; 9b10 <_cstart+0xb4>
    9af4:	e59f1018 	ldr	r1, [pc, #24]	; 9b14 <_cstart+0xb8>
    9af8:	e59f0018 	ldr	r0, [pc, #24]	; 9b18 <_cstart+0xbc>
    9afc:	ebfffe9b 	bl	9570 <printk>
    9b00:	ebffffca 	bl	9a30 <clean_reboot>
    9b04:	0000b0c0 	.word	0x0000b0c0
    9b08:	0000b0d8 	.word	0x0000b0d8
    9b0c:	0000a99c 	.word	0x0000a99c
    9b10:	0000aa38 	.word	0x0000aa38
    9b14:	0000a9c8 	.word	0x0000a9c8
    9b18:	0000aa08 	.word	0x0000aa08

00009b1c <int_vector>:
    9b1c:	e52de004 	push	{lr}		; (str lr, [sp, #-4]!)
    9b20:	e24dd00c 	sub	sp, sp, #12, 0
    9b24:	e58d0000 	str	r0, [sp]
    9b28:	e3a03003 	mov	r3, #3, 0
    9b2c:	e59f200c 	ldr	r2, [pc, #12]	; 9b40 <int_vector+0x24>
    9b30:	e59f100c 	ldr	r1, [pc, #12]	; 9b44 <int_vector+0x28>
    9b34:	e59f000c 	ldr	r0, [pc, #12]	; 9b48 <int_vector+0x2c>
    9b38:	ebfffe8c 	bl	9570 <printk>
    9b3c:	ebffffbb 	bl	9a30 <clean_reboot>
    9b40:	0000aa98 	.word	0x0000aa98
    9b44:	0000aa48 	.word	0x0000aa48
    9b48:	0000aa6c 	.word	0x0000aa6c

00009b4c <prefetch_abort_vector>:
    9b4c:	e52de004 	push	{lr}		; (str lr, [sp, #-4]!)
    9b50:	e24dd00c 	sub	sp, sp, #12, 0
    9b54:	e58d0000 	str	r0, [sp]
    9b58:	e3a03003 	mov	r3, #3, 0
    9b5c:	e59f200c 	ldr	r2, [pc, #12]	; 9b70 <prefetch_abort_vector+0x24>
    9b60:	e59f100c 	ldr	r1, [pc, #12]	; 9b74 <prefetch_abort_vector+0x28>
    9b64:	e59f000c 	ldr	r0, [pc, #12]	; 9b78 <prefetch_abort_vector+0x2c>
    9b68:	ebfffe80 	bl	9570 <printk>
    9b6c:	ebffffaf 	bl	9a30 <clean_reboot>
    9b70:	0000aafc 	.word	0x0000aafc
    9b74:	0000aaa4 	.word	0x0000aaa4
    9b78:	0000aacc 	.word	0x0000aacc

00009b7c <reset_vector>:
    9b7c:	e52de004 	push	{lr}		; (str lr, [sp, #-4]!)
    9b80:	e24dd00c 	sub	sp, sp, #12, 0
    9b84:	e58d0000 	str	r0, [sp]
    9b88:	e3a03003 	mov	r3, #3, 0
    9b8c:	e59f200c 	ldr	r2, [pc, #12]	; 9ba0 <reset_vector+0x24>
    9b90:	e59f100c 	ldr	r1, [pc, #12]	; 9ba4 <reset_vector+0x28>
    9b94:	e59f000c 	ldr	r0, [pc, #12]	; 9ba8 <reset_vector+0x2c>
    9b98:	ebfffe74 	bl	9570 <printk>
    9b9c:	ebffffa3 	bl	9a30 <clean_reboot>
    9ba0:	0000ab6c 	.word	0x0000ab6c
    9ba4:	0000ab14 	.word	0x0000ab14
    9ba8:	0000ab38 	.word	0x0000ab38

00009bac <undefined_instruction_vector>:
    9bac:	e52de004 	push	{lr}		; (str lr, [sp, #-4]!)
    9bb0:	e24dd00c 	sub	sp, sp, #12, 0
    9bb4:	e58d0000 	str	r0, [sp]
    9bb8:	e3a03003 	mov	r3, #3, 0
    9bbc:	e59f200c 	ldr	r2, [pc, #12]	; 9bd0 <undefined_instruction_vector+0x24>
    9bc0:	e59f100c 	ldr	r1, [pc, #12]	; 9bd4 <undefined_instruction_vector+0x28>
    9bc4:	e59f000c 	ldr	r0, [pc, #12]	; 9bd8 <undefined_instruction_vector+0x2c>
    9bc8:	ebfffe68 	bl	9570 <printk>
    9bcc:	ebffff97 	bl	9a30 <clean_reboot>
    9bd0:	0000abe8 	.word	0x0000abe8
    9bd4:	0000ab7c 	.word	0x0000ab7c
    9bd8:	0000abac 	.word	0x0000abac

00009bdc <delay_cycles>:
    9bdc:	e2403001 	sub	r3, r0, #1, 0
    9be0:	e3500000 	cmp	r0, #0, 0
    9be4:	012fff1e 	bxeq	lr
    9be8:	e2811000 	add	r1, r1, #0, 0
    9bec:	e1a00003 	mov	r0, r3
    9bf0:	eafffff9 	b	9bdc <delay_cycles>

00009bf4 <rpi_reboot>:
    9bf4:	e92d4010 	push	{r4, lr}
    9bf8:	e3a0000a 	mov	r0, #10, 0
    9bfc:	eb00001f 	bl	9c80 <delay_ms>
    9c00:	e59f1014 	ldr	r1, [pc, #20]	; 9c1c <rpi_reboot+0x28>
    9c04:	e59f0014 	ldr	r0, [pc, #20]	; 9c20 <rpi_reboot+0x2c>
    9c08:	ebfff905 	bl	8024 <PUT32>
    9c0c:	e59f1010 	ldr	r1, [pc, #16]	; 9c24 <rpi_reboot+0x30>
    9c10:	e59f0010 	ldr	r0, [pc, #16]	; 9c28 <rpi_reboot+0x34>
    9c14:	ebfff902 	bl	8024 <PUT32>
    9c18:	eafffffe 	b	9c18 <rpi_reboot+0x24>
    9c1c:	5a000001 	.word	0x5a000001
    9c20:	20100024 	.word	0x20100024
    9c24:	5a000020 	.word	0x5a000020
    9c28:	2010001c 	.word	0x2010001c

00009c2c <timer_get_usec_raw>:
    9c2c:	e92d4010 	push	{r4, lr}
    9c30:	e59f0004 	ldr	r0, [pc, #4]	; 9c3c <timer_get_usec_raw+0x10>
    9c34:	ebfff8fc 	bl	802c <GET32>
    9c38:	e8bd8010 	pop	{r4, pc}
    9c3c:	20003004 	.word	0x20003004

00009c40 <timer_get_usec>:
    9c40:	e92d4010 	push	{r4, lr}
    9c44:	eb0000a8 	bl	9eec <dev_barrier>
    9c48:	ebfffff7 	bl	9c2c <timer_get_usec_raw>
    9c4c:	e1a04000 	mov	r4, r0
    9c50:	eb0000a5 	bl	9eec <dev_barrier>
    9c54:	e1a00004 	mov	r0, r4
    9c58:	e8bd8010 	pop	{r4, pc}

00009c5c <delay_us>:
    9c5c:	e92d4070 	push	{r4, r5, r6, lr}
    9c60:	e1a05000 	mov	r5, r0
    9c64:	ebfffff5 	bl	9c40 <timer_get_usec>
    9c68:	e1a04000 	mov	r4, r0
    9c6c:	ebfffff3 	bl	9c40 <timer_get_usec>
    9c70:	e0400004 	sub	r0, r0, r4
    9c74:	e1500005 	cmp	r0, r5
    9c78:	3afffffb 	bcc	9c6c <delay_us+0x10>
    9c7c:	e8bd8070 	pop	{r4, r5, r6, pc}

00009c80 <delay_ms>:
    9c80:	e92d4010 	push	{r4, lr}
    9c84:	e0603280 	rsb	r3, r0, r0, lsl #5
    9c88:	e0800103 	add	r0, r0, r3, lsl #2
    9c8c:	e1a00180 	lsl	r0, r0, #3
    9c90:	ebfffff1 	bl	9c5c <delay_us>
    9c94:	e8bd8010 	pop	{r4, pc}

00009c98 <delay_sec>:
    9c98:	e92d4010 	push	{r4, lr}
    9c9c:	e0603280 	rsb	r3, r0, r0, lsl #5
    9ca0:	e0800103 	add	r0, r0, r3, lsl #2
    9ca4:	e1a00180 	lsl	r0, r0, #3
    9ca8:	ebfffff4 	bl	9c80 <delay_ms>
    9cac:	e8bd8010 	pop	{r4, pc}

00009cb0 <uart_init>:
    9cb0:	e92d4010 	push	{r4, lr}
    9cb4:	e24dd008 	sub	sp, sp, #8, 0
    9cb8:	eb00008b 	bl	9eec <dev_barrier>
    9cbc:	e3a01002 	mov	r1, #2, 0
    9cc0:	e3a0000e 	mov	r0, #14, 0
    9cc4:	ebfffd91 	bl	9310 <gpio_set_function>
    9cc8:	e3a01002 	mov	r1, #2, 0
    9ccc:	e3a0000f 	mov	r0, #15, 0
    9cd0:	ebfffd8e 	bl	9310 <gpio_set_function>
    9cd4:	eb000084 	bl	9eec <dev_barrier>
    9cd8:	e59f4080 	ldr	r4, [pc, #128]	; 9d60 <uart_init+0xb0>
    9cdc:	e1a00004 	mov	r0, r4
    9ce0:	ebfff8d1 	bl	802c <GET32>
    9ce4:	e58d0004 	str	r0, [sp, #4]
    9ce8:	e59d1004 	ldr	r1, [sp, #4]
    9cec:	e3811001 	orr	r1, r1, #1, 0
    9cf0:	e1a00004 	mov	r0, r4
    9cf4:	ebfff8ca 	bl	8024 <PUT32>
    9cf8:	eb00007b 	bl	9eec <dev_barrier>
    9cfc:	e284405c 	add	r4, r4, #92, 0	; 0x5c
    9d00:	e3a01000 	mov	r1, #0, 0
    9d04:	e1a00004 	mov	r0, r4
    9d08:	ebfff8c5 	bl	8024 <PUT32>
    9d0c:	e3a01000 	mov	r1, #0, 0
    9d10:	e59f004c 	ldr	r0, [pc, #76]	; 9d64 <uart_init+0xb4>
    9d14:	ebfff8c2 	bl	8024 <PUT32>
    9d18:	e3a01006 	mov	r1, #6, 0
    9d1c:	e59f0044 	ldr	r0, [pc, #68]	; 9d68 <uart_init+0xb8>
    9d20:	ebfff8bf 	bl	8024 <PUT32>
    9d24:	e3a01003 	mov	r1, #3, 0
    9d28:	e59f003c 	ldr	r0, [pc, #60]	; 9d6c <uart_init+0xbc>
    9d2c:	ebfff8bc 	bl	8024 <PUT32>
    9d30:	e3a01000 	mov	r1, #0, 0
    9d34:	e59f0034 	ldr	r0, [pc, #52]	; 9d70 <uart_init+0xc0>
    9d38:	ebfff8b9 	bl	8024 <PUT32>
    9d3c:	e59f1030 	ldr	r1, [pc, #48]	; 9d74 <uart_init+0xc4>
    9d40:	e59f0030 	ldr	r0, [pc, #48]	; 9d78 <uart_init+0xc8>
    9d44:	ebfff8b6 	bl	8024 <PUT32>
    9d48:	e3a01003 	mov	r1, #3, 0
    9d4c:	e1a00004 	mov	r0, r4
    9d50:	ebfff8b3 	bl	8024 <PUT32>
    9d54:	eb000064 	bl	9eec <dev_barrier>
    9d58:	e28dd008 	add	sp, sp, #8, 0
    9d5c:	e8bd8010 	pop	{r4, pc}
    9d60:	20215004 	.word	0x20215004
    9d64:	20215044 	.word	0x20215044
    9d68:	20215048 	.word	0x20215048
    9d6c:	2021504c 	.word	0x2021504c
    9d70:	20215050 	.word	0x20215050
    9d74:	0000010e 	.word	0x0000010e
    9d78:	20215068 	.word	0x20215068

00009d7c <uart_can_put8>:
    9d7c:	e92d4010 	push	{r4, lr}
    9d80:	e59f0008 	ldr	r0, [pc, #8]	; 9d90 <uart_can_put8+0x14>
    9d84:	ebfff8a8 	bl	802c <GET32>
    9d88:	e2000002 	and	r0, r0, #2, 0
    9d8c:	e8bd8010 	pop	{r4, pc}
    9d90:	20215064 	.word	0x20215064

00009d94 <uart_put8>:
    9d94:	e92d4010 	push	{r4, lr}
    9d98:	e1a04000 	mov	r4, r0
    9d9c:	eb000052 	bl	9eec <dev_barrier>
    9da0:	ebfffff5 	bl	9d7c <uart_can_put8>
    9da4:	e3500000 	cmp	r0, #0, 0
    9da8:	1a000001 	bne	9db4 <uart_put8+0x20>
    9dac:	eb000054 	bl	9f04 <rpi_wait>
    9db0:	eafffffa 	b	9da0 <uart_put8+0xc>
    9db4:	e1a01004 	mov	r1, r4
    9db8:	e59f000c 	ldr	r0, [pc, #12]	; 9dcc <uart_put8+0x38>
    9dbc:	ebfff898 	bl	8024 <PUT32>
    9dc0:	eb000049 	bl	9eec <dev_barrier>
    9dc4:	e3a00001 	mov	r0, #1, 0
    9dc8:	e8bd8010 	pop	{r4, pc}
    9dcc:	20215040 	.word	0x20215040

00009dd0 <uart_has_data>:
    9dd0:	e92d4010 	push	{r4, lr}
    9dd4:	e59f0008 	ldr	r0, [pc, #8]	; 9de4 <uart_has_data+0x14>
    9dd8:	ebfff893 	bl	802c <GET32>
    9ddc:	e2000001 	and	r0, r0, #1, 0
    9de0:	e8bd8010 	pop	{r4, pc}
    9de4:	20215064 	.word	0x20215064

00009de8 <uart_get8>:
    9de8:	e92d4010 	push	{r4, lr}
    9dec:	eb00003e 	bl	9eec <dev_barrier>
    9df0:	ebfffff6 	bl	9dd0 <uart_has_data>
    9df4:	e3500000 	cmp	r0, #0, 0
    9df8:	1a000001 	bne	9e04 <uart_get8+0x1c>
    9dfc:	eb000040 	bl	9f04 <rpi_wait>
    9e00:	eafffffa 	b	9df0 <uart_get8+0x8>
    9e04:	e59f0010 	ldr	r0, [pc, #16]	; 9e1c <uart_get8+0x34>
    9e08:	ebfff887 	bl	802c <GET32>
    9e0c:	e6ef4070 	uxtb	r4, r0
    9e10:	eb000035 	bl	9eec <dev_barrier>
    9e14:	e1a00004 	mov	r0, r4
    9e18:	e8bd8010 	pop	{r4, pc}
    9e1c:	20215040 	.word	0x20215040

00009e20 <uart_get8_async>:
    9e20:	e92d4010 	push	{r4, lr}
    9e24:	eb000030 	bl	9eec <dev_barrier>
    9e28:	ebffffe8 	bl	9dd0 <uart_has_data>
    9e2c:	e3500000 	cmp	r0, #0, 0
    9e30:	0a000001 	beq	9e3c <uart_get8_async+0x1c>
    9e34:	ebffffeb 	bl	9de8 <uart_get8>
    9e38:	e8bd8010 	pop	{r4, pc}
    9e3c:	e3e00000 	mvn	r0, #0, 0
    9e40:	e8bd8010 	pop	{r4, pc}

00009e44 <uart_tx_is_empty>:
    9e44:	e92d4010 	push	{r4, lr}
    9e48:	e59f000c 	ldr	r0, [pc, #12]	; 9e5c <uart_tx_is_empty+0x18>
    9e4c:	ebfff876 	bl	802c <GET32>
    9e50:	e1a004a0 	lsr	r0, r0, #9
    9e54:	e2000001 	and	r0, r0, #1, 0
    9e58:	e8bd8010 	pop	{r4, pc}
    9e5c:	20215064 	.word	0x20215064

00009e60 <uart_flush_tx>:
    9e60:	e92d4010 	push	{r4, lr}
    9e64:	ebfffff6 	bl	9e44 <uart_tx_is_empty>
    9e68:	e3500000 	cmp	r0, #0, 0
    9e6c:	18bd8010 	popne	{r4, pc}
    9e70:	eb000023 	bl	9f04 <rpi_wait>
    9e74:	eafffffa 	b	9e64 <uart_flush_tx+0x4>

00009e78 <uart_disable>:
    9e78:	e92d4010 	push	{r4, lr}
    9e7c:	e24dd008 	sub	sp, sp, #8, 0
    9e80:	eb000019 	bl	9eec <dev_barrier>
    9e84:	ebfffff5 	bl	9e60 <uart_flush_tx>
    9e88:	e59f4024 	ldr	r4, [pc, #36]	; 9eb4 <uart_disable+0x3c>
    9e8c:	e1a00004 	mov	r0, r4
    9e90:	ebfff865 	bl	802c <GET32>
    9e94:	e58d0004 	str	r0, [sp, #4]
    9e98:	e59d1004 	ldr	r1, [sp, #4]
    9e9c:	e2011006 	and	r1, r1, #6, 0
    9ea0:	e1a00004 	mov	r0, r4
    9ea4:	ebfff85e 	bl	8024 <PUT32>
    9ea8:	eb00000f 	bl	9eec <dev_barrier>
    9eac:	e28dd008 	add	sp, sp, #8, 0
    9eb0:	e8bd8010 	pop	{r4, pc}
    9eb4:	20215004 	.word	0x20215004

00009eb8 <putk>:
    9eb8:	e92d4010 	push	{r4, lr}
    9ebc:	e1a04000 	mov	r4, r0
    9ec0:	e5d40000 	ldrb	r0, [r4]
    9ec4:	e3500000 	cmp	r0, #0, 0
    9ec8:	0a000004 	beq	9ee0 <putk+0x28>
    9ecc:	e59f3014 	ldr	r3, [pc, #20]	; 9ee8 <putk+0x30>
    9ed0:	e5933000 	ldr	r3, [r3]
    9ed4:	e12fff33 	blx	r3
    9ed8:	e2844001 	add	r4, r4, #1, 0
    9edc:	eafffff7 	b	9ec0 <putk+0x8>
    9ee0:	e3a00001 	mov	r0, #1, 0
    9ee4:	e8bd8010 	pop	{r4, pc}
    9ee8:	0000b0bc 	.word	0x0000b0bc

00009eec <dev_barrier>:
    9eec:	ea000002 	b	9efc <dsb>

00009ef0 <dmb>:
    9ef0:	e3a00000 	mov	r0, #0, 0
    9ef4:	ee070fba 	mcr	15, 0, r0, cr7, cr10, {5}
    9ef8:	e12fff1e 	bx	lr

00009efc <dsb>:
    9efc:	ee070f9a 	mcr	15, 0, r0, cr7, cr10, {4}
    9f00:	e12fff1e 	bx	lr

00009f04 <rpi_wait>:
    9f04:	e12fff1e 	bx	lr
