
objs/blink.elf:     file format elf32-littlearm


Disassembly of section .text:

00008000 <__code_start__>:
    8000:	e3a00013 	mov	r0, #19, 0
    8004:	e3800080 	orr	r0, r0, #128, 0	; 0x80
    8008:	e129f000 	msr	CPSR_fc, r0
    800c:	e3a01000 	mov	r1, #0, 0
    8010:	ee071f95 	mcr	15, 0, r1, cr7, cr5, {4}
    8014:	e3a0d302 	mov	sp, #134217728	; 0x8000000
    8018:	e3a0b000 	mov	fp, #0, 0
    801c:	eb00068c 	bl	9a54 <_cstart>
    8020:	eb0006f1 	bl	9bec <rpi_reboot>

00008024 <PUT32>:
    8024:	e5801000 	str	r1, [r0]
    8028:	e12fff1e 	bx	lr

0000802c <GET32>:
    802c:	e5900000 	ldr	r0, [r0]
    8030:	e12fff1e 	bx	lr

00008034 <BRANCHTO>:
    8034:	e12fff10 	bx	r0

00008038 <notmain>:
    8038:	e92d4070 	push	{r4, r5, r6, lr}
    803c:	e3a00014 	mov	r0, #20, 0
    8040:	eb0004cf 	bl	9384 <gpio_set_output>
    8044:	e3a04000 	mov	r4, #0, 0
    8048:	e3540009 	cmp	r4, #9, 0
    804c:	ca00000a 	bgt	807c <notmain+0x44>
    8050:	e3a00014 	mov	r0, #20, 0
    8054:	eb00047c 	bl	924c <gpio_set_on>
    8058:	e59f5028 	ldr	r5, [pc, #40]	; 8088 <notmain+0x50>
    805c:	e1a00005 	mov	r0, r5
    8060:	eb0006db 	bl	9bd4 <delay_cycles>
    8064:	e3a00014 	mov	r0, #20, 0
    8068:	eb000484 	bl	9280 <gpio_set_off>
    806c:	e1a00005 	mov	r0, r5
    8070:	eb0006d7 	bl	9bd4 <delay_cycles>
    8074:	e2844001 	add	r4, r4, #1, 0
    8078:	eafffff2 	b	8048 <notmain+0x10>
    807c:	e3a00014 	mov	r0, #20, 0
    8080:	eb000471 	bl	924c <gpio_set_on>
    8084:	e8bd8070 	pop	{r4, r5, r6, pc}
    8088:	000f4240 	.word	0x000f4240

0000808c <mmu_reset>:
    808c:	e3a02000 	mov	r2, #0, 0
    8090:	ee072f15 	mcr	15, 0, r2, cr7, cr5, {0}
    8094:	ee072f15 	mcr	15, 0, r2, cr7, cr5, {0}
    8098:	ee072f15 	mcr	15, 0, r2, cr7, cr5, {0}
    809c:	ee072f15 	mcr	15, 0, r2, cr7, cr5, {0}
    80a0:	e320f000 	nop	{0}
    80a4:	e320f000 	nop	{0}
    80a8:	e320f000 	nop	{0}
    80ac:	e320f000 	nop	{0}
    80b0:	e320f000 	nop	{0}
    80b4:	e320f000 	nop	{0}
    80b8:	e320f000 	nop	{0}
    80bc:	e320f000 	nop	{0}
    80c0:	e320f000 	nop	{0}
    80c4:	e320f000 	nop	{0}
    80c8:	e320f000 	nop	{0}
    80cc:	ee072f16 	mcr	15, 0, r2, cr7, cr6, {0}
    80d0:	ee082f17 	mcr	15, 0, r2, cr8, cr7, {0}
    80d4:	ee072f9a 	mcr	15, 0, r2, cr7, cr10, {4}
    80d8:	ee072fd5 	mcr	15, 0, r2, cr7, cr5, {6}
    80dc:	ee072f95 	mcr	15, 0, r2, cr7, cr5, {4}
    80e0:	e12fff1e 	bx	lr

000080e4 <cp15_domain_ctrl_wr>:
    80e4:	ee030f10 	mcr	15, 0, r0, cr3, cr0, {0}
    80e8:	e3a02000 	mov	r2, #0, 0
    80ec:	ee072f95 	mcr	15, 0, r2, cr7, cr5, {4}
    80f0:	e12fff1e 	bx	lr

000080f4 <cp15_set_procid_ttbr0>:
    80f4:	e3a02000 	mov	r2, #0, 0
    80f8:	ee072f9a 	mcr	15, 0, r2, cr7, cr10, {4}
    80fc:	ee0d2f30 	mcr	15, 0, r2, cr13, cr0, {1}
    8100:	ee072f95 	mcr	15, 0, r2, cr7, cr5, {4}
    8104:	ee021f10 	mcr	15, 0, r1, cr2, cr0, {0}
    8108:	ee022f30 	mcr	15, 0, r2, cr2, cr0, {1}
    810c:	ee022f50 	mcr	15, 0, r2, cr2, cr0, {2}
    8110:	ee072fd5 	mcr	15, 0, r2, cr7, cr5, {6}
    8114:	ee072f95 	mcr	15, 0, r2, cr7, cr5, {4}
    8118:	ee0d0f30 	mcr	15, 0, r0, cr13, cr0, {1}
    811c:	ee072fd5 	mcr	15, 0, r2, cr7, cr5, {6}
    8120:	ee072f95 	mcr	15, 0, r2, cr7, cr5, {4}
    8124:	e12fff1e 	bx	lr

00008128 <mmu_disable_set_asm>:
    8128:	e3a02000 	mov	r2, #0, 0
    812c:	ee072f1e 	mcr	15, 0, r2, cr7, cr14, {0}
    8130:	ee072f9a 	mcr	15, 0, r2, cr7, cr10, {4}
    8134:	ee012f10 	mcr	15, 0, r2, cr1, cr0, {0}
    8138:	ee072f95 	mcr	15, 0, r2, cr7, cr5, {4}
    813c:	ee072f15 	mcr	15, 0, r2, cr7, cr5, {0}
    8140:	ee072f15 	mcr	15, 0, r2, cr7, cr5, {0}
    8144:	ee072f15 	mcr	15, 0, r2, cr7, cr5, {0}
    8148:	ee072f15 	mcr	15, 0, r2, cr7, cr5, {0}
    814c:	e320f000 	nop	{0}
    8150:	e320f000 	nop	{0}
    8154:	e320f000 	nop	{0}
    8158:	e320f000 	nop	{0}
    815c:	e320f000 	nop	{0}
    8160:	e320f000 	nop	{0}
    8164:	e320f000 	nop	{0}
    8168:	e320f000 	nop	{0}
    816c:	e320f000 	nop	{0}
    8170:	e320f000 	nop	{0}
    8174:	e320f000 	nop	{0}
    8178:	ee072f9a 	mcr	15, 0, r2, cr7, cr10, {4}
    817c:	ee072fd5 	mcr	15, 0, r2, cr7, cr5, {6}
    8180:	ee072f95 	mcr	15, 0, r2, cr7, cr5, {4}
    8184:	e12fff1e 	bx	lr

00008188 <mmu_enable_set_asm>:
    8188:	e1a01000 	mov	r1, r0
    818c:	e3a02000 	mov	r2, #0, 0
    8190:	ee110f10 	mrc	15, 0, r0, cr1, cr0, {0}
    8194:	e3c00a01 	bic	r0, r0, #4096	; 0x1000
    8198:	ee010f10 	mcr	15, 0, r0, cr1, cr0, {0}
    819c:	ee072f95 	mcr	15, 0, r2, cr7, cr5, {4}
    81a0:	ee072f15 	mcr	15, 0, r2, cr7, cr5, {0}
    81a4:	ee072f15 	mcr	15, 0, r2, cr7, cr5, {0}
    81a8:	ee072f15 	mcr	15, 0, r2, cr7, cr5, {0}
    81ac:	ee072f15 	mcr	15, 0, r2, cr7, cr5, {0}
    81b0:	e320f000 	nop	{0}
    81b4:	e320f000 	nop	{0}
    81b8:	e320f000 	nop	{0}
    81bc:	e320f000 	nop	{0}
    81c0:	e320f000 	nop	{0}
    81c4:	e320f000 	nop	{0}
    81c8:	e320f000 	nop	{0}
    81cc:	e320f000 	nop	{0}
    81d0:	e320f000 	nop	{0}
    81d4:	e320f000 	nop	{0}
    81d8:	e320f000 	nop	{0}
    81dc:	ee072f9a 	mcr	15, 0, r2, cr7, cr10, {4}
    81e0:	e1a00001 	mov	r0, r1
    81e4:	ee010f10 	mcr	15, 0, r0, cr1, cr0, {0}
    81e8:	ee072f95 	mcr	15, 0, r2, cr7, cr5, {4}
    81ec:	ee072fd5 	mcr	15, 0, r2, cr7, cr5, {6}
    81f0:	ee072f95 	mcr	15, 0, r2, cr7, cr5, {4}
    81f4:	e12fff1e 	bx	lr

000081f8 <mmu_sync_pte_mods>:
    81f8:	e3a02000 	mov	r2, #0, 0
    81fc:	ee072f1e 	mcr	15, 0, r2, cr7, cr14, {0}
    8200:	ee072f15 	mcr	15, 0, r2, cr7, cr5, {0}
    8204:	ee072f15 	mcr	15, 0, r2, cr7, cr5, {0}
    8208:	ee072f15 	mcr	15, 0, r2, cr7, cr5, {0}
    820c:	ee072f15 	mcr	15, 0, r2, cr7, cr5, {0}
    8210:	e320f000 	nop	{0}
    8214:	e320f000 	nop	{0}
    8218:	e320f000 	nop	{0}
    821c:	e320f000 	nop	{0}
    8220:	e320f000 	nop	{0}
    8224:	e320f000 	nop	{0}
    8228:	e320f000 	nop	{0}
    822c:	e320f000 	nop	{0}
    8230:	e320f000 	nop	{0}
    8234:	e320f000 	nop	{0}
    8238:	e320f000 	nop	{0}
    823c:	ee072f9a 	mcr	15, 0, r2, cr7, cr10, {4}
    8240:	ee082f17 	mcr	15, 0, r2, cr8, cr7, {0}
    8244:	ee072fd5 	mcr	15, 0, r2, cr7, cr5, {6}
    8248:	ee072f9a 	mcr	15, 0, r2, cr7, cr10, {4}
    824c:	ee072f95 	mcr	15, 0, r2, cr7, cr5, {4}
    8250:	e12fff1e 	bx	lr

00008254 <cp15_ctrl_reg1_get>:
    8254:	ee110f10 	mrc	15, 0, r0, cr1, cr0, {0}
    8258:	e12fff1e 	bx	lr

0000825c <cp15_ctrl_reg1_wr>:
    825c:	e3a02000 	mov	r2, #0, 0
    8260:	ee010f10 	mcr	15, 0, r0, cr1, cr0, {0}
    8264:	ee072f9a 	mcr	15, 0, r2, cr7, cr10, {4}
    8268:	ee072fd5 	mcr	15, 0, r2, cr7, cr5, {6}
    826c:	ee072f9a 	mcr	15, 0, r2, cr7, cr10, {4}
    8270:	ee072f95 	mcr	15, 0, r2, cr7, cr5, {4}
    8274:	e12fff1e 	bx	lr

00008278 <pin_mmu_enable>:
    8278:	e92d4010 	push	{r4, lr}
    827c:	eb000132 	bl	874c <mmu_enable>
    8280:	e8bd8010 	pop	{r4, pc}

00008284 <pin_mmu_disable>:
    8284:	e92d4010 	push	{r4, lr}
    8288:	eb000107 	bl	86ac <mmu_disable>
    828c:	e8bd8010 	pop	{r4, pc}

00008290 <pin_set_context>:
    8290:	e92d4010 	push	{r4, lr}
    8294:	e1a04000 	mov	r4, r0
    8298:	e3a01901 	mov	r1, #16384	; 0x4000
    829c:	e1a00001 	mov	r0, r1
    82a0:	eb0003a0 	bl	9128 <kmalloc_aligned>
    82a4:	e1a02000 	mov	r2, r0
    82a8:	e1a01004 	mov	r1, r4
    82ac:	e3a00080 	mov	r0, #128, 0	; 0x80
    82b0:	eb00013a 	bl	87a0 <mmu_set_ctx>
    82b4:	e8bd8010 	pop	{r4, pc}

000082b8 <pin_mmu_sec>:
    82b8:	e24dd008 	sub	sp, sp, #8, 0
    82bc:	e52de004 	push	{lr}		; (str lr, [sp, #-4]!)
    82c0:	e24dd00c 	sub	sp, sp, #12, 0
    82c4:	e58d3014 	str	r3, [sp, #20]
    82c8:	e3500007 	cmp	r0, #7, 0
    82cc:	8a00001c 	bhi	8344 <pin_mmu_sec+0x8c>
    82d0:	eeaf0f54 	mcr	15, 5, r0, cr15, cr4, {2}
    82d4:	e3a00000 	mov	r0, #0, 0
    82d8:	ee070f95 	mcr	15, 0, r0, cr7, cr5, {4}
    82dc:	e59dc014 	ldr	ip, [sp, #20]
    82e0:	e59d3018 	ldr	r3, [sp, #24]
    82e4:	e183348c 	orr	r3, r3, ip, lsl #9
    82e8:	e1831001 	orr	r1, r3, r1
    82ec:	eeaf1f55 	mcr	15, 5, r1, cr15, cr5, {2}
    82f0:	ee070f95 	mcr	15, 0, r0, cr7, cr5, {4}
    82f4:	e5dd1025 	ldrb	r1, [sp, #37]	; 0x25
    82f8:	e59d301c 	ldr	r3, [sp, #28]
    82fc:	e1a03383 	lsl	r3, r3, #7
    8300:	e1833081 	orr	r3, r3, r1, lsl #1
    8304:	eeaf3f57 	mcr	15, 5, r3, cr15, cr7, {2}
    8308:	ee070f95 	mcr	15, 0, r0, cr7, cr5, {4}
    830c:	e5dd3024 	ldrb	r3, [sp, #36]	; 0x24
    8310:	e1a03083 	lsl	r3, r3, #1
    8314:	e3833001 	orr	r3, r3, #1, 0
    8318:	e59d1020 	ldr	r1, [sp, #32]
    831c:	e1833301 	orr	r3, r3, r1, lsl #6
    8320:	e1832002 	orr	r2, r3, r2
    8324:	eeaf2f56 	mcr	15, 5, r2, cr15, cr6, {2}
    8328:	ee070f95 	mcr	15, 0, r0, cr7, cr5, {4}
    832c:	ee070f9a 	mcr	15, 0, r0, cr7, cr10, {4}
    8330:	ee070f95 	mcr	15, 0, r0, cr7, cr5, {4}
    8334:	e28dd00c 	add	sp, sp, #12, 0
    8338:	e49de004 	pop	{lr}		; (ldr lr, [sp], #4)
    833c:	e28dd008 	add	sp, sp, #8, 0
    8340:	e12fff1e 	bx	lr
    8344:	e59f3018 	ldr	r3, [pc, #24]	; 8364 <pin_mmu_sec+0xac>
    8348:	e58d3000 	str	r3, [sp]
    834c:	e3a03026 	mov	r3, #38, 0	; 0x26
    8350:	e59f2010 	ldr	r2, [pc, #16]	; 8368 <pin_mmu_sec+0xb0>
    8354:	e59f1010 	ldr	r1, [pc, #16]	; 836c <pin_mmu_sec+0xb4>
    8358:	e59f0010 	ldr	r0, [pc, #16]	; 8370 <pin_mmu_sec+0xb8>
    835c:	eb000481 	bl	9568 <printk>
    8360:	eb0005b0 	bl	9a28 <clean_reboot>
    8364:	00009f3c 	.word	0x00009f3c
    8368:	0000a068 	.word	0x0000a068
    836c:	00009f00 	.word	0x00009f00
    8370:	00009f0c 	.word	0x00009f0c

00008374 <tlb_contains_va>:
    8374:	ee071f18 	mcr	15, 0, r1, cr7, cr8, {0}
    8378:	e3a03000 	mov	r3, #0, 0
    837c:	ee073f95 	mcr	15, 0, r3, cr7, cr5, {4}
    8380:	ee173f14 	mrc	15, 0, r3, cr7, cr4, {0}
    8384:	e2232001 	eor	r2, r3, #1, 0
    8388:	e3c33fff 	bic	r3, r3, #1020	; 0x3fc
    838c:	e3c33003 	bic	r3, r3, #3, 0
    8390:	e1a01b01 	lsl	r1, r1, #22
    8394:	e1a01b21 	lsr	r1, r1, #22
    8398:	e1833001 	orr	r3, r3, r1
    839c:	e5803000 	str	r3, [r0]
    83a0:	e2020001 	and	r0, r2, #1, 0
    83a4:	e12fff1e 	bx	lr

000083a8 <pin_exists>:
    83a8:	e52de004 	push	{lr}		; (str lr, [sp, #-4]!)
    83ac:	e24dd00c 	sub	sp, sp, #12, 0
    83b0:	e1a01000 	mov	r1, r0
    83b4:	e28d0004 	add	r0, sp, #4, 0
    83b8:	ebffffed 	bl	8374 <tlb_contains_va>
    83bc:	e28dd00c 	add	sp, sp, #12, 0
    83c0:	e49df004 	pop	{pc}		; (ldr pc, [sp], #4)

000083c4 <get_regs_idx>:
    83c4:	eeaf0f54 	mcr	15, 5, r0, cr15, cr4, {2}
    83c8:	e3a00000 	mov	r0, #0, 0
    83cc:	ee070f95 	mcr	15, 0, r0, cr7, cr5, {4}
    83d0:	eebf1f55 	mrc	15, 5, r1, cr15, cr5, {2}
    83d4:	eebf2f56 	mrc	15, 5, r2, cr15, cr6, {2}
    83d8:	eebf3f57 	mrc	15, 5, r3, cr15, cr7, {2}
    83dc:	ee070f9a 	mcr	15, 0, r0, cr7, cr10, {4}
    83e0:	ee070f95 	mcr	15, 0, r0, cr7, cr5, {4}
    83e4:	e5801000 	str	r1, [r0]
    83e8:	e5802004 	str	r2, [r0, #4]
    83ec:	e5803008 	str	r3, [r0, #8]
    83f0:	e12fff1e 	bx	lr

000083f4 <lockdown_print_entry>:
    83f4:	e92d4ff0 	push	{r4, r5, r6, r7, r8, r9, sl, fp, lr}
    83f8:	e24dd01c 	sub	sp, sp, #28, 0
    83fc:	e1a07000 	mov	r7, r0
    8400:	e59f1140 	ldr	r1, [pc, #320]	; 8548 <lockdown_print_entry+0x154>
    8404:	e59f0140 	ldr	r0, [pc, #320]	; 854c <lockdown_print_entry+0x158>
    8408:	eb000456 	bl	9568 <printk>
    840c:	e1a01007 	mov	r1, r7
    8410:	e59f0138 	ldr	r0, [pc, #312]	; 8550 <lockdown_print_entry+0x15c>
    8414:	eb000453 	bl	9568 <printk>
    8418:	e1a00007 	mov	r0, r7
    841c:	ebffffe8 	bl	83c4 <get_regs_idx>
    8420:	e5906000 	ldr	r6, [r0]
    8424:	e5904004 	ldr	r4, [r0, #4]
    8428:	e5905008 	ldr	r5, [r0, #8]
    842c:	e214a001 	ands	sl, r4, #1, 0
    8430:	0a00003d 	beq	852c <lockdown_print_entry+0x138>
    8434:	e1a03626 	lsr	r3, r6, #12
    8438:	e58d3010 	str	r3, [sp, #16]
    843c:	e1a094a6 	lsr	r9, r6, #9
    8440:	e2099001 	and	r9, r9, #1, 0
    8444:	e6efb076 	uxtb	fp, r6
    8448:	e59f80f8 	ldr	r8, [pc, #248]	; 8548 <lockdown_print_entry+0x154>
    844c:	e59f70f8 	ldr	r7, [pc, #248]	; 854c <lockdown_print_entry+0x158>
    8450:	e1a01008 	mov	r1, r8
    8454:	e1a00007 	mov	r0, r7
    8458:	eb000442 	bl	9568 <printk>
    845c:	e58db000 	str	fp, [sp]
    8460:	e1a03009 	mov	r3, r9
    8464:	e59d2010 	ldr	r2, [sp, #16]
    8468:	e1a01006 	mov	r1, r6
    846c:	e59f00e0 	ldr	r0, [pc, #224]	; 8554 <lockdown_print_entry+0x160>
    8470:	eb00043c 	bl	9568 <printk>
    8474:	e1a03624 	lsr	r3, r4, #12
    8478:	e58d3010 	str	r3, [sp, #16]
    847c:	e1a034a4 	lsr	r3, r4, #9
    8480:	e2031001 	and	r1, r3, #1, 0
    8484:	e58d1014 	str	r1, [sp, #20]
    8488:	e1a06424 	lsr	r6, r4, #8
    848c:	e2066001 	and	r6, r6, #1, 0
    8490:	e1a09324 	lsr	r9, r4, #6
    8494:	e2099003 	and	r9, r9, #3, 0
    8498:	e1a0b0a4 	lsr	fp, r4, #1
    849c:	e20bb003 	and	fp, fp, #3, 0
    84a0:	e1a01008 	mov	r1, r8
    84a4:	e1a00007 	mov	r0, r7
    84a8:	eb00042e 	bl	9568 <printk>
    84ac:	e58da00c 	str	sl, [sp, #12]
    84b0:	e58db008 	str	fp, [sp, #8]
    84b4:	e58d9004 	str	r9, [sp, #4]
    84b8:	e58d6000 	str	r6, [sp]
    84bc:	e59d3014 	ldr	r3, [sp, #20]
    84c0:	e59d2010 	ldr	r2, [sp, #16]
    84c4:	e1a01004 	mov	r1, r4
    84c8:	e59f0088 	ldr	r0, [pc, #136]	; 8558 <lockdown_print_entry+0x164>
    84cc:	eb000425 	bl	9568 <printk>
    84d0:	e1a043a5 	lsr	r4, r5, #7
    84d4:	e204400f 	and	r4, r4, #15, 0
    84d8:	e1a06325 	lsr	r6, r5, #6
    84dc:	e2066001 	and	r6, r6, #1, 0
    84e0:	e1a091a5 	lsr	r9, r5, #3
    84e4:	e2099007 	and	r9, r9, #7, 0
    84e8:	e1a0a125 	lsr	sl, r5, #2
    84ec:	e20aa001 	and	sl, sl, #1, 0
    84f0:	e1a0b0a5 	lsr	fp, r5, #1
    84f4:	e20bb001 	and	fp, fp, #1, 0
    84f8:	e1a01008 	mov	r1, r8
    84fc:	e1a00007 	mov	r0, r7
    8500:	eb000418 	bl	9568 <printk>
    8504:	e58db008 	str	fp, [sp, #8]
    8508:	e58da004 	str	sl, [sp, #4]
    850c:	e58d9000 	str	r9, [sp]
    8510:	e1a03006 	mov	r3, r6
    8514:	e1a02004 	mov	r2, r4
    8518:	e1a01005 	mov	r1, r5
    851c:	e59f0038 	ldr	r0, [pc, #56]	; 855c <lockdown_print_entry+0x168>
    8520:	eb000410 	bl	9568 <printk>
    8524:	e28dd01c 	add	sp, sp, #28, 0
    8528:	e8bd8ff0 	pop	{r4, r5, r6, r7, r8, r9, sl, fp, pc}
    852c:	e59f1014 	ldr	r1, [pc, #20]	; 8548 <lockdown_print_entry+0x154>
    8530:	e59f0014 	ldr	r0, [pc, #20]	; 854c <lockdown_print_entry+0x158>
    8534:	eb00040b 	bl	9568 <printk>
    8538:	e1a01007 	mov	r1, r7
    853c:	e59f001c 	ldr	r0, [pc, #28]	; 8560 <lockdown_print_entry+0x16c>
    8540:	eb000408 	bl	9568 <printk>
    8544:	eafffff6 	b	8524 <lockdown_print_entry+0x130>
    8548:	0000a074 	.word	0x0000a074
    854c:	00009f44 	.word	0x00009f44
    8550:	00009f50 	.word	0x00009f50
    8554:	00009f78 	.word	0x00009f78
    8558:	00009f9c 	.word	0x00009f9c
    855c:	00009fd8 	.word	0x00009fd8
    8560:	00009f5c 	.word	0x00009f5c

00008564 <lockdown_print_entries>:
    8564:	e92d4070 	push	{r4, r5, r6, lr}
    8568:	e1a04000 	mov	r4, r0
    856c:	e59f6060 	ldr	r6, [pc, #96]	; 85d4 <lockdown_print_entries+0x70>
    8570:	e59f5060 	ldr	r5, [pc, #96]	; 85d8 <lockdown_print_entries+0x74>
    8574:	e1a01006 	mov	r1, r6
    8578:	e1a00005 	mov	r0, r5
    857c:	eb0003f9 	bl	9568 <printk>
    8580:	e1a01004 	mov	r1, r4
    8584:	e59f0050 	ldr	r0, [pc, #80]	; 85dc <lockdown_print_entries+0x78>
    8588:	eb0003f6 	bl	9568 <printk>
    858c:	e1a01006 	mov	r1, r6
    8590:	e1a00005 	mov	r0, r5
    8594:	eb0003f3 	bl	9568 <printk>
    8598:	e59f0040 	ldr	r0, [pc, #64]	; 85e0 <lockdown_print_entries+0x7c>
    859c:	eb0003f1 	bl	9568 <printk>
    85a0:	e3a04000 	mov	r4, #0, 0
    85a4:	ea000002 	b	85b4 <lockdown_print_entries+0x50>
    85a8:	e1a00004 	mov	r0, r4
    85ac:	ebffff90 	bl	83f4 <lockdown_print_entry>
    85b0:	e2844001 	add	r4, r4, #1, 0
    85b4:	e3540007 	cmp	r4, #7, 0
    85b8:	dafffffa 	ble	85a8 <lockdown_print_entries+0x44>
    85bc:	e59f1010 	ldr	r1, [pc, #16]	; 85d4 <lockdown_print_entries+0x70>
    85c0:	e59f0010 	ldr	r0, [pc, #16]	; 85d8 <lockdown_print_entries+0x74>
    85c4:	eb0003e7 	bl	9568 <printk>
    85c8:	e59f0014 	ldr	r0, [pc, #20]	; 85e4 <lockdown_print_entries+0x80>
    85cc:	eb0003e5 	bl	9568 <printk>
    85d0:	e8bd8070 	pop	{r4, r5, r6, pc}
    85d4:	0000a08c 	.word	0x0000a08c
    85d8:	00009f44 	.word	0x00009f44
    85dc:	0000a008 	.word	0x0000a008
    85e0:	0000a01c 	.word	0x0000a01c
    85e4:	0000a03c 	.word	0x0000a03c

000085e8 <pin_clear>:
    85e8:	e12fff1e 	bx	lr

000085ec <pin_mmu_init>:
    85ec:	e92d4010 	push	{r4, lr}
    85f0:	e1a04000 	mov	r4, r0
    85f4:	eb00008a 	bl	8824 <mmu_init>
    85f8:	e1a00004 	mov	r0, r4
    85fc:	eb0000ac 	bl	88b4 <domain_access_ctrl_set>
    8600:	e8bd8010 	pop	{r4, pc}

00008604 <cp15_ctrl_reg1_rd>:
    8604:	e52de004 	push	{lr}		; (str lr, [sp, #-4]!)
    8608:	e24dd00c 	sub	sp, sp, #12, 0
    860c:	ebffff10 	bl	8254 <cp15_ctrl_reg1_get>
    8610:	e58d0000 	str	r0, [sp]
    8614:	e3a02004 	mov	r2, #4, 0
    8618:	e1a0100d 	mov	r1, sp
    861c:	e08d0002 	add	r0, sp, r2
    8620:	eb00037d 	bl	941c <memcpy>
    8624:	e59d0004 	ldr	r0, [sp, #4]
    8628:	e28dd00c 	add	sp, sp, #12, 0
    862c:	e49df004 	pop	{pc}		; (ldr pc, [sp], #4)

00008630 <mmu_is_enabled>:
    8630:	e92d4010 	push	{r4, lr}
    8634:	ebfffff2 	bl	8604 <cp15_ctrl_reg1_rd>
    8638:	e2000001 	and	r0, r0, #1, 0
    863c:	e8bd8010 	pop	{r4, pc}

00008640 <mmu_disable_set>:
    8640:	e92d4030 	push	{r4, r5, lr}
    8644:	e24dd00c 	sub	sp, sp, #12, 0
    8648:	e3100001 	tst	r0, #1, 0
    864c:	1a000007 	bne	8670 <mmu_disable_set+0x30>
    8650:	e1a04000 	mov	r4, r0
    8654:	e1a05120 	lsr	r5, r0, #2
    8658:	e2055001 	and	r5, r5, #1, 0
    865c:	ebfffeb1 	bl	8128 <mmu_disable_set_asm>
    8660:	e3550000 	cmp	r5, #0, 0
    8664:	1a000009 	bne	8690 <mmu_disable_set+0x50>
    8668:	e28dd00c 	add	sp, sp, #12, 0
    866c:	e8bd8030 	pop	{r4, r5, pc}
    8670:	e59f3024 	ldr	r3, [pc, #36]	; 869c <mmu_disable_set+0x5c>
    8674:	e58d3000 	str	r3, [sp]
    8678:	e3a0301f 	mov	r3, #31, 0
    867c:	e59f201c 	ldr	r2, [pc, #28]	; 86a0 <mmu_disable_set+0x60>
    8680:	e59f101c 	ldr	r1, [pc, #28]	; 86a4 <mmu_disable_set+0x64>
    8684:	e59f001c 	ldr	r0, [pc, #28]	; 86a8 <mmu_disable_set+0x68>
    8688:	eb0003b6 	bl	9568 <printk>
    868c:	eb0004e5 	bl	9a28 <clean_reboot>
    8690:	e3840004 	orr	r0, r4, #4, 0
    8694:	ebfffef0 	bl	825c <cp15_ctrl_reg1_wr>
    8698:	eafffff2 	b	8668 <mmu_disable_set+0x28>
    869c:	0000a0ac 	.word	0x0000a0ac
    86a0:	0000a0f8 	.word	0x0000a0f8
    86a4:	0000a0a4 	.word	0x0000a0a4
    86a8:	00009f0c 	.word	0x00009f0c

000086ac <mmu_disable>:
    86ac:	e52de004 	push	{lr}		; (str lr, [sp, #-4]!)
    86b0:	e24dd00c 	sub	sp, sp, #12, 0
    86b4:	ebffffd2 	bl	8604 <cp15_ctrl_reg1_rd>
    86b8:	e3100001 	tst	r0, #1, 0
    86bc:	0a000003 	beq	86d0 <mmu_disable+0x24>
    86c0:	e3c00001 	bic	r0, r0, #1, 0
    86c4:	ebffffdd 	bl	8640 <mmu_disable_set>
    86c8:	e28dd00c 	add	sp, sp, #12, 0
    86cc:	e49df004 	pop	{pc}		; (ldr pc, [sp], #4)
    86d0:	e59f3018 	ldr	r3, [pc, #24]	; 86f0 <mmu_disable+0x44>
    86d4:	e58d3000 	str	r3, [sp]
    86d8:	e3a03033 	mov	r3, #51, 0	; 0x33
    86dc:	e59f2010 	ldr	r2, [pc, #16]	; 86f4 <mmu_disable+0x48>
    86e0:	e59f1010 	ldr	r1, [pc, #16]	; 86f8 <mmu_disable+0x4c>
    86e4:	e59f0010 	ldr	r0, [pc, #16]	; 86fc <mmu_disable+0x50>
    86e8:	eb00039e 	bl	9568 <printk>
    86ec:	eb0004cd 	bl	9a28 <clean_reboot>
    86f0:	0000a0bc 	.word	0x0000a0bc
    86f4:	0000a108 	.word	0x0000a108
    86f8:	0000a0a4 	.word	0x0000a0a4
    86fc:	00009f0c 	.word	0x00009f0c

00008700 <mmu_enable_set>:
    8700:	e52de004 	push	{lr}		; (str lr, [sp, #-4]!)
    8704:	e24dd00c 	sub	sp, sp, #12, 0
    8708:	e3100001 	tst	r0, #1, 0
    870c:	0a000002 	beq	871c <mmu_enable_set+0x1c>
    8710:	ebfffe9c 	bl	8188 <mmu_enable_set_asm>
    8714:	e28dd00c 	add	sp, sp, #12, 0
    8718:	e49df004 	pop	{pc}		; (ldr pc, [sp], #4)
    871c:	e59f3018 	ldr	r3, [pc, #24]	; 873c <mmu_enable_set+0x3c>
    8720:	e58d3000 	str	r3, [sp]
    8724:	e3a0303d 	mov	r3, #61, 0	; 0x3d
    8728:	e59f2010 	ldr	r2, [pc, #16]	; 8740 <mmu_enable_set+0x40>
    872c:	e59f1010 	ldr	r1, [pc, #16]	; 8744 <mmu_enable_set+0x44>
    8730:	e59f0010 	ldr	r0, [pc, #16]	; 8748 <mmu_enable_set+0x48>
    8734:	eb00038b 	bl	9568 <printk>
    8738:	eb0004ba 	bl	9a28 <clean_reboot>
    873c:	0000a0bc 	.word	0x0000a0bc
    8740:	0000a114 	.word	0x0000a114
    8744:	0000a0a4 	.word	0x0000a0a4
    8748:	00009f0c 	.word	0x00009f0c

0000874c <mmu_enable>:
    874c:	e52de004 	push	{lr}		; (str lr, [sp, #-4]!)
    8750:	e24dd00c 	sub	sp, sp, #12, 0
    8754:	ebffffaa 	bl	8604 <cp15_ctrl_reg1_rd>
    8758:	e3100001 	tst	r0, #1, 0
    875c:	1a000003 	bne	8770 <mmu_enable+0x24>
    8760:	e3800001 	orr	r0, r0, #1, 0
    8764:	ebffffe5 	bl	8700 <mmu_enable_set>
    8768:	e28dd00c 	add	sp, sp, #12, 0
    876c:	e49df004 	pop	{pc}		; (ldr pc, [sp], #4)
    8770:	e59f3018 	ldr	r3, [pc, #24]	; 8790 <mmu_enable+0x44>
    8774:	e58d3000 	str	r3, [sp]
    8778:	e3a03044 	mov	r3, #68, 0	; 0x44
    877c:	e59f2010 	ldr	r2, [pc, #16]	; 8794 <mmu_enable+0x48>
    8780:	e59f1010 	ldr	r1, [pc, #16]	; 8798 <mmu_enable+0x4c>
    8784:	e59f0010 	ldr	r0, [pc, #16]	; 879c <mmu_enable+0x50>
    8788:	eb000376 	bl	9568 <printk>
    878c:	eb0004a5 	bl	9a28 <clean_reboot>
    8790:	0000a0ac 	.word	0x0000a0ac
    8794:	0000a124 	.word	0x0000a124
    8798:	0000a0a4 	.word	0x0000a0a4
    879c:	00009f0c 	.word	0x00009f0c

000087a0 <mmu_set_ctx>:
    87a0:	e52de004 	push	{lr}		; (str lr, [sp, #-4]!)
    87a4:	e24dd00c 	sub	sp, sp, #12, 0
    87a8:	e1a03001 	mov	r3, r1
    87ac:	e3530000 	cmp	r3, #0, 0
    87b0:	0a000006 	beq	87d0 <mmu_set_ctx+0x30>
    87b4:	e1a01002 	mov	r1, r2
    87b8:	e353003f 	cmp	r3, #63, 0	; 0x3f
    87bc:	8a00000b 	bhi	87f0 <mmu_set_ctx+0x50>
    87c0:	e1830400 	orr	r0, r3, r0, lsl #8
    87c4:	ebfffe4a 	bl	80f4 <cp15_set_procid_ttbr0>
    87c8:	e28dd00c 	add	sp, sp, #12, 0
    87cc:	e49df004 	pop	{pc}		; (ldr pc, [sp], #4)
    87d0:	e59f3038 	ldr	r3, [pc, #56]	; 8810 <mmu_set_ctx+0x70>
    87d4:	e58d3000 	str	r3, [sp]
    87d8:	e3a0304b 	mov	r3, #75, 0	; 0x4b
    87dc:	e59f2030 	ldr	r2, [pc, #48]	; 8814 <mmu_set_ctx+0x74>
    87e0:	e59f1030 	ldr	r1, [pc, #48]	; 8818 <mmu_set_ctx+0x78>
    87e4:	e59f0030 	ldr	r0, [pc, #48]	; 881c <mmu_set_ctx+0x7c>
    87e8:	eb00035e 	bl	9568 <printk>
    87ec:	eb00048d 	bl	9a28 <clean_reboot>
    87f0:	e59f3028 	ldr	r3, [pc, #40]	; 8820 <mmu_set_ctx+0x80>
    87f4:	e58d3000 	str	r3, [sp]
    87f8:	e3a0304c 	mov	r3, #76, 0	; 0x4c
    87fc:	e59f2010 	ldr	r2, [pc, #16]	; 8814 <mmu_set_ctx+0x74>
    8800:	e59f1010 	ldr	r1, [pc, #16]	; 8818 <mmu_set_ctx+0x78>
    8804:	e59f0010 	ldr	r0, [pc, #16]	; 881c <mmu_set_ctx+0x7c>
    8808:	eb000356 	bl	9568 <printk>
    880c:	eb000485 	bl	9a28 <clean_reboot>
    8810:	0000a0cc 	.word	0x0000a0cc
    8814:	0000a130 	.word	0x0000a130
    8818:	0000a0a4 	.word	0x0000a0a4
    881c:	00009f0c 	.word	0x00009f0c
    8820:	0000a0d4 	.word	0x0000a0d4

00008824 <mmu_init>:
    8824:	e52de004 	push	{lr}		; (str lr, [sp, #-4]!)
    8828:	e24dd00c 	sub	sp, sp, #12, 0
    882c:	ebfffe16 	bl	808c <mmu_reset>
    8830:	ebffff73 	bl	8604 <cp15_ctrl_reg1_rd>
    8834:	e3800502 	orr	r0, r0, #8388608	; 0x800000
    8838:	ebfffe87 	bl	825c <cp15_ctrl_reg1_wr>
    883c:	ebffff70 	bl	8604 <cp15_ctrl_reg1_rd>
    8840:	e3100502 	tst	r0, #8388608	; 0x800000
    8844:	0a000003 	beq	8858 <mmu_init+0x34>
    8848:	e3100001 	tst	r0, #1, 0
    884c:	1a000009 	bne	8878 <mmu_init+0x54>
    8850:	e28dd00c 	add	sp, sp, #12, 0
    8854:	e49df004 	pop	{pc}		; (ldr pc, [sp], #4)
    8858:	e59f3038 	ldr	r3, [pc, #56]	; 8898 <mmu_init+0x74>
    885c:	e58d3000 	str	r3, [sp]
    8860:	e3a03067 	mov	r3, #103, 0	; 0x67
    8864:	e59f2030 	ldr	r2, [pc, #48]	; 889c <mmu_init+0x78>
    8868:	e59f1030 	ldr	r1, [pc, #48]	; 88a0 <mmu_init+0x7c>
    886c:	e59f0030 	ldr	r0, [pc, #48]	; 88a4 <mmu_init+0x80>
    8870:	eb00033c 	bl	9568 <printk>
    8874:	eb00046b 	bl	9a28 <clean_reboot>
    8878:	e59f3028 	ldr	r3, [pc, #40]	; 88a8 <mmu_init+0x84>
    887c:	e58d3000 	str	r3, [sp]
    8880:	e3a03068 	mov	r3, #104, 0	; 0x68
    8884:	e59f2010 	ldr	r2, [pc, #16]	; 889c <mmu_init+0x78>
    8888:	e59f1010 	ldr	r1, [pc, #16]	; 88a0 <mmu_init+0x7c>
    888c:	e59f0010 	ldr	r0, [pc, #16]	; 88a4 <mmu_init+0x80>
    8890:	eb000334 	bl	9568 <printk>
    8894:	eb000463 	bl	9a28 <clean_reboot>
    8898:	0000a0dc 	.word	0x0000a0dc
    889c:	0000a13c 	.word	0x0000a13c
    88a0:	0000a0a4 	.word	0x0000a0a4
    88a4:	00009f0c 	.word	0x00009f0c
    88a8:	0000a0e8 	.word	0x0000a0e8

000088ac <domain_access_ctrl_get>:
    88ac:	ee130f10 	mrc	15, 0, r0, cr3, cr0, {0}
    88b0:	e12fff1e 	bx	lr

000088b4 <domain_access_ctrl_set>:
    88b4:	e92d4010 	push	{r4, lr}
    88b8:	ebfffe09 	bl	80e4 <cp15_domain_ctrl_wr>
    88bc:	e8bd8010 	pop	{r4, pc}

000088c0 <bits_mask>:
    88c0:	e3500020 	cmp	r0, #32, 0
    88c4:	0a00000f 	beq	8908 <bits_mask+0x48>
    88c8:	e350001f 	cmp	r0, #31, 0
    88cc:	8a000003 	bhi	88e0 <bits_mask+0x20>
    88d0:	e3a03001 	mov	r3, #1, 0
    88d4:	e1a00013 	lsl	r0, r3, r0
    88d8:	e2400001 	sub	r0, r0, #1, 0
    88dc:	e12fff1e 	bx	lr
    88e0:	e52de004 	push	{lr}		; (str lr, [sp, #-4]!)
    88e4:	e24dd00c 	sub	sp, sp, #12, 0
    88e8:	e59f3020 	ldr	r3, [pc, #32]	; 8910 <bits_mask+0x50>
    88ec:	e58d3000 	str	r3, [sp]
    88f0:	e3a03033 	mov	r3, #51, 0	; 0x33
    88f4:	e59f2018 	ldr	r2, [pc, #24]	; 8914 <bits_mask+0x54>
    88f8:	e59f1018 	ldr	r1, [pc, #24]	; 8918 <bits_mask+0x58>
    88fc:	e59f0018 	ldr	r0, [pc, #24]	; 891c <bits_mask+0x5c>
    8900:	eb000318 	bl	9568 <printk>
    8904:	eb000447 	bl	9a28 <clean_reboot>
    8908:	e3e00000 	mvn	r0, #0, 0
    890c:	e12fff1e 	bx	lr
    8910:	0000a184 	.word	0x0000a184
    8914:	0000a460 	.word	0x0000a460
    8918:	0000a148 	.word	0x0000a148
    891c:	00009f0c 	.word	0x00009f0c

00008920 <mode_get>:
    8920:	e92d4010 	push	{r4, lr}
    8924:	e24dd008 	sub	sp, sp, #8, 0
    8928:	e1a04000 	mov	r4, r0
    892c:	e3a00005 	mov	r0, #5, 0
    8930:	ebffffe2 	bl	88c0 <bits_mask>
    8934:	e0000004 	and	r0, r0, r4
    8938:	e3500012 	cmp	r0, #18, 0
    893c:	13500010 	cmpne	r0, #16, 0
    8940:	0a000005 	beq	895c <mode_get+0x3c>
    8944:	e3500017 	cmp	r0, #23, 0
    8948:	13500013 	cmpne	r0, #19, 0
    894c:	0a000002 	beq	895c <mode_get+0x3c>
    8950:	e350001f 	cmp	r0, #31, 0
    8954:	1350001b 	cmpne	r0, #27, 0
    8958:	1a000001 	bne	8964 <mode_get+0x44>
    895c:	e28dd008 	add	sp, sp, #8, 0
    8960:	e8bd8010 	pop	{r4, pc}
    8964:	e58d0004 	str	r0, [sp, #4]
    8968:	e58d0000 	str	r0, [sp]
    896c:	e3a03013 	mov	r3, #19, 0
    8970:	e59f200c 	ldr	r2, [pc, #12]	; 8984 <mode_get+0x64>
    8974:	e59f100c 	ldr	r1, [pc, #12]	; 8988 <mode_get+0x68>
    8978:	e59f000c 	ldr	r0, [pc, #12]	; 898c <mode_get+0x6c>
    897c:	eb0002f9 	bl	9568 <printk>
    8980:	eb000428 	bl	9a28 <clean_reboot>
    8984:	0000a46c 	.word	0x0000a46c
    8988:	0000a19c 	.word	0x0000a19c
    898c:	0000a1d8 	.word	0x0000a1d8

00008990 <fixup_regs>:
    8990:	e92d4070 	push	{r4, r5, r6, lr}
    8994:	e1a05000 	mov	r5, r0
    8998:	e1a04001 	mov	r4, r1
    899c:	e1a00001 	mov	r0, r1
    89a0:	ebffffde 	bl	8920 <mode_get>
    89a4:	e3500010 	cmp	r0, #16, 0
    89a8:	08bd8070 	popeq	{r4, r5, r6, pc}
    89ac:	e2852038 	add	r2, r5, #56, 0	; 0x38
    89b0:	e2851034 	add	r1, r5, #52, 0	; 0x34
    89b4:	e1a00004 	mov	r0, r4
    89b8:	eb00093b 	bl	aeac <priv_get_sp_lr_asm>
    89bc:	e8bd8070 	pop	{r4, r5, r6, pc}

000089c0 <switchto>:
    89c0:	e92d4010 	push	{r4, lr}
    89c4:	e1a04000 	mov	r4, r0
    89c8:	e5900040 	ldr	r0, [r0, #64]	; 0x40
    89cc:	ebffffd3 	bl	8920 <mode_get>
    89d0:	e3500010 	cmp	r0, #16, 0
    89d4:	0a000001 	beq	89e0 <switchto+0x20>
    89d8:	e1a00004 	mov	r0, r4
    89dc:	eb00091f 	bl	ae60 <switchto_priv_asm>
    89e0:	e1a00004 	mov	r0, r4
    89e4:	eb00090b 	bl	ae18 <switchto_user_asm>

000089e8 <prefetch_abort_full_except>:
    89e8:	e52de004 	push	{lr}		; (str lr, [sp, #-4]!)
    89ec:	e24dd00c 	sub	sp, sp, #12, 0
    89f0:	e5903040 	ldr	r3, [r0, #64]	; 0x40
    89f4:	e1530001 	cmp	r3, r1
    89f8:	1a00000e 	bne	8a38 <prefetch_abort_full_except+0x50>
    89fc:	e1a04000 	mov	r4, r0
    8a00:	e590303c 	ldr	r3, [r0, #60]	; 0x3c
    8a04:	e1530002 	cmp	r3, r2
    8a08:	1a000012 	bne	8a58 <prefetch_abort_full_except+0x70>
    8a0c:	e59f3080 	ldr	r3, [pc, #128]	; 8a94 <prefetch_abort_full_except+0xac>
    8a10:	e5933000 	ldr	r3, [r3]
    8a14:	e3530000 	cmp	r3, #0, 0
    8a18:	0a000016 	beq	8a78 <prefetch_abort_full_except+0x90>
    8a1c:	ebffffdb 	bl	8990 <fixup_regs>
    8a20:	e59f306c 	ldr	r3, [pc, #108]	; 8a94 <prefetch_abort_full_except+0xac>
    8a24:	e5933000 	ldr	r3, [r3]
    8a28:	e1a00004 	mov	r0, r4
    8a2c:	e12fff33 	blx	r3
    8a30:	e1a00004 	mov	r0, r4
    8a34:	ebffffe1 	bl	89c0 <switchto>
    8a38:	e59f3058 	ldr	r3, [pc, #88]	; 8a98 <prefetch_abort_full_except+0xb0>
    8a3c:	e58d3000 	str	r3, [sp]
    8a40:	e3a03031 	mov	r3, #49, 0	; 0x31
    8a44:	e59f2050 	ldr	r2, [pc, #80]	; 8a9c <prefetch_abort_full_except+0xb4>
    8a48:	e59f1050 	ldr	r1, [pc, #80]	; 8aa0 <prefetch_abort_full_except+0xb8>
    8a4c:	e59f0050 	ldr	r0, [pc, #80]	; 8aa4 <prefetch_abort_full_except+0xbc>
    8a50:	eb0002c4 	bl	9568 <printk>
    8a54:	eb0003f3 	bl	9a28 <clean_reboot>
    8a58:	e59f3048 	ldr	r3, [pc, #72]	; 8aa8 <prefetch_abort_full_except+0xc0>
    8a5c:	e58d3000 	str	r3, [sp]
    8a60:	e3a03032 	mov	r3, #50, 0	; 0x32
    8a64:	e59f2030 	ldr	r2, [pc, #48]	; 8a9c <prefetch_abort_full_except+0xb4>
    8a68:	e59f1030 	ldr	r1, [pc, #48]	; 8aa0 <prefetch_abort_full_except+0xb8>
    8a6c:	e59f0030 	ldr	r0, [pc, #48]	; 8aa4 <prefetch_abort_full_except+0xbc>
    8a70:	eb0002bc 	bl	9568 <printk>
    8a74:	eb0003eb 	bl	9a28 <clean_reboot>
    8a78:	e58d2000 	str	r2, [sp]
    8a7c:	e3a03035 	mov	r3, #53, 0	; 0x35
    8a80:	e59f2014 	ldr	r2, [pc, #20]	; 8a9c <prefetch_abort_full_except+0xb4>
    8a84:	e59f1014 	ldr	r1, [pc, #20]	; 8aa0 <prefetch_abort_full_except+0xb8>
    8a88:	e59f001c 	ldr	r0, [pc, #28]	; 8aac <prefetch_abort_full_except+0xc4>
    8a8c:	eb0002b5 	bl	9568 <printk>
    8a90:	eb0003e4 	bl	9a28 <clean_reboot>
    8a94:	0000b0a0 	.word	0x0000b0a0
    8a98:	0000a218 	.word	0x0000a218
    8a9c:	0000a478 	.word	0x0000a478
    8aa0:	0000a204 	.word	0x0000a204
    8aa4:	00009f0c 	.word	0x00009f0c
    8aa8:	0000a234 	.word	0x0000a234
    8aac:	0000a24c 	.word	0x0000a24c

00008ab0 <data_abort_full_except>:
    8ab0:	e52de004 	push	{lr}		; (str lr, [sp, #-4]!)
    8ab4:	e24dd00c 	sub	sp, sp, #12, 0
    8ab8:	e5903040 	ldr	r3, [r0, #64]	; 0x40
    8abc:	e1530001 	cmp	r3, r1
    8ac0:	1a00000e 	bne	8b00 <data_abort_full_except+0x50>
    8ac4:	e1a04000 	mov	r4, r0
    8ac8:	e590303c 	ldr	r3, [r0, #60]	; 0x3c
    8acc:	e1530002 	cmp	r3, r2
    8ad0:	1a000012 	bne	8b20 <data_abort_full_except+0x70>
    8ad4:	e59f3080 	ldr	r3, [pc, #128]	; 8b5c <data_abort_full_except+0xac>
    8ad8:	e5933004 	ldr	r3, [r3, #4]
    8adc:	e3530000 	cmp	r3, #0, 0
    8ae0:	0a000016 	beq	8b40 <data_abort_full_except+0x90>
    8ae4:	ebffffa9 	bl	8990 <fixup_regs>
    8ae8:	e59f306c 	ldr	r3, [pc, #108]	; 8b5c <data_abort_full_except+0xac>
    8aec:	e5933004 	ldr	r3, [r3, #4]
    8af0:	e1a00004 	mov	r0, r4
    8af4:	e12fff33 	blx	r3
    8af8:	e1a00004 	mov	r0, r4
    8afc:	ebffffaf 	bl	89c0 <switchto>
    8b00:	e59f3058 	ldr	r3, [pc, #88]	; 8b60 <data_abort_full_except+0xb0>
    8b04:	e58d3000 	str	r3, [sp]
    8b08:	e3a0303e 	mov	r3, #62, 0	; 0x3e
    8b0c:	e59f2050 	ldr	r2, [pc, #80]	; 8b64 <data_abort_full_except+0xb4>
    8b10:	e59f1050 	ldr	r1, [pc, #80]	; 8b68 <data_abort_full_except+0xb8>
    8b14:	e59f0050 	ldr	r0, [pc, #80]	; 8b6c <data_abort_full_except+0xbc>
    8b18:	eb000292 	bl	9568 <printk>
    8b1c:	eb0003c1 	bl	9a28 <clean_reboot>
    8b20:	e59f3048 	ldr	r3, [pc, #72]	; 8b70 <data_abort_full_except+0xc0>
    8b24:	e58d3000 	str	r3, [sp]
    8b28:	e3a0303f 	mov	r3, #63, 0	; 0x3f
    8b2c:	e59f2030 	ldr	r2, [pc, #48]	; 8b64 <data_abort_full_except+0xb4>
    8b30:	e59f1030 	ldr	r1, [pc, #48]	; 8b68 <data_abort_full_except+0xb8>
    8b34:	e59f0030 	ldr	r0, [pc, #48]	; 8b6c <data_abort_full_except+0xbc>
    8b38:	eb00028a 	bl	9568 <printk>
    8b3c:	eb0003b9 	bl	9a28 <clean_reboot>
    8b40:	e58d2000 	str	r2, [sp]
    8b44:	e3a03042 	mov	r3, #66, 0	; 0x42
    8b48:	e59f2014 	ldr	r2, [pc, #20]	; 8b64 <data_abort_full_except+0xb4>
    8b4c:	e59f1014 	ldr	r1, [pc, #20]	; 8b68 <data_abort_full_except+0xb8>
    8b50:	e59f001c 	ldr	r0, [pc, #28]	; 8b74 <data_abort_full_except+0xc4>
    8b54:	eb000283 	bl	9568 <printk>
    8b58:	eb0003b2 	bl	9a28 <clean_reboot>
    8b5c:	0000b0a0 	.word	0x0000b0a0
    8b60:	0000a218 	.word	0x0000a218
    8b64:	0000a494 	.word	0x0000a494
    8b68:	0000a204 	.word	0x0000a204
    8b6c:	00009f0c 	.word	0x00009f0c
    8b70:	0000a234 	.word	0x0000a234
    8b74:	0000a284 	.word	0x0000a284

00008b78 <syscall_full_except>:
    8b78:	e52de004 	push	{lr}		; (str lr, [sp, #-4]!)
    8b7c:	e24dd014 	sub	sp, sp, #20, 0
    8b80:	e5903040 	ldr	r3, [r0, #64]	; 0x40
    8b84:	e1530001 	cmp	r3, r1
    8b88:	1a00000c 	bne	8bc0 <syscall_full_except+0x48>
    8b8c:	e1a04000 	mov	r4, r0
    8b90:	e1a05002 	mov	r5, r2
    8b94:	e590303c 	ldr	r3, [r0, #60]	; 0x3c
    8b98:	e1530002 	cmp	r3, r2
    8b9c:	0a00000f 	beq	8be0 <syscall_full_except+0x68>
    8ba0:	e59f30d0 	ldr	r3, [pc, #208]	; 8c78 <syscall_full_except+0x100>
    8ba4:	e58d3000 	str	r3, [sp]
    8ba8:	e3a0304d 	mov	r3, #77, 0	; 0x4d
    8bac:	e59f20c8 	ldr	r2, [pc, #200]	; 8c7c <syscall_full_except+0x104>
    8bb0:	e59f10c8 	ldr	r1, [pc, #200]	; 8c80 <syscall_full_except+0x108>
    8bb4:	e59f00c8 	ldr	r0, [pc, #200]	; 8c84 <syscall_full_except+0x10c>
    8bb8:	eb00026a 	bl	9568 <printk>
    8bbc:	eb000399 	bl	9a28 <clean_reboot>
    8bc0:	e59f30c0 	ldr	r3, [pc, #192]	; 8c88 <syscall_full_except+0x110>
    8bc4:	e58d3000 	str	r3, [sp]
    8bc8:	e3a0304c 	mov	r3, #76, 0	; 0x4c
    8bcc:	e59f20a8 	ldr	r2, [pc, #168]	; 8c7c <syscall_full_except+0x104>
    8bd0:	e59f10a8 	ldr	r1, [pc, #168]	; 8c80 <syscall_full_except+0x108>
    8bd4:	e59f00a8 	ldr	r0, [pc, #168]	; 8c84 <syscall_full_except+0x10c>
    8bd8:	eb000262 	bl	9568 <printk>
    8bdc:	eb000391 	bl	9a28 <clean_reboot>
    8be0:	e1a00001 	mov	r0, r1
    8be4:	ebffff4d 	bl	8920 <mode_get>
    8be8:	e3500010 	cmp	r0, #16, 0
    8bec:	1a00000c 	bne	8c24 <syscall_full_except+0xac>
    8bf0:	e28d200c 	add	r2, sp, #12, 0
    8bf4:	e59f3090 	ldr	r3, [pc, #144]	; 8c8c <syscall_full_except+0x114>
    8bf8:	e1520003 	cmp	r2, r3
    8bfc:	9a00000e 	bls	8c3c <syscall_full_except+0xc4>
    8c00:	e59f3088 	ldr	r3, [pc, #136]	; 8c90 <syscall_full_except+0x118>
    8c04:	e5933008 	ldr	r3, [r3, #8]
    8c08:	e3530000 	cmp	r3, #0, 0
    8c0c:	0a000012 	beq	8c5c <syscall_full_except+0xe4>
    8c10:	e1a00004 	mov	r0, r4
    8c14:	e12fff33 	blx	r3
    8c18:	e5840000 	str	r0, [r4]
    8c1c:	e1a00004 	mov	r0, r4
    8c20:	ebffff66 	bl	89c0 <switchto>
    8c24:	e3a03050 	mov	r3, #80, 0	; 0x50
    8c28:	e59f204c 	ldr	r2, [pc, #76]	; 8c7c <syscall_full_except+0x104>
    8c2c:	e59f104c 	ldr	r1, [pc, #76]	; 8c80 <syscall_full_except+0x108>
    8c30:	e59f005c 	ldr	r0, [pc, #92]	; 8c94 <syscall_full_except+0x11c>
    8c34:	eb00024b 	bl	9568 <printk>
    8c38:	eb00037a 	bl	9a28 <clean_reboot>
    8c3c:	e59f3054 	ldr	r3, [pc, #84]	; 8c98 <syscall_full_except+0x120>
    8c40:	e58d3000 	str	r3, [sp]
    8c44:	e3a03055 	mov	r3, #85, 0	; 0x55
    8c48:	e59f202c 	ldr	r2, [pc, #44]	; 8c7c <syscall_full_except+0x104>
    8c4c:	e59f102c 	ldr	r1, [pc, #44]	; 8c80 <syscall_full_except+0x108>
    8c50:	e59f0044 	ldr	r0, [pc, #68]	; 8c9c <syscall_full_except+0x124>
    8c54:	eb000243 	bl	9568 <printk>
    8c58:	eb000372 	bl	9a28 <clean_reboot>
    8c5c:	e58d5000 	str	r5, [sp]
    8c60:	e3a0305a 	mov	r3, #90, 0	; 0x5a
    8c64:	e59f2010 	ldr	r2, [pc, #16]	; 8c7c <syscall_full_except+0x104>
    8c68:	e59f1010 	ldr	r1, [pc, #16]	; 8c80 <syscall_full_except+0x108>
    8c6c:	e59f002c 	ldr	r0, [pc, #44]	; 8ca0 <syscall_full_except+0x128>
    8c70:	eb00023c 	bl	9568 <printk>
    8c74:	eb00036b 	bl	9a28 <clean_reboot>
    8c78:	0000a234 	.word	0x0000a234
    8c7c:	0000a4ac 	.word	0x0000a4ac
    8c80:	0000a204 	.word	0x0000a204
    8c84:	00009f0c 	.word	0x00009f0c
    8c88:	0000a218 	.word	0x0000a218
    8c8c:	000186a0 	.word	0x000186a0
    8c90:	0000b0a0 	.word	0x0000b0a0
    8c94:	0000a2b8 	.word	0x0000a2b8
    8c98:	0000a338 	.word	0x0000a338
    8c9c:	0000a2f4 	.word	0x0000a2f4
    8ca0:	0000a350 	.word	0x0000a350

00008ca4 <full_except_set_prefetch>:
    8ca4:	e59f300c 	ldr	r3, [pc, #12]	; 8cb8 <full_except_set_prefetch+0x14>
    8ca8:	e5932000 	ldr	r2, [r3]
    8cac:	e5830000 	str	r0, [r3]
    8cb0:	e1a00002 	mov	r0, r2
    8cb4:	e12fff1e 	bx	lr
    8cb8:	0000b0a0 	.word	0x0000b0a0

00008cbc <full_except_set_data_abort>:
    8cbc:	e59f300c 	ldr	r3, [pc, #12]	; 8cd0 <full_except_set_data_abort+0x14>
    8cc0:	e5932004 	ldr	r2, [r3, #4]
    8cc4:	e5830004 	str	r0, [r3, #4]
    8cc8:	e1a00002 	mov	r0, r2
    8ccc:	e12fff1e 	bx	lr
    8cd0:	0000b0a0 	.word	0x0000b0a0

00008cd4 <full_except_set_syscall>:
    8cd4:	e59f300c 	ldr	r3, [pc, #12]	; 8ce8 <full_except_set_syscall+0x14>
    8cd8:	e5932008 	ldr	r2, [r3, #8]
    8cdc:	e5830008 	str	r0, [r3, #8]
    8ce0:	e1a00002 	mov	r0, r2
    8ce4:	e12fff1e 	bx	lr
    8ce8:	0000b0a0 	.word	0x0000b0a0

00008cec <full_except_install>:
    8cec:	e52de004 	push	{lr}		; (str lr, [sp, #-4]!)
    8cf0:	e24dd00c 	sub	sp, sp, #12, 0
    8cf4:	e3500000 	cmp	r0, #0, 0
    8cf8:	1a000007 	bne	8d1c <full_except_install+0x30>
    8cfc:	ee1c3f10 	mrc	15, 0, r3, cr12, cr0, {0}
    8d00:	e3530000 	cmp	r3, #0, 0
    8d04:	0a000030 	beq	8dcc <full_except_install+0xe0>
    8d08:	e59f217c 	ldr	r2, [pc, #380]	; 8e8c <full_except_install+0x1a0>
    8d0c:	e1530002 	cmp	r3, r2
    8d10:	1a000056 	bne	8e70 <full_except_install+0x184>
    8d14:	e28dd00c 	add	sp, sp, #12, 0
    8d18:	e49df004 	pop	{pc}		; (ldr pc, [sp], #4)
    8d1c:	e59f3168 	ldr	r3, [pc, #360]	; 8e8c <full_except_install+0x1a0>
    8d20:	e313001f 	tst	r3, #31, 0
    8d24:	1a000017 	bne	8d88 <full_except_install+0x9c>
    8d28:	e3a03001 	mov	r3, #1, 0
    8d2c:	e3530000 	cmp	r3, #0, 0
    8d30:	0a000016 	beq	8d90 <full_except_install+0xa4>
    8d34:	ee1c3f10 	mrc	15, 0, r3, cr12, cr0, {0}
    8d38:	e59f214c 	ldr	r2, [pc, #332]	; 8e8c <full_except_install+0x1a0>
    8d3c:	e1530002 	cmp	r3, r2
    8d40:	0afffff3 	beq	8d14 <full_except_install+0x28>
    8d44:	e3530000 	cmp	r3, #0, 0
    8d48:	1a000018 	bne	8db0 <full_except_install+0xc4>
    8d4c:	e59f3138 	ldr	r3, [pc, #312]	; 8e8c <full_except_install+0x1a0>
    8d50:	ee0c3f10 	mcr	15, 0, r3, cr12, cr0, {0}
    8d54:	e3a02000 	mov	r2, #0, 0
    8d58:	ee072f95 	mcr	15, 0, r2, cr7, cr5, {4}
    8d5c:	ee1c2f10 	mrc	15, 0, r2, cr12, cr0, {0}
    8d60:	e1520003 	cmp	r2, r3
    8d64:	0affffea 	beq	8d14 <full_except_install+0x28>
    8d68:	e58d2004 	str	r2, [sp, #4]
    8d6c:	e58d3000 	str	r3, [sp]
    8d70:	e3a03036 	mov	r3, #54, 0	; 0x36
    8d74:	e59f2114 	ldr	r2, [pc, #276]	; 8e90 <full_except_install+0x1a4>
    8d78:	e59f1114 	ldr	r1, [pc, #276]	; 8e94 <full_except_install+0x1a8>
    8d7c:	e59f0114 	ldr	r0, [pc, #276]	; 8e98 <full_except_install+0x1ac>
    8d80:	eb0001f8 	bl	9568 <printk>
    8d84:	eb000327 	bl	9a28 <clean_reboot>
    8d88:	e3a03000 	mov	r3, #0, 0
    8d8c:	eaffffe6 	b	8d2c <full_except_install+0x40>
    8d90:	e59f30f4 	ldr	r3, [pc, #244]	; 8e8c <full_except_install+0x1a0>
    8d94:	e58d3000 	str	r3, [sp]
    8d98:	e3a03028 	mov	r3, #40, 0	; 0x28
    8d9c:	e59f20ec 	ldr	r2, [pc, #236]	; 8e90 <full_except_install+0x1a4>
    8da0:	e59f10ec 	ldr	r1, [pc, #236]	; 8e94 <full_except_install+0x1a8>
    8da4:	e59f00f0 	ldr	r0, [pc, #240]	; 8e9c <full_except_install+0x1b0>
    8da8:	eb0001ee 	bl	9568 <printk>
    8dac:	eb00031d 	bl	9a28 <clean_reboot>
    8db0:	e58d3000 	str	r3, [sp]
    8db4:	e3a03031 	mov	r3, #49, 0	; 0x31
    8db8:	e59f20d0 	ldr	r2, [pc, #208]	; 8e90 <full_except_install+0x1a4>
    8dbc:	e59f10d0 	ldr	r1, [pc, #208]	; 8e94 <full_except_install+0x1a8>
    8dc0:	e59f00d8 	ldr	r0, [pc, #216]	; 8ea0 <full_except_install+0x1b4>
    8dc4:	eb0001e7 	bl	9568 <printk>
    8dc8:	eb000316 	bl	9a28 <clean_reboot>
    8dcc:	e59f30b8 	ldr	r3, [pc, #184]	; 8e8c <full_except_install+0x1a0>
    8dd0:	e313001f 	tst	r3, #31, 0
    8dd4:	03a00001 	moveq	r0, #1, 0
    8dd8:	e3500000 	cmp	r0, #0, 0
    8ddc:	0a000014 	beq	8e34 <full_except_install+0x148>
    8de0:	ee1c3f10 	mrc	15, 0, r3, cr12, cr0, {0}
    8de4:	e59f20a0 	ldr	r2, [pc, #160]	; 8e8c <full_except_install+0x1a0>
    8de8:	e1530002 	cmp	r3, r2
    8dec:	0affffc8 	beq	8d14 <full_except_install+0x28>
    8df0:	e3530000 	cmp	r3, #0, 0
    8df4:	1a000016 	bne	8e54 <full_except_install+0x168>
    8df8:	e59f308c 	ldr	r3, [pc, #140]	; 8e8c <full_except_install+0x1a0>
    8dfc:	ee0c3f10 	mcr	15, 0, r3, cr12, cr0, {0}
    8e00:	e3a02000 	mov	r2, #0, 0
    8e04:	ee072f95 	mcr	15, 0, r2, cr7, cr5, {4}
    8e08:	ee1c2f10 	mrc	15, 0, r2, cr12, cr0, {0}
    8e0c:	e1520003 	cmp	r2, r3
    8e10:	0affffbf 	beq	8d14 <full_except_install+0x28>
    8e14:	e58d2004 	str	r2, [sp, #4]
    8e18:	e58d3000 	str	r3, [sp]
    8e1c:	e3a03036 	mov	r3, #54, 0	; 0x36
    8e20:	e59f2068 	ldr	r2, [pc, #104]	; 8e90 <full_except_install+0x1a4>
    8e24:	e59f1068 	ldr	r1, [pc, #104]	; 8e94 <full_except_install+0x1a8>
    8e28:	e59f0068 	ldr	r0, [pc, #104]	; 8e98 <full_except_install+0x1ac>
    8e2c:	eb0001cd 	bl	9568 <printk>
    8e30:	eb0002fc 	bl	9a28 <clean_reboot>
    8e34:	e59f3050 	ldr	r3, [pc, #80]	; 8e8c <full_except_install+0x1a0>
    8e38:	e58d3000 	str	r3, [sp]
    8e3c:	e3a03028 	mov	r3, #40, 0	; 0x28
    8e40:	e59f2048 	ldr	r2, [pc, #72]	; 8e90 <full_except_install+0x1a4>
    8e44:	e59f1048 	ldr	r1, [pc, #72]	; 8e94 <full_except_install+0x1a8>
    8e48:	e59f004c 	ldr	r0, [pc, #76]	; 8e9c <full_except_install+0x1b0>
    8e4c:	eb0001c5 	bl	9568 <printk>
    8e50:	eb0002f4 	bl	9a28 <clean_reboot>
    8e54:	e58d3000 	str	r3, [sp]
    8e58:	e3a03031 	mov	r3, #49, 0	; 0x31
    8e5c:	e59f202c 	ldr	r2, [pc, #44]	; 8e90 <full_except_install+0x1a4>
    8e60:	e59f102c 	ldr	r1, [pc, #44]	; 8e94 <full_except_install+0x1a8>
    8e64:	e59f0034 	ldr	r0, [pc, #52]	; 8ea0 <full_except_install+0x1b4>
    8e68:	eb0001be 	bl	9568 <printk>
    8e6c:	eb0002ed 	bl	9a28 <clean_reboot>
    8e70:	e58d3000 	str	r3, [sp]
    8e74:	e3a03089 	mov	r3, #137, 0	; 0x89
    8e78:	e59f2024 	ldr	r2, [pc, #36]	; 8ea4 <full_except_install+0x1b8>
    8e7c:	e59f1024 	ldr	r1, [pc, #36]	; 8ea8 <full_except_install+0x1bc>
    8e80:	e59f0024 	ldr	r0, [pc, #36]	; 8eac <full_except_install+0x1c0>
    8e84:	eb0001b7 	bl	9568 <printk>
    8e88:	eb0002e6 	bl	9a28 <clean_reboot>
    8e8c:	0000ada0 	.word	0x0000ada0
    8e90:	0000a4c0 	.word	0x0000a4c0
    8e94:	0000a380 	.word	0x0000a380
    8e98:	0000a3f0 	.word	0x0000a3f0
    8e9c:	0000a390 	.word	0x0000a390
    8ea0:	0000a3b8 	.word	0x0000a3b8
    8ea4:	0000a4d0 	.word	0x0000a4d0
    8ea8:	0000a204 	.word	0x0000a204
    8eac:	0000a41c 	.word	0x0000a41c

00008eb0 <kmalloc_heap_end>:
    8eb0:	e59f3004 	ldr	r3, [pc, #4]	; 8ebc <kmalloc_heap_end+0xc>
    8eb4:	e5930000 	ldr	r0, [r3]
    8eb8:	e12fff1e 	bx	lr
    8ebc:	0000b0ac 	.word	0x0000b0ac

00008ec0 <kmalloc_heap_start>:
    8ec0:	e59f3004 	ldr	r3, [pc, #4]	; 8ecc <kmalloc_heap_start+0xc>
    8ec4:	e5930004 	ldr	r0, [r3, #4]
    8ec8:	e12fff1e 	bx	lr
    8ecc:	0000b0ac 	.word	0x0000b0ac

00008ed0 <kmalloc_heap_ptr>:
    8ed0:	e59f3004 	ldr	r3, [pc, #4]	; 8edc <kmalloc_heap_ptr+0xc>
    8ed4:	e5930008 	ldr	r0, [r3, #8]
    8ed8:	e12fff1e 	bx	lr
    8edc:	0000b0ac 	.word	0x0000b0ac

00008ee0 <kmalloc_init_set_start>:
    8ee0:	e92d4030 	push	{r4, r5, lr}
    8ee4:	e24dd00c 	sub	sp, sp, #12, 0
    8ee8:	e1a04000 	mov	r4, r0
    8eec:	e1a05001 	mov	r5, r1
    8ef0:	eb0002d4 	bl	9a48 <program_end>
    8ef4:	e1540000 	cmp	r4, r0
    8ef8:	3a000010 	bcc	8f40 <kmalloc_init_set_start+0x60>
    8efc:	e3550000 	cmp	r5, #0, 0
    8f00:	0a000014 	beq	8f58 <kmalloc_init_set_start+0x78>
    8f04:	e59f30ac 	ldr	r3, [pc, #172]	; 8fb8 <kmalloc_init_set_start+0xd8>
    8f08:	e5933004 	ldr	r3, [r3, #4]
    8f0c:	e1530004 	cmp	r3, r4
    8f10:	8a000018 	bhi	8f78 <kmalloc_init_set_start+0x98>
    8f14:	e59f309c 	ldr	r3, [pc, #156]	; 8fb8 <kmalloc_init_set_start+0xd8>
    8f18:	e5933008 	ldr	r3, [r3, #8]
    8f1c:	e1530004 	cmp	r3, r4
    8f20:	8a00001a 	bhi	8f90 <kmalloc_init_set_start+0xb0>
    8f24:	e59f308c 	ldr	r3, [pc, #140]	; 8fb8 <kmalloc_init_set_start+0xd8>
    8f28:	e5834008 	str	r4, [r3, #8]
    8f2c:	e5834004 	str	r4, [r3, #4]
    8f30:	e0844005 	add	r4, r4, r5
    8f34:	e5834000 	str	r4, [r3]
    8f38:	e28dd00c 	add	sp, sp, #12, 0
    8f3c:	e8bd8030 	pop	{r4, r5, pc}
    8f40:	e3a03030 	mov	r3, #48, 0	; 0x30
    8f44:	e59f2070 	ldr	r2, [pc, #112]	; 8fbc <kmalloc_init_set_start+0xdc>
    8f48:	e59f1070 	ldr	r1, [pc, #112]	; 8fc0 <kmalloc_init_set_start+0xe0>
    8f4c:	e59f0070 	ldr	r0, [pc, #112]	; 8fc4 <kmalloc_init_set_start+0xe4>
    8f50:	eb000184 	bl	9568 <printk>
    8f54:	eb0002b3 	bl	9a28 <clean_reboot>
    8f58:	e59f3068 	ldr	r3, [pc, #104]	; 8fc8 <kmalloc_init_set_start+0xe8>
    8f5c:	e58d3000 	str	r3, [sp]
    8f60:	e3a03032 	mov	r3, #50, 0	; 0x32
    8f64:	e59f2050 	ldr	r2, [pc, #80]	; 8fbc <kmalloc_init_set_start+0xdc>
    8f68:	e59f1050 	ldr	r1, [pc, #80]	; 8fc0 <kmalloc_init_set_start+0xe0>
    8f6c:	e59f0058 	ldr	r0, [pc, #88]	; 8fcc <kmalloc_init_set_start+0xec>
    8f70:	eb00017c 	bl	9568 <printk>
    8f74:	eb0002ab 	bl	9a28 <clean_reboot>
    8f78:	e3a03034 	mov	r3, #52, 0	; 0x34
    8f7c:	e59f2038 	ldr	r2, [pc, #56]	; 8fbc <kmalloc_init_set_start+0xdc>
    8f80:	e59f1038 	ldr	r1, [pc, #56]	; 8fc0 <kmalloc_init_set_start+0xe0>
    8f84:	e59f0044 	ldr	r0, [pc, #68]	; 8fd0 <kmalloc_init_set_start+0xf0>
    8f88:	eb000176 	bl	9568 <printk>
    8f8c:	eb0002a5 	bl	9a28 <clean_reboot>
    8f90:	e59f3020 	ldr	r3, [pc, #32]	; 8fb8 <kmalloc_init_set_start+0xd8>
    8f94:	e5933000 	ldr	r3, [r3]
    8f98:	e58d3004 	str	r3, [sp, #4]
    8f9c:	e58d4000 	str	r4, [sp]
    8fa0:	e3a03038 	mov	r3, #56, 0	; 0x38
    8fa4:	e59f2010 	ldr	r2, [pc, #16]	; 8fbc <kmalloc_init_set_start+0xdc>
    8fa8:	e59f1010 	ldr	r1, [pc, #16]	; 8fc0 <kmalloc_init_set_start+0xe0>
    8fac:	e59f0020 	ldr	r0, [pc, #32]	; 8fd4 <kmalloc_init_set_start+0xf4>
    8fb0:	eb00016c 	bl	9568 <printk>
    8fb4:	eb00029b 	bl	9a28 <clean_reboot>
    8fb8:	0000b0ac 	.word	0x0000b0ac
    8fbc:	0000a6f4 	.word	0x0000a6f4
    8fc0:	0000a4e4 	.word	0x0000a4e4
    8fc4:	0000a4f0 	.word	0x0000a4f0
    8fc8:	0000a518 	.word	0x0000a518
    8fcc:	00009f0c 	.word	0x00009f0c
    8fd0:	0000a524 	.word	0x0000a524
    8fd4:	0000a570 	.word	0x0000a570

00008fd8 <kmalloc_notzero>:
    8fd8:	e52de004 	push	{lr}		; (str lr, [sp, #-4]!)
    8fdc:	e24dd00c 	sub	sp, sp, #12, 0
    8fe0:	e3500000 	cmp	r0, #0, 0
    8fe4:	0a00000f 	beq	9028 <kmalloc_notzero+0x50>
    8fe8:	e2800007 	add	r0, r0, #7, 0
    8fec:	e3c03007 	bic	r3, r0, #7, 0
    8ff0:	e59f20ac 	ldr	r2, [pc, #172]	; 90a4 <kmalloc_notzero+0xcc>
    8ff4:	e5920008 	ldr	r0, [r2, #8]
    8ff8:	e3100007 	tst	r0, #7, 0
    8ffc:	1a000011 	bne	9048 <kmalloc_notzero+0x70>
    9000:	e3500000 	cmp	r0, #0, 0
    9004:	0a000017 	beq	9068 <kmalloc_notzero+0x90>
    9008:	e0802003 	add	r2, r0, r3
    900c:	e59f1090 	ldr	r1, [pc, #144]	; 90a4 <kmalloc_notzero+0xcc>
    9010:	e5812008 	str	r2, [r1, #8]
    9014:	e5911000 	ldr	r1, [r1]
    9018:	e1520001 	cmp	r2, r1
    901c:	8a000017 	bhi	9080 <kmalloc_notzero+0xa8>
    9020:	e28dd00c 	add	sp, sp, #12, 0
    9024:	e49df004 	pop	{pc}		; (ldr pc, [sp], #4)
    9028:	e59f3078 	ldr	r3, [pc, #120]	; 90a8 <kmalloc_notzero+0xd0>
    902c:	e58d3000 	str	r3, [sp]
    9030:	e3a03041 	mov	r3, #65, 0	; 0x41
    9034:	e59f2070 	ldr	r2, [pc, #112]	; 90ac <kmalloc_notzero+0xd4>
    9038:	e59f1070 	ldr	r1, [pc, #112]	; 90b0 <kmalloc_notzero+0xd8>
    903c:	e59f0070 	ldr	r0, [pc, #112]	; 90b4 <kmalloc_notzero+0xdc>
    9040:	eb000148 	bl	9568 <printk>
    9044:	eb000277 	bl	9a28 <clean_reboot>
    9048:	e59f3068 	ldr	r3, [pc, #104]	; 90b8 <kmalloc_notzero+0xe0>
    904c:	e58d3000 	str	r3, [sp]
    9050:	e3a03044 	mov	r3, #68, 0	; 0x44
    9054:	e59f2050 	ldr	r2, [pc, #80]	; 90ac <kmalloc_notzero+0xd4>
    9058:	e59f1050 	ldr	r1, [pc, #80]	; 90b0 <kmalloc_notzero+0xd8>
    905c:	e59f0050 	ldr	r0, [pc, #80]	; 90b4 <kmalloc_notzero+0xdc>
    9060:	eb000140 	bl	9568 <printk>
    9064:	eb00026f 	bl	9a28 <clean_reboot>
    9068:	e3a03048 	mov	r3, #72, 0	; 0x48
    906c:	e59f2038 	ldr	r2, [pc, #56]	; 90ac <kmalloc_notzero+0xd4>
    9070:	e59f1038 	ldr	r1, [pc, #56]	; 90b0 <kmalloc_notzero+0xd8>
    9074:	e59f0040 	ldr	r0, [pc, #64]	; 90bc <kmalloc_notzero+0xe4>
    9078:	eb00013a 	bl	9568 <printk>
    907c:	eb000269 	bl	9a28 <clean_reboot>
    9080:	e0422001 	sub	r2, r2, r1
    9084:	e58d2004 	str	r2, [sp, #4]
    9088:	e58d3000 	str	r3, [sp]
    908c:	e3a0304c 	mov	r3, #76, 0	; 0x4c
    9090:	e59f2014 	ldr	r2, [pc, #20]	; 90ac <kmalloc_notzero+0xd4>
    9094:	e59f1014 	ldr	r1, [pc, #20]	; 90b0 <kmalloc_notzero+0xd8>
    9098:	e59f0020 	ldr	r0, [pc, #32]	; 90c0 <kmalloc_notzero+0xe8>
    909c:	eb000131 	bl	9568 <printk>
    90a0:	eb000260 	bl	9a28 <clean_reboot>
    90a4:	0000b0ac 	.word	0x0000b0ac
    90a8:	0000a51c 	.word	0x0000a51c
    90ac:	0000a70c 	.word	0x0000a70c
    90b0:	0000a4e4 	.word	0x0000a4e4
    90b4:	00009f0c 	.word	0x00009f0c
    90b8:	0000a5b4 	.word	0x0000a5b4
    90bc:	0000a5cc 	.word	0x0000a5cc
    90c0:	0000a5f8 	.word	0x0000a5f8

000090c4 <kmalloc>:
    90c4:	e92d4030 	push	{r4, r5, lr}
    90c8:	e24dd00c 	sub	sp, sp, #12, 0
    90cc:	e2504000 	subs	r4, r0, #0, 0
    90d0:	0a000008 	beq	90f8 <kmalloc+0x34>
    90d4:	e1a00004 	mov	r0, r4
    90d8:	ebffffbe 	bl	8fd8 <kmalloc_notzero>
    90dc:	e1a05000 	mov	r5, r0
    90e0:	e1a02004 	mov	r2, r4
    90e4:	e3a01000 	mov	r1, #0, 0
    90e8:	eb0000f6 	bl	94c8 <memset>
    90ec:	e1a00005 	mov	r0, r5
    90f0:	e28dd00c 	add	sp, sp, #12, 0
    90f4:	e8bd8030 	pop	{r4, r5, pc}
    90f8:	e59f3018 	ldr	r3, [pc, #24]	; 9118 <kmalloc+0x54>
    90fc:	e58d3000 	str	r3, [sp]
    9100:	e3a03054 	mov	r3, #84, 0	; 0x54
    9104:	e59f2010 	ldr	r2, [pc, #16]	; 911c <kmalloc+0x58>
    9108:	e59f1010 	ldr	r1, [pc, #16]	; 9120 <kmalloc+0x5c>
    910c:	e59f0010 	ldr	r0, [pc, #16]	; 9124 <kmalloc+0x60>
    9110:	eb000114 	bl	9568 <printk>
    9114:	eb000243 	bl	9a28 <clean_reboot>
    9118:	0000a51c 	.word	0x0000a51c
    911c:	0000a71c 	.word	0x0000a71c
    9120:	0000a4e4 	.word	0x0000a4e4
    9124:	00009f0c 	.word	0x00009f0c

00009128 <kmalloc_aligned>:
    9128:	e52de004 	push	{lr}		; (str lr, [sp, #-4]!)
    912c:	e24dd00c 	sub	sp, sp, #12, 0
    9130:	e3500000 	cmp	r0, #0, 0
    9134:	0a000014 	beq	918c <kmalloc_aligned+0x64>
    9138:	e2613000 	rsb	r3, r1, #0, 0
    913c:	e1d13003 	bics	r3, r1, r3
    9140:	1a000019 	bne	91ac <kmalloc_aligned+0x84>
    9144:	e3510008 	cmp	r1, #8, 0
    9148:	33a01008 	movcc	r1, #8, 0
    914c:	e59f30b8 	ldr	r3, [pc, #184]	; 920c <kmalloc_aligned+0xe4>
    9150:	e5932008 	ldr	r2, [r3, #8]
    9154:	e2613000 	rsb	r3, r1, #0, 0
    9158:	e1d1c003 	bics	ip, r1, r3
    915c:	1a00001a 	bne	91cc <kmalloc_aligned+0xa4>
    9160:	e0822001 	add	r2, r2, r1
    9164:	e2422001 	sub	r2, r2, #1, 0
    9168:	e0033002 	and	r3, r3, r2
    916c:	e2411001 	sub	r1, r1, #1, 0
    9170:	e1110003 	tst	r1, r3
    9174:	1a00001c 	bne	91ec <kmalloc_aligned+0xc4>
    9178:	e59f208c 	ldr	r2, [pc, #140]	; 920c <kmalloc_aligned+0xe4>
    917c:	e5823008 	str	r3, [r2, #8]
    9180:	ebffffcf 	bl	90c4 <kmalloc>
    9184:	e28dd00c 	add	sp, sp, #12, 0
    9188:	e49df004 	pop	{pc}		; (ldr pc, [sp], #4)
    918c:	e59f307c 	ldr	r3, [pc, #124]	; 9210 <kmalloc_aligned+0xe8>
    9190:	e58d3000 	str	r3, [sp]
    9194:	e3a0305e 	mov	r3, #94, 0	; 0x5e
    9198:	e59f2074 	ldr	r2, [pc, #116]	; 9214 <kmalloc_aligned+0xec>
    919c:	e59f1074 	ldr	r1, [pc, #116]	; 9218 <kmalloc_aligned+0xf0>
    91a0:	e59f0074 	ldr	r0, [pc, #116]	; 921c <kmalloc_aligned+0xf4>
    91a4:	eb0000ef 	bl	9568 <printk>
    91a8:	eb00021e 	bl	9a28 <clean_reboot>
    91ac:	e59f306c 	ldr	r3, [pc, #108]	; 9220 <kmalloc_aligned+0xf8>
    91b0:	e58d3000 	str	r3, [sp]
    91b4:	e3a0305f 	mov	r3, #95, 0	; 0x5f
    91b8:	e59f2054 	ldr	r2, [pc, #84]	; 9214 <kmalloc_aligned+0xec>
    91bc:	e59f1054 	ldr	r1, [pc, #84]	; 9218 <kmalloc_aligned+0xf0>
    91c0:	e59f005c 	ldr	r0, [pc, #92]	; 9224 <kmalloc_aligned+0xfc>
    91c4:	eb0000e7 	bl	9568 <printk>
    91c8:	eb000216 	bl	9a28 <clean_reboot>
    91cc:	e59f3054 	ldr	r3, [pc, #84]	; 9228 <kmalloc_aligned+0x100>
    91d0:	e58d3000 	str	r3, [sp]
    91d4:	e3a03011 	mov	r3, #17, 0
    91d8:	e59f204c 	ldr	r2, [pc, #76]	; 922c <kmalloc_aligned+0x104>
    91dc:	e59f1034 	ldr	r1, [pc, #52]	; 9218 <kmalloc_aligned+0xf0>
    91e0:	e59f0034 	ldr	r0, [pc, #52]	; 921c <kmalloc_aligned+0xf4>
    91e4:	eb0000df 	bl	9568 <printk>
    91e8:	eb00020e 	bl	9a28 <clean_reboot>
    91ec:	e59f303c 	ldr	r3, [pc, #60]	; 9230 <kmalloc_aligned+0x108>
    91f0:	e58d3000 	str	r3, [sp]
    91f4:	e3a03066 	mov	r3, #102, 0	; 0x66
    91f8:	e59f2014 	ldr	r2, [pc, #20]	; 9214 <kmalloc_aligned+0xec>
    91fc:	e59f1014 	ldr	r1, [pc, #20]	; 9218 <kmalloc_aligned+0xf0>
    9200:	e59f002c 	ldr	r0, [pc, #44]	; 9234 <kmalloc_aligned+0x10c>
    9204:	eb0000d7 	bl	9568 <printk>
    9208:	eb000206 	bl	9a28 <clean_reboot>
    920c:	0000b0ac 	.word	0x0000b0ac
    9210:	0000a51c 	.word	0x0000a51c
    9214:	0000a724 	.word	0x0000a724
    9218:	0000a4e4 	.word	0x0000a4e4
    921c:	00009f0c 	.word	0x00009f0c
    9220:	0000a680 	.word	0x0000a680
    9224:	0000a640 	.word	0x0000a640
    9228:	0000a694 	.word	0x0000a694
    922c:	0000a734 	.word	0x0000a734
    9230:	0000a6d8 	.word	0x0000a6d8
    9234:	0000a6a0 	.word	0x0000a6a0

00009238 <kfree_all>:
    9238:	e59f3008 	ldr	r3, [pc, #8]	; 9248 <kfree_all+0x10>
    923c:	e5932004 	ldr	r2, [r3, #4]
    9240:	e5832008 	str	r2, [r3, #8]
    9244:	e12fff1e 	bx	lr
    9248:	0000b0ac 	.word	0x0000b0ac

0000924c <gpio_set_on>:
    924c:	e350002f 	cmp	r0, #47, 0	; 0x2f
    9250:	1350001f 	cmpne	r0, #31, 0
    9254:	812fff1e 	bxhi	lr
    9258:	e92d4010 	push	{r4, lr}
    925c:	e59f3018 	ldr	r3, [pc, #24]	; 927c <gpio_set_on+0x30>
    9260:	e08332a0 	add	r3, r3, r0, lsr #5
    9264:	e200001f 	and	r0, r0, #31, 0
    9268:	e3a01001 	mov	r1, #1, 0
    926c:	e1a01011 	lsl	r1, r1, r0
    9270:	e1a00103 	lsl	r0, r3, #2
    9274:	ebfffb6a 	bl	8024 <PUT32>
    9278:	e8bd8010 	pop	{r4, pc}
    927c:	08080007 	.word	0x08080007

00009280 <gpio_set_off>:
    9280:	e350002f 	cmp	r0, #47, 0	; 0x2f
    9284:	1350001f 	cmpne	r0, #31, 0
    9288:	812fff1e 	bxhi	lr
    928c:	e92d4010 	push	{r4, lr}
    9290:	e59f3018 	ldr	r3, [pc, #24]	; 92b0 <gpio_set_off+0x30>
    9294:	e08332a0 	add	r3, r3, r0, lsr #5
    9298:	e200001f 	and	r0, r0, #31, 0
    929c:	e3a01001 	mov	r1, #1, 0
    92a0:	e1a01011 	lsl	r1, r1, r0
    92a4:	e1a00103 	lsl	r0, r3, #2
    92a8:	ebfffb5d 	bl	8024 <PUT32>
    92ac:	e8bd8010 	pop	{r4, pc}
    92b0:	0808000a 	.word	0x0808000a

000092b4 <gpio_write>:
    92b4:	e92d4010 	push	{r4, lr}
    92b8:	e3510000 	cmp	r1, #0, 0
    92bc:	0a000001 	beq	92c8 <gpio_write+0x14>
    92c0:	ebffffe1 	bl	924c <gpio_set_on>
    92c4:	e8bd8010 	pop	{r4, pc}
    92c8:	ebffffec 	bl	9280 <gpio_set_off>
    92cc:	e8bd8010 	pop	{r4, pc}

000092d0 <gpio_read>:
    92d0:	e350001f 	cmp	r0, #31, 0
    92d4:	8a000008 	bhi	92fc <gpio_read+0x2c>
    92d8:	e92d4010 	push	{r4, lr}
    92dc:	e1a04000 	mov	r4, r0
    92e0:	e59f001c 	ldr	r0, [pc, #28]	; 9304 <gpio_read+0x34>
    92e4:	e08002a4 	add	r0, r0, r4, lsr #5
    92e8:	e1a00100 	lsl	r0, r0, #2
    92ec:	ebfffb4e 	bl	802c <GET32>
    92f0:	e1a00430 	lsr	r0, r0, r4
    92f4:	e2000001 	and	r0, r0, #1, 0
    92f8:	e8bd8010 	pop	{r4, pc}
    92fc:	e3e00000 	mvn	r0, #0, 0
    9300:	e12fff1e 	bx	lr
    9304:	0808000d 	.word	0x0808000d

00009308 <gpio_set_function>:
    9308:	e350002f 	cmp	r0, #47, 0	; 0x2f
    930c:	1350001f 	cmpne	r0, #31, 0
    9310:	812fff1e 	bxhi	lr
    9314:	e92d40f0 	push	{r4, r5, r6, r7, lr}
    9318:	e24dd00c 	sub	sp, sp, #12, 0
    931c:	e1a04000 	mov	r4, r0
    9320:	e1a06001 	mov	r6, r1
    9324:	e3510007 	cmp	r1, #7, 0
    9328:	9a000001 	bls	9334 <gpio_set_function+0x2c>
    932c:	e28dd00c 	add	sp, sp, #12, 0
    9330:	e8bd80f0 	pop	{r4, r5, r6, r7, pc}
    9334:	e59f5044 	ldr	r5, [pc, #68]	; 9380 <gpio_set_function+0x78>
    9338:	e0853095 	umull	r3, r5, r5, r0
    933c:	e1a051a5 	lsr	r5, r5, #3
    9340:	e2857302 	add	r7, r5, #134217728	; 0x8000000
    9344:	e2877702 	add	r7, r7, #524288	; 0x80000
    9348:	e1a07107 	lsl	r7, r7, #2
    934c:	e1a00007 	mov	r0, r7
    9350:	ebfffb35 	bl	802c <GET32>
    9354:	e58d0004 	str	r0, [sp, #4]
    9358:	e0855105 	add	r5, r5, r5, lsl #2
    935c:	e0444085 	sub	r4, r4, r5, lsl #1
    9360:	e0844084 	add	r4, r4, r4, lsl #1
    9364:	e59d1004 	ldr	r1, [sp, #4]
    9368:	e3a03007 	mov	r3, #7, 0
    936c:	e1c11413 	bic	r1, r1, r3, lsl r4
    9370:	e1811416 	orr	r1, r1, r6, lsl r4
    9374:	e1a00007 	mov	r0, r7
    9378:	ebfffb29 	bl	8024 <PUT32>
    937c:	eaffffea 	b	932c <gpio_set_function+0x24>
    9380:	cccccccd 	.word	0xcccccccd

00009384 <gpio_set_output>:
    9384:	e92d4010 	push	{r4, lr}
    9388:	e3a01001 	mov	r1, #1, 0
    938c:	ebffffdd 	bl	9308 <gpio_set_function>
    9390:	e8bd8010 	pop	{r4, pc}

00009394 <gpio_set_input>:
    9394:	e92d4010 	push	{r4, lr}
    9398:	e3a01000 	mov	r1, #0, 0
    939c:	ebffffd9 	bl	9308 <gpio_set_function>
    93a0:	e8bd8010 	pop	{r4, pc}

000093a4 <memcpy256>:
    93a4:	e92d40f0 	push	{r4, r5, r6, r7, lr}
    93a8:	e24dd00c 	sub	sp, sp, #12, 0
    93ac:	e212401f 	ands	r4, r2, #31, 0
    93b0:	01a06000 	moveq	r6, r0
    93b4:	01a07001 	moveq	r7, r1
    93b8:	01a052a2 	lsreq	r5, r2, #5
    93bc:	0a00000f 	beq	9400 <memcpy256+0x5c>
    93c0:	e3a03020 	mov	r3, #32, 0
    93c4:	e58d3004 	str	r3, [sp, #4]
    93c8:	e58d2000 	str	r2, [sp]
    93cc:	e3a0300f 	mov	r3, #15, 0
    93d0:	e59f2038 	ldr	r2, [pc, #56]	; 9410 <memcpy256+0x6c>
    93d4:	e59f1038 	ldr	r1, [pc, #56]	; 9414 <memcpy256+0x70>
    93d8:	e59f0038 	ldr	r0, [pc, #56]	; 9418 <memcpy256+0x74>
    93dc:	eb000061 	bl	9568 <printk>
    93e0:	eb000190 	bl	9a28 <clean_reboot>
    93e4:	e086c284 	add	ip, r6, r4, lsl #5
    93e8:	e087e284 	add	lr, r7, r4, lsl #5
    93ec:	e8be000f 	ldm	lr!, {r0, r1, r2, r3}
    93f0:	e8ac000f 	stmia	ip!, {r0, r1, r2, r3}
    93f4:	e89e000f 	ldm	lr, {r0, r1, r2, r3}
    93f8:	e88c000f 	stm	ip, {r0, r1, r2, r3}
    93fc:	e2844001 	add	r4, r4, #1, 0
    9400:	e1540005 	cmp	r4, r5
    9404:	3afffff6 	bcc	93e4 <memcpy256+0x40>
    9408:	e28dd00c 	add	sp, sp, #12, 0
    940c:	e8bd80f0 	pop	{r4, r5, r6, r7, pc}
    9410:	0000a788 	.word	0x0000a788
    9414:	0000a73c 	.word	0x0000a73c
    9418:	0000a74c 	.word	0x0000a74c

0000941c <memcpy>:
    941c:	e3100007 	tst	r0, #7, 0
    9420:	1a00000f 	bne	9464 <memcpy+0x48>
    9424:	e3110007 	tst	r1, #7, 0
    9428:	1a00000d 	bne	9464 <memcpy+0x48>
    942c:	e2123007 	ands	r3, r2, #7, 0
    9430:	1a00000b 	bne	9464 <memcpy+0x48>
    9434:	e1a021a2 	lsr	r2, r2, #3
    9438:	e1530002 	cmp	r3, r2
    943c:	212fff1e 	bxcs	lr
    9440:	e92d0030 	push	{r4, r5}
    9444:	e1a0c183 	lsl	ip, r3, #3
    9448:	e18140dc 	ldrd	r4, [r1, ip]
    944c:	e18040fc 	strd	r4, [r0, ip]
    9450:	e2833001 	add	r3, r3, #1, 0
    9454:	e1530002 	cmp	r3, r2
    9458:	3afffff9 	bcc	9444 <memcpy+0x28>
    945c:	e8bd0030 	pop	{r4, r5}
    9460:	e12fff1e 	bx	lr
    9464:	e2103003 	ands	r3, r0, #3, 0
    9468:	1a000011 	bne	94b4 <memcpy+0x98>
    946c:	e211c003 	ands	ip, r1, #3, 0
    9470:	1a00000c 	bne	94a8 <memcpy+0x8c>
    9474:	e2123003 	ands	r3, r2, #3, 0
    9478:	1a00000f 	bne	94bc <memcpy+0xa0>
    947c:	e1a02122 	lsr	r2, r2, #2
    9480:	ea000002 	b	9490 <memcpy+0x74>
    9484:	e791c103 	ldr	ip, [r1, r3, lsl #2]
    9488:	e780c103 	str	ip, [r0, r3, lsl #2]
    948c:	e2833001 	add	r3, r3, #1, 0
    9490:	e1530002 	cmp	r3, r2
    9494:	3afffffa 	bcc	9484 <memcpy+0x68>
    9498:	e12fff1e 	bx	lr
    949c:	e7d1c003 	ldrb	ip, [r1, r3]
    94a0:	e7c0c003 	strb	ip, [r0, r3]
    94a4:	e2833001 	add	r3, r3, #1, 0
    94a8:	e1530002 	cmp	r3, r2
    94ac:	3afffffa 	bcc	949c <memcpy+0x80>
    94b0:	e12fff1e 	bx	lr
    94b4:	e3a03000 	mov	r3, #0, 0
    94b8:	eafffffa 	b	94a8 <memcpy+0x8c>
    94bc:	e1a0300c 	mov	r3, ip
    94c0:	eafffff8 	b	94a8 <memcpy+0x8c>

000094c4 <memcpy_end>:
    94c4:	e12fff1e 	bx	lr

000094c8 <memset>:
    94c8:	e3520000 	cmp	r2, #0, 0
    94cc:	012fff1e 	bxeq	lr
    94d0:	e3510000 	cmp	r1, #0, 0
    94d4:	1a000007 	bne	94f8 <memset+0x30>
    94d8:	e3100007 	tst	r0, #7, 0
    94dc:	1a000001 	bne	94e8 <memset+0x20>
    94e0:	e3120007 	tst	r2, #7, 0
    94e4:	0a000011 	beq	9530 <memset+0x68>
    94e8:	e3100003 	tst	r0, #3, 0
    94ec:	1a000001 	bne	94f8 <memset+0x30>
    94f0:	e3120003 	tst	r2, #3, 0
    94f4:	0a000001 	beq	9500 <memset+0x38>
    94f8:	e0802002 	add	r2, r0, r2
    94fc:	ea000008 	b	9524 <memset+0x5c>
    9500:	e1a02122 	lsr	r2, r2, #2
    9504:	ea000001 	b	9510 <memset+0x48>
    9508:	e4801004 	str	r1, [r0], #4
    950c:	e1a02003 	mov	r2, r3
    9510:	e2423001 	sub	r3, r2, #1, 0
    9514:	e3520000 	cmp	r2, #0, 0
    9518:	1afffffa 	bne	9508 <memset+0x40>
    951c:	e12fff1e 	bx	lr
    9520:	e4c01001 	strb	r1, [r0], #1
    9524:	e1500002 	cmp	r0, r2
    9528:	3afffffc 	bcc	9520 <memset+0x58>
    952c:	e12fff1e 	bx	lr
    9530:	e1a021a2 	lsr	r2, r2, #3
    9534:	e2423001 	sub	r3, r2, #1, 0
    9538:	e3520000 	cmp	r2, #0, 0
    953c:	012fff1e 	bxeq	lr
    9540:	e92d0030 	push	{r4, r5}
    9544:	e1a04001 	mov	r4, r1
    9548:	e1a05fc1 	asr	r5, r1, #31
    954c:	e0c040f8 	strd	r4, [r0], #8
    9550:	e1a02003 	mov	r2, r3
    9554:	e2433001 	sub	r3, r3, #1, 0
    9558:	e3520000 	cmp	r2, #0, 0
    955c:	1afffff8 	bne	9544 <memset+0x7c>
    9560:	e8bd0030 	pop	{r4, r5}
    9564:	e12fff1e 	bx	lr

00009568 <printk>:
    9568:	e92d000f 	push	{r0, r1, r2, r3}
    956c:	e52de004 	push	{lr}		; (str lr, [sp, #-4]!)
    9570:	e24dd00c 	sub	sp, sp, #12, 0
    9574:	e28d1014 	add	r1, sp, #20, 0
    9578:	e58d1004 	str	r1, [sp, #4]
    957c:	e59d0010 	ldr	r0, [sp, #16]
    9580:	eb000047 	bl	96a4 <vprintk>
    9584:	e28dd00c 	add	sp, sp, #12, 0
    9588:	e49de004 	pop	{lr}		; (ldr lr, [sp], #4)
    958c:	e28dd010 	add	sp, sp, #16, 0
    9590:	e12fff1e 	bx	lr

00009594 <emit_val>:
    9594:	e92d4010 	push	{r4, lr}
    9598:	e24dd030 	sub	sp, sp, #48, 0	; 0x30
    959c:	e350000a 	cmp	r0, #10, 0
    95a0:	0a000014 	beq	95f8 <emit_val+0x64>
    95a4:	e3500010 	cmp	r0, #16, 0
    95a8:	0a000022 	beq	9638 <emit_val+0xa4>
    95ac:	e3500002 	cmp	r0, #2, 0
    95b0:	0a000006 	beq	95d0 <emit_val+0x3c>
    95b4:	e58d0000 	str	r0, [sp]
    95b8:	e3a0301b 	mov	r3, #27, 0
    95bc:	e59f20c0 	ldr	r2, [pc, #192]	; 9684 <emit_val+0xf0>
    95c0:	e59f10c0 	ldr	r1, [pc, #192]	; 9688 <emit_val+0xf4>
    95c4:	e59f00c0 	ldr	r0, [pc, #192]	; 968c <emit_val+0xf8>
    95c8:	ebffffe6 	bl	9568 <printk>
    95cc:	eb000115 	bl	9a28 <clean_reboot>
    95d0:	e28d400c 	add	r4, sp, #12, 0
    95d4:	e2012001 	and	r2, r1, #1, 0
    95d8:	e59f00b0 	ldr	r0, [pc, #176]	; 9690 <emit_val+0xfc>
    95dc:	e7d02002 	ldrb	r2, [r0, r2]
    95e0:	e5c42000 	strb	r2, [r4]
    95e4:	e2844001 	add	r4, r4, #1, 0
    95e8:	e3510001 	cmp	r1, #1, 0
    95ec:	e1a010a1 	lsr	r1, r1, #1
    95f0:	8afffff7 	bhi	95d4 <emit_val+0x40>
    95f4:	ea00001d 	b	9670 <emit_val+0xdc>
    95f8:	e28d400c 	add	r4, sp, #12, 0
    95fc:	e59f3090 	ldr	r3, [pc, #144]	; 9694 <emit_val+0x100>
    9600:	e0832193 	umull	r2, r3, r3, r1
    9604:	e1a031a3 	lsr	r3, r3, #3
    9608:	e1a00003 	mov	r0, r3
    960c:	e0833103 	add	r3, r3, r3, lsl #2
    9610:	e0413083 	sub	r3, r1, r3, lsl #1
    9614:	e59fc07c 	ldr	ip, [pc, #124]	; 9698 <emit_val+0x104>
    9618:	e7dcc003 	ldrb	ip, [ip, r3]
    961c:	e5c4c000 	strb	ip, [r4]
    9620:	e2844001 	add	r4, r4, #1, 0
    9624:	e1a03001 	mov	r3, r1
    9628:	e1a01000 	mov	r1, r0
    962c:	e3530009 	cmp	r3, #9, 0
    9630:	8afffff1 	bhi	95fc <emit_val+0x68>
    9634:	ea00000d 	b	9670 <emit_val+0xdc>
    9638:	e28d400c 	add	r4, sp, #12, 0
    963c:	e201200f 	and	r2, r1, #15, 0
    9640:	e59f0054 	ldr	r0, [pc, #84]	; 969c <emit_val+0x108>
    9644:	e7d02002 	ldrb	r2, [r0, r2]
    9648:	e5c42000 	strb	r2, [r4]
    964c:	e2844001 	add	r4, r4, #1, 0
    9650:	e351000f 	cmp	r1, #15, 0
    9654:	e1a01221 	lsr	r1, r1, #4
    9658:	8afffff7 	bhi	963c <emit_val+0xa8>
    965c:	ea000003 	b	9670 <emit_val+0xdc>
    9660:	e59f3038 	ldr	r3, [pc, #56]	; 96a0 <emit_val+0x10c>
    9664:	e5933000 	ldr	r3, [r3]
    9668:	e5740001 	ldrb	r0, [r4, #-1]!
    966c:	e12fff33 	blx	r3
    9670:	e28d300c 	add	r3, sp, #12, 0
    9674:	e1540003 	cmp	r4, r3
    9678:	8afffff8 	bhi	9660 <emit_val+0xcc>
    967c:	e28dd030 	add	sp, sp, #48, 0	; 0x30
    9680:	e8bd8010 	pop	{r4, pc}
    9684:	0000a84c 	.word	0x0000a84c
    9688:	0000a794 	.word	0x0000a794
    968c:	0000a7a4 	.word	0x0000a7a4
    9690:	0000a7c8 	.word	0x0000a7c8
    9694:	cccccccd 	.word	0xcccccccd
    9698:	0000a7cc 	.word	0x0000a7cc
    969c:	0000a7d8 	.word	0x0000a7d8
    96a0:	0000b09c 	.word	0x0000b09c

000096a4 <vprintk>:
    96a4:	e92d4030 	push	{r4, r5, lr}
    96a8:	e24dd014 	sub	sp, sp, #20, 0
    96ac:	e1a04000 	mov	r4, r0
    96b0:	e58d100c 	str	r1, [sp, #12]
    96b4:	ea000003 	b	96c8 <vprintk+0x24>
    96b8:	e59f3288 	ldr	r3, [pc, #648]	; 9948 <vprintk+0x2a4>
    96bc:	e5933000 	ldr	r3, [r3]
    96c0:	e12fff33 	blx	r3
    96c4:	e2844001 	add	r4, r4, #1, 0
    96c8:	e5d40000 	ldrb	r0, [r4]
    96cc:	e3500000 	cmp	r0, #0, 0
    96d0:	0a00009a 	beq	9940 <vprintk+0x29c>
    96d4:	e3500025 	cmp	r0, #37, 0	; 0x25
    96d8:	1afffff6 	bne	96b8 <vprintk+0x14>
    96dc:	e2845001 	add	r5, r4, #1, 0
    96e0:	e5d42001 	ldrb	r2, [r4, #1]
    96e4:	e2423062 	sub	r3, r2, #98, 0	; 0x62
    96e8:	e3530016 	cmp	r3, #22, 0
    96ec:	979ff103 	ldrls	pc, [pc, r3, lsl #2]
    96f0:	ea00008b 	b	9924 <vprintk+0x280>
    96f4:	00009750 	.word	0x00009750
    96f8:	00009790 	.word	0x00009790
    96fc:	000098a8 	.word	0x000098a8
    9700:	00009924 	.word	0x00009924
    9704:	00009924 	.word	0x00009924
    9708:	00009924 	.word	0x00009924
    970c:	00009924 	.word	0x00009924
    9710:	00009924 	.word	0x00009924
    9714:	00009924 	.word	0x00009924
    9718:	00009924 	.word	0x00009924
    971c:	000097b4 	.word	0x000097b4
    9720:	00009924 	.word	0x00009924
    9724:	00009924 	.word	0x00009924
    9728:	00009924 	.word	0x00009924
    972c:	0000986c 	.word	0x0000986c
    9730:	00009924 	.word	0x00009924
    9734:	00009924 	.word	0x00009924
    9738:	000098ec 	.word	0x000098ec
    973c:	00009924 	.word	0x00009924
    9740:	00009770 	.word	0x00009770
    9744:	00009924 	.word	0x00009924
    9748:	00009924 	.word	0x00009924
    974c:	0000986c 	.word	0x0000986c
    9750:	e59d300c 	ldr	r3, [sp, #12]
    9754:	e2832004 	add	r2, r3, #4, 0
    9758:	e58d200c 	str	r2, [sp, #12]
    975c:	e5931000 	ldr	r1, [r3]
    9760:	e3a00002 	mov	r0, #2, 0
    9764:	ebffff8a 	bl	9594 <emit_val>
    9768:	e1a04005 	mov	r4, r5
    976c:	eaffffd4 	b	96c4 <vprintk+0x20>
    9770:	e59d300c 	ldr	r3, [sp, #12]
    9774:	e2832004 	add	r2, r3, #4, 0
    9778:	e58d200c 	str	r2, [sp, #12]
    977c:	e5931000 	ldr	r1, [r3]
    9780:	e3a0000a 	mov	r0, #10, 0
    9784:	ebffff82 	bl	9594 <emit_val>
    9788:	e1a04005 	mov	r4, r5
    978c:	eaffffcc 	b	96c4 <vprintk+0x20>
    9790:	e59f31b0 	ldr	r3, [pc, #432]	; 9948 <vprintk+0x2a4>
    9794:	e5932000 	ldr	r2, [r3]
    9798:	e59d300c 	ldr	r3, [sp, #12]
    979c:	e2831004 	add	r1, r3, #4, 0
    97a0:	e58d100c 	str	r1, [sp, #12]
    97a4:	e5930000 	ldr	r0, [r3]
    97a8:	e12fff32 	blx	r2
    97ac:	e1a04005 	mov	r4, r5
    97b0:	eaffffc3 	b	96c4 <vprintk+0x20>
    97b4:	e2842002 	add	r2, r4, #2, 0
    97b8:	e5d43002 	ldrb	r3, [r4, #2]
    97bc:	e353006c 	cmp	r3, #108, 0	; 0x6c
    97c0:	1a000018 	bne	9828 <vprintk+0x184>
    97c4:	e2845003 	add	r5, r4, #3, 0
    97c8:	e5d43003 	ldrb	r3, [r4, #3]
    97cc:	e3530078 	cmp	r3, #120, 0	; 0x78
    97d0:	1a00001b 	bne	9844 <vprintk+0x1a0>
    97d4:	e59f416c 	ldr	r4, [pc, #364]	; 9948 <vprintk+0x2a4>
    97d8:	e5943000 	ldr	r3, [r4]
    97dc:	e3a00030 	mov	r0, #48, 0	; 0x30
    97e0:	e12fff33 	blx	r3
    97e4:	e5943000 	ldr	r3, [r4]
    97e8:	e3a00078 	mov	r0, #120, 0	; 0x78
    97ec:	e12fff33 	blx	r3
    97f0:	e59d300c 	ldr	r3, [sp, #12]
    97f4:	e2833007 	add	r3, r3, #7, 0
    97f8:	e3c33007 	bic	r3, r3, #7, 0
    97fc:	e2832008 	add	r2, r3, #8, 0
    9800:	e58d200c 	str	r2, [sp, #12]
    9804:	e5934000 	ldr	r4, [r3]
    9808:	e5931004 	ldr	r1, [r3, #4]
    980c:	e3510000 	cmp	r1, #0, 0
    9810:	1a000012 	bne	9860 <vprintk+0x1bc>
    9814:	e1a01004 	mov	r1, r4
    9818:	e3a00010 	mov	r0, #16, 0
    981c:	ebffff5c 	bl	9594 <emit_val>
    9820:	e1a04005 	mov	r4, r5
    9824:	eaffffa6 	b	96c4 <vprintk+0x20>
    9828:	e58d2000 	str	r2, [sp]
    982c:	e3a0303b 	mov	r3, #59, 0	; 0x3b
    9830:	e59f2114 	ldr	r2, [pc, #276]	; 994c <vprintk+0x2a8>
    9834:	e59f1114 	ldr	r1, [pc, #276]	; 9950 <vprintk+0x2ac>
    9838:	e59f0114 	ldr	r0, [pc, #276]	; 9954 <vprintk+0x2b0>
    983c:	ebffff49 	bl	9568 <printk>
    9840:	eb000078 	bl	9a28 <clean_reboot>
    9844:	e58d5000 	str	r5, [sp]
    9848:	e3a0303e 	mov	r3, #62, 0	; 0x3e
    984c:	e59f20f8 	ldr	r2, [pc, #248]	; 994c <vprintk+0x2a8>
    9850:	e59f10f8 	ldr	r1, [pc, #248]	; 9950 <vprintk+0x2ac>
    9854:	e59f00f8 	ldr	r0, [pc, #248]	; 9954 <vprintk+0x2b0>
    9858:	ebffff42 	bl	9568 <printk>
    985c:	eb000071 	bl	9a28 <clean_reboot>
    9860:	e3a00010 	mov	r0, #16, 0
    9864:	ebffff4a 	bl	9594 <emit_val>
    9868:	eaffffe9 	b	9814 <vprintk+0x170>
    986c:	e59f40d4 	ldr	r4, [pc, #212]	; 9948 <vprintk+0x2a4>
    9870:	e5943000 	ldr	r3, [r4]
    9874:	e3a00030 	mov	r0, #48, 0	; 0x30
    9878:	e12fff33 	blx	r3
    987c:	e5943000 	ldr	r3, [r4]
    9880:	e3a00078 	mov	r0, #120, 0	; 0x78
    9884:	e12fff33 	blx	r3
    9888:	e59d300c 	ldr	r3, [sp, #12]
    988c:	e2832004 	add	r2, r3, #4, 0
    9890:	e58d200c 	str	r2, [sp, #12]
    9894:	e5931000 	ldr	r1, [r3]
    9898:	e3a00010 	mov	r0, #16, 0
    989c:	ebffff3c 	bl	9594 <emit_val>
    98a0:	e1a04005 	mov	r4, r5
    98a4:	eaffff86 	b	96c4 <vprintk+0x20>
    98a8:	e59d300c 	ldr	r3, [sp, #12]
    98ac:	e2832004 	add	r2, r3, #4, 0
    98b0:	e58d200c 	str	r2, [sp, #12]
    98b4:	e5934000 	ldr	r4, [r3]
    98b8:	e3540000 	cmp	r4, #0, 0
    98bc:	ba000004 	blt	98d4 <vprintk+0x230>
    98c0:	e1a01004 	mov	r1, r4
    98c4:	e3a0000a 	mov	r0, #10, 0
    98c8:	ebffff31 	bl	9594 <emit_val>
    98cc:	e1a04005 	mov	r4, r5
    98d0:	eaffff7b 	b	96c4 <vprintk+0x20>
    98d4:	e59f306c 	ldr	r3, [pc, #108]	; 9948 <vprintk+0x2a4>
    98d8:	e5933000 	ldr	r3, [r3]
    98dc:	e3a0002d 	mov	r0, #45, 0	; 0x2d
    98e0:	e12fff33 	blx	r3
    98e4:	e2644000 	rsb	r4, r4, #0, 0
    98e8:	eafffff4 	b	98c0 <vprintk+0x21c>
    98ec:	e59d300c 	ldr	r3, [sp, #12]
    98f0:	e2832004 	add	r2, r3, #4, 0
    98f4:	e58d200c 	str	r2, [sp, #12]
    98f8:	e5934000 	ldr	r4, [r3]
    98fc:	e5d40000 	ldrb	r0, [r4]
    9900:	e3500000 	cmp	r0, #0, 0
    9904:	0a000004 	beq	991c <vprintk+0x278>
    9908:	e59f3038 	ldr	r3, [pc, #56]	; 9948 <vprintk+0x2a4>
    990c:	e5933000 	ldr	r3, [r3]
    9910:	e12fff33 	blx	r3
    9914:	e2844001 	add	r4, r4, #1, 0
    9918:	eafffff7 	b	98fc <vprintk+0x258>
    991c:	e1a04005 	mov	r4, r5
    9920:	eaffff67 	b	96c4 <vprintk+0x20>
    9924:	e58d2000 	str	r2, [sp]
    9928:	e3a03062 	mov	r3, #98, 0	; 0x62
    992c:	e59f2018 	ldr	r2, [pc, #24]	; 994c <vprintk+0x2a8>
    9930:	e59f1018 	ldr	r1, [pc, #24]	; 9950 <vprintk+0x2ac>
    9934:	e59f001c 	ldr	r0, [pc, #28]	; 9958 <vprintk+0x2b4>
    9938:	ebffff0a 	bl	9568 <printk>
    993c:	eb000039 	bl	9a28 <clean_reboot>
    9940:	e28dd014 	add	sp, sp, #20, 0
    9944:	e8bd8030 	pop	{r4, r5, pc}
    9948:	0000b09c 	.word	0x0000b09c
    994c:	0000a858 	.word	0x0000a858
    9950:	0000a794 	.word	0x0000a794
    9954:	0000a7ec 	.word	0x0000a7ec
    9958:	0000a824 	.word	0x0000a824

0000995c <default_putchar>:
    995c:	e92d4010 	push	{r4, lr}
    9960:	e1a04000 	mov	r4, r0
    9964:	e6ef0070 	uxtb	r0, r0
    9968:	eb000107 	bl	9d8c <uart_put8>
    996c:	e1a00004 	mov	r0, r4
    9970:	e8bd8010 	pop	{r4, pc}

00009974 <rpi_putchar_set>:
    9974:	e59f300c 	ldr	r3, [pc, #12]	; 9988 <rpi_putchar_set+0x14>
    9978:	e5932000 	ldr	r2, [r3]
    997c:	e5830000 	str	r0, [r3]
    9980:	e1a00002 	mov	r0, r2
    9984:	e12fff1e 	bx	lr
    9988:	0000b09c 	.word	0x0000b09c

0000998c <asm_not_reached_helper>:
    998c:	e92d4010 	push	{r4, lr}
    9990:	e1a04000 	mov	r4, r0
    9994:	e59f0010 	ldr	r0, [pc, #16]	; 99ac <asm_not_reached_helper+0x20>
    9998:	ebfffef2 	bl	9568 <printk>
    999c:	e1a01004 	mov	r1, r4
    99a0:	e59f0008 	ldr	r0, [pc, #8]	; 99b0 <asm_not_reached_helper+0x24>
    99a4:	ebfffeef 	bl	9568 <printk>
    99a8:	eb00001e 	bl	9a28 <clean_reboot>
    99ac:	0000a860 	.word	0x0000a860
    99b0:	0000a894 	.word	0x0000a894

000099b4 <asm_not_implemented_helper>:
    99b4:	e92d4010 	push	{r4, lr}
    99b8:	e1a04000 	mov	r4, r0
    99bc:	e59f0010 	ldr	r0, [pc, #16]	; 99d4 <asm_not_implemented_helper+0x20>
    99c0:	ebfffee8 	bl	9568 <printk>
    99c4:	e1a01004 	mov	r1, r4
    99c8:	e59f0008 	ldr	r0, [pc, #8]	; 99d8 <asm_not_implemented_helper+0x24>
    99cc:	ebfffee5 	bl	9568 <printk>
    99d0:	eb000014 	bl	9a28 <clean_reboot>
    99d4:	0000a8c8 	.word	0x0000a8c8
    99d8:	0000a894 	.word	0x0000a894

000099dc <asm_todo_helper>:
    99dc:	e92d4010 	push	{r4, lr}
    99e0:	e1a04001 	mov	r4, r1
    99e4:	e59f0018 	ldr	r0, [pc, #24]	; 9a04 <asm_todo_helper+0x28>
    99e8:	ebfffede 	bl	9568 <printk>
    99ec:	e59f0014 	ldr	r0, [pc, #20]	; 9a08 <asm_todo_helper+0x2c>
    99f0:	ebfffedc 	bl	9568 <printk>
    99f4:	e1a01004 	mov	r1, r4
    99f8:	e59f000c 	ldr	r0, [pc, #12]	; 9a0c <asm_todo_helper+0x30>
    99fc:	ebfffed9 	bl	9568 <printk>
    9a00:	eb000008 	bl	9a28 <clean_reboot>
    9a04:	0000a8f4 	.word	0x0000a8f4
    9a08:	0000a92c 	.word	0x0000a92c
    9a0c:	0000a960 	.word	0x0000a960

00009a10 <asm_bad_exception_helper>:
    9a10:	e92d4010 	push	{r4, lr}
    9a14:	e1a02000 	mov	r2, r0
    9a18:	e59f0004 	ldr	r0, [pc, #4]	; 9a24 <asm_bad_exception_helper+0x14>
    9a1c:	ebfffed1 	bl	9568 <printk>
    9a20:	eb000000 	bl	9a28 <clean_reboot>
    9a24:	0000a968 	.word	0x0000a968

00009a28 <clean_reboot>:
    9a28:	e92d4010 	push	{r4, lr}
    9a2c:	e59f0010 	ldr	r0, [pc, #16]	; 9a44 <clean_reboot+0x1c>
    9a30:	eb00011e 	bl	9eb0 <putk>
    9a34:	eb000107 	bl	9e58 <uart_flush_tx>
    9a38:	e3a0000a 	mov	r0, #10, 0
    9a3c:	eb00008d 	bl	9c78 <delay_ms>
    9a40:	eb000069 	bl	9bec <rpi_reboot>
    9a44:	0000a988 	.word	0x0000a988

00009a48 <program_end>:
    9a48:	e59f0000 	ldr	r0, [pc]	; 9a50 <program_end+0x8>
    9a4c:	e12fff1e 	bx	lr
    9a50:	0000b0b8 	.word	0x0000b0b8

00009a54 <_cstart>:
    9a54:	e92d4030 	push	{r4, r5, lr}
    9a58:	e24dd00c 	sub	sp, sp, #12, 0
    9a5c:	e59f3098 	ldr	r3, [pc, #152]	; 9afc <_cstart+0xa8>
    9a60:	e59f2098 	ldr	r2, [pc, #152]	; 9b00 <_cstart+0xac>
    9a64:	e1530002 	cmp	r3, r2
    9a68:	33a02000 	movcc	r2, #0, 0
    9a6c:	34c32001 	strbcc	r2, [r3], #1
    9a70:	3afffffa 	bcc	9a60 <_cstart+0xc>
    9a74:	eb00008b 	bl	9ca8 <uart_init>
    9a78:	e3a03001 	mov	r3, #1, 0
    9a7c:	ee0f3f1c 	mcr	15, 0, r3, cr15, cr12, {0}
    9a80:	e3a02a01 	mov	r2, #4096	; 0x1000
    9a84:	e3a01000 	mov	r1, #0, 0
    9a88:	e1a00001 	mov	r0, r1
    9a8c:	ebfffe8d 	bl	94c8 <memset>
    9a90:	e3a04000 	mov	r4, #0, 0
    9a94:	e1a05004 	mov	r5, r4
    9a98:	ea000005 	b	9ab4 <_cstart+0x60>
    9a9c:	e2855001 	add	r5, r5, #1, 0
    9aa0:	e5912000 	ldr	r2, [r1]
    9aa4:	e1a03005 	mov	r3, r5
    9aa8:	e59f0054 	ldr	r0, [pc, #84]	; 9b04 <_cstart+0xb0>
    9aac:	ebfffead 	bl	9568 <printk>
    9ab0:	e2844001 	add	r4, r4, #1, 0
    9ab4:	e3540b01 	cmp	r4, #1024	; 0x400
    9ab8:	2a000004 	bcs	9ad0 <_cstart+0x7c>
    9abc:	e1a01104 	lsl	r1, r4, #2
    9ac0:	e5913000 	ldr	r3, [r1]
    9ac4:	e3530000 	cmp	r3, #0, 0
    9ac8:	0afffff8 	beq	9ab0 <_cstart+0x5c>
    9acc:	eafffff2 	b	9a9c <_cstart+0x48>
    9ad0:	e3550000 	cmp	r5, #0, 0
    9ad4:	1a000001 	bne	9ae0 <_cstart+0x8c>
    9ad8:	ebfff956 	bl	8038 <notmain>
    9adc:	ebffffd1 	bl	9a28 <clean_reboot>
    9ae0:	e58d5000 	str	r5, [sp]
    9ae4:	e3a0301b 	mov	r3, #27, 0
    9ae8:	e59f2018 	ldr	r2, [pc, #24]	; 9b08 <_cstart+0xb4>
    9aec:	e59f1018 	ldr	r1, [pc, #24]	; 9b0c <_cstart+0xb8>
    9af0:	e59f0018 	ldr	r0, [pc, #24]	; 9b10 <_cstart+0xbc>
    9af4:	ebfffe9b 	bl	9568 <printk>
    9af8:	ebffffca 	bl	9a28 <clean_reboot>
    9afc:	0000b0a0 	.word	0x0000b0a0
    9b00:	0000b0b8 	.word	0x0000b0b8
    9b04:	0000a994 	.word	0x0000a994
    9b08:	0000aa30 	.word	0x0000aa30
    9b0c:	0000a9c0 	.word	0x0000a9c0
    9b10:	0000aa00 	.word	0x0000aa00

00009b14 <int_vector>:
    9b14:	e52de004 	push	{lr}		; (str lr, [sp, #-4]!)
    9b18:	e24dd00c 	sub	sp, sp, #12, 0
    9b1c:	e58d0000 	str	r0, [sp]
    9b20:	e3a03003 	mov	r3, #3, 0
    9b24:	e59f200c 	ldr	r2, [pc, #12]	; 9b38 <int_vector+0x24>
    9b28:	e59f100c 	ldr	r1, [pc, #12]	; 9b3c <int_vector+0x28>
    9b2c:	e59f000c 	ldr	r0, [pc, #12]	; 9b40 <int_vector+0x2c>
    9b30:	ebfffe8c 	bl	9568 <printk>
    9b34:	ebffffbb 	bl	9a28 <clean_reboot>
    9b38:	0000aa90 	.word	0x0000aa90
    9b3c:	0000aa40 	.word	0x0000aa40
    9b40:	0000aa64 	.word	0x0000aa64

00009b44 <prefetch_abort_vector>:
    9b44:	e52de004 	push	{lr}		; (str lr, [sp, #-4]!)
    9b48:	e24dd00c 	sub	sp, sp, #12, 0
    9b4c:	e58d0000 	str	r0, [sp]
    9b50:	e3a03003 	mov	r3, #3, 0
    9b54:	e59f200c 	ldr	r2, [pc, #12]	; 9b68 <prefetch_abort_vector+0x24>
    9b58:	e59f100c 	ldr	r1, [pc, #12]	; 9b6c <prefetch_abort_vector+0x28>
    9b5c:	e59f000c 	ldr	r0, [pc, #12]	; 9b70 <prefetch_abort_vector+0x2c>
    9b60:	ebfffe80 	bl	9568 <printk>
    9b64:	ebffffaf 	bl	9a28 <clean_reboot>
    9b68:	0000aaf4 	.word	0x0000aaf4
    9b6c:	0000aa9c 	.word	0x0000aa9c
    9b70:	0000aac4 	.word	0x0000aac4

00009b74 <reset_vector>:
    9b74:	e52de004 	push	{lr}		; (str lr, [sp, #-4]!)
    9b78:	e24dd00c 	sub	sp, sp, #12, 0
    9b7c:	e58d0000 	str	r0, [sp]
    9b80:	e3a03003 	mov	r3, #3, 0
    9b84:	e59f200c 	ldr	r2, [pc, #12]	; 9b98 <reset_vector+0x24>
    9b88:	e59f100c 	ldr	r1, [pc, #12]	; 9b9c <reset_vector+0x28>
    9b8c:	e59f000c 	ldr	r0, [pc, #12]	; 9ba0 <reset_vector+0x2c>
    9b90:	ebfffe74 	bl	9568 <printk>
    9b94:	ebffffa3 	bl	9a28 <clean_reboot>
    9b98:	0000ab64 	.word	0x0000ab64
    9b9c:	0000ab0c 	.word	0x0000ab0c
    9ba0:	0000ab30 	.word	0x0000ab30

00009ba4 <undefined_instruction_vector>:
    9ba4:	e52de004 	push	{lr}		; (str lr, [sp, #-4]!)
    9ba8:	e24dd00c 	sub	sp, sp, #12, 0
    9bac:	e58d0000 	str	r0, [sp]
    9bb0:	e3a03003 	mov	r3, #3, 0
    9bb4:	e59f200c 	ldr	r2, [pc, #12]	; 9bc8 <undefined_instruction_vector+0x24>
    9bb8:	e59f100c 	ldr	r1, [pc, #12]	; 9bcc <undefined_instruction_vector+0x28>
    9bbc:	e59f000c 	ldr	r0, [pc, #12]	; 9bd0 <undefined_instruction_vector+0x2c>
    9bc0:	ebfffe68 	bl	9568 <printk>
    9bc4:	ebffff97 	bl	9a28 <clean_reboot>
    9bc8:	0000abe0 	.word	0x0000abe0
    9bcc:	0000ab74 	.word	0x0000ab74
    9bd0:	0000aba4 	.word	0x0000aba4

00009bd4 <delay_cycles>:
    9bd4:	e2403001 	sub	r3, r0, #1, 0
    9bd8:	e3500000 	cmp	r0, #0, 0
    9bdc:	012fff1e 	bxeq	lr
    9be0:	e2811000 	add	r1, r1, #0, 0
    9be4:	e1a00003 	mov	r0, r3
    9be8:	eafffff9 	b	9bd4 <delay_cycles>

00009bec <rpi_reboot>:
    9bec:	e92d4010 	push	{r4, lr}
    9bf0:	e3a0000a 	mov	r0, #10, 0
    9bf4:	eb00001f 	bl	9c78 <delay_ms>
    9bf8:	e59f1014 	ldr	r1, [pc, #20]	; 9c14 <rpi_reboot+0x28>
    9bfc:	e59f0014 	ldr	r0, [pc, #20]	; 9c18 <rpi_reboot+0x2c>
    9c00:	ebfff907 	bl	8024 <PUT32>
    9c04:	e59f1010 	ldr	r1, [pc, #16]	; 9c1c <rpi_reboot+0x30>
    9c08:	e59f0010 	ldr	r0, [pc, #16]	; 9c20 <rpi_reboot+0x34>
    9c0c:	ebfff904 	bl	8024 <PUT32>
    9c10:	eafffffe 	b	9c10 <rpi_reboot+0x24>
    9c14:	5a000001 	.word	0x5a000001
    9c18:	20100024 	.word	0x20100024
    9c1c:	5a000020 	.word	0x5a000020
    9c20:	2010001c 	.word	0x2010001c

00009c24 <timer_get_usec_raw>:
    9c24:	e92d4010 	push	{r4, lr}
    9c28:	e59f0004 	ldr	r0, [pc, #4]	; 9c34 <timer_get_usec_raw+0x10>
    9c2c:	ebfff8fe 	bl	802c <GET32>
    9c30:	e8bd8010 	pop	{r4, pc}
    9c34:	20003004 	.word	0x20003004

00009c38 <timer_get_usec>:
    9c38:	e92d4010 	push	{r4, lr}
    9c3c:	eb0000a8 	bl	9ee4 <dev_barrier>
    9c40:	ebfffff7 	bl	9c24 <timer_get_usec_raw>
    9c44:	e1a04000 	mov	r4, r0
    9c48:	eb0000a5 	bl	9ee4 <dev_barrier>
    9c4c:	e1a00004 	mov	r0, r4
    9c50:	e8bd8010 	pop	{r4, pc}

00009c54 <delay_us>:
    9c54:	e92d4070 	push	{r4, r5, r6, lr}
    9c58:	e1a05000 	mov	r5, r0
    9c5c:	ebfffff5 	bl	9c38 <timer_get_usec>
    9c60:	e1a04000 	mov	r4, r0
    9c64:	ebfffff3 	bl	9c38 <timer_get_usec>
    9c68:	e0400004 	sub	r0, r0, r4
    9c6c:	e1500005 	cmp	r0, r5
    9c70:	3afffffb 	bcc	9c64 <delay_us+0x10>
    9c74:	e8bd8070 	pop	{r4, r5, r6, pc}

00009c78 <delay_ms>:
    9c78:	e92d4010 	push	{r4, lr}
    9c7c:	e0603280 	rsb	r3, r0, r0, lsl #5
    9c80:	e0800103 	add	r0, r0, r3, lsl #2
    9c84:	e1a00180 	lsl	r0, r0, #3
    9c88:	ebfffff1 	bl	9c54 <delay_us>
    9c8c:	e8bd8010 	pop	{r4, pc}

00009c90 <delay_sec>:
    9c90:	e92d4010 	push	{r4, lr}
    9c94:	e0603280 	rsb	r3, r0, r0, lsl #5
    9c98:	e0800103 	add	r0, r0, r3, lsl #2
    9c9c:	e1a00180 	lsl	r0, r0, #3
    9ca0:	ebfffff4 	bl	9c78 <delay_ms>
    9ca4:	e8bd8010 	pop	{r4, pc}

00009ca8 <uart_init>:
    9ca8:	e92d4010 	push	{r4, lr}
    9cac:	e24dd008 	sub	sp, sp, #8, 0
    9cb0:	eb00008b 	bl	9ee4 <dev_barrier>
    9cb4:	e3a01002 	mov	r1, #2, 0
    9cb8:	e3a0000e 	mov	r0, #14, 0
    9cbc:	ebfffd91 	bl	9308 <gpio_set_function>
    9cc0:	e3a01002 	mov	r1, #2, 0
    9cc4:	e3a0000f 	mov	r0, #15, 0
    9cc8:	ebfffd8e 	bl	9308 <gpio_set_function>
    9ccc:	eb000084 	bl	9ee4 <dev_barrier>
    9cd0:	e59f4080 	ldr	r4, [pc, #128]	; 9d58 <uart_init+0xb0>
    9cd4:	e1a00004 	mov	r0, r4
    9cd8:	ebfff8d3 	bl	802c <GET32>
    9cdc:	e58d0004 	str	r0, [sp, #4]
    9ce0:	e59d1004 	ldr	r1, [sp, #4]
    9ce4:	e3811001 	orr	r1, r1, #1, 0
    9ce8:	e1a00004 	mov	r0, r4
    9cec:	ebfff8cc 	bl	8024 <PUT32>
    9cf0:	eb00007b 	bl	9ee4 <dev_barrier>
    9cf4:	e284405c 	add	r4, r4, #92, 0	; 0x5c
    9cf8:	e3a01000 	mov	r1, #0, 0
    9cfc:	e1a00004 	mov	r0, r4
    9d00:	ebfff8c7 	bl	8024 <PUT32>
    9d04:	e3a01000 	mov	r1, #0, 0
    9d08:	e59f004c 	ldr	r0, [pc, #76]	; 9d5c <uart_init+0xb4>
    9d0c:	ebfff8c4 	bl	8024 <PUT32>
    9d10:	e3a01006 	mov	r1, #6, 0
    9d14:	e59f0044 	ldr	r0, [pc, #68]	; 9d60 <uart_init+0xb8>
    9d18:	ebfff8c1 	bl	8024 <PUT32>
    9d1c:	e3a01003 	mov	r1, #3, 0
    9d20:	e59f003c 	ldr	r0, [pc, #60]	; 9d64 <uart_init+0xbc>
    9d24:	ebfff8be 	bl	8024 <PUT32>
    9d28:	e3a01000 	mov	r1, #0, 0
    9d2c:	e59f0034 	ldr	r0, [pc, #52]	; 9d68 <uart_init+0xc0>
    9d30:	ebfff8bb 	bl	8024 <PUT32>
    9d34:	e59f1030 	ldr	r1, [pc, #48]	; 9d6c <uart_init+0xc4>
    9d38:	e59f0030 	ldr	r0, [pc, #48]	; 9d70 <uart_init+0xc8>
    9d3c:	ebfff8b8 	bl	8024 <PUT32>
    9d40:	e3a01003 	mov	r1, #3, 0
    9d44:	e1a00004 	mov	r0, r4
    9d48:	ebfff8b5 	bl	8024 <PUT32>
    9d4c:	eb000064 	bl	9ee4 <dev_barrier>
    9d50:	e28dd008 	add	sp, sp, #8, 0
    9d54:	e8bd8010 	pop	{r4, pc}
    9d58:	20215004 	.word	0x20215004
    9d5c:	20215044 	.word	0x20215044
    9d60:	20215048 	.word	0x20215048
    9d64:	2021504c 	.word	0x2021504c
    9d68:	20215050 	.word	0x20215050
    9d6c:	0000010e 	.word	0x0000010e
    9d70:	20215068 	.word	0x20215068

00009d74 <uart_can_put8>:
    9d74:	e92d4010 	push	{r4, lr}
    9d78:	e59f0008 	ldr	r0, [pc, #8]	; 9d88 <uart_can_put8+0x14>
    9d7c:	ebfff8aa 	bl	802c <GET32>
    9d80:	e2000002 	and	r0, r0, #2, 0
    9d84:	e8bd8010 	pop	{r4, pc}
    9d88:	20215064 	.word	0x20215064

00009d8c <uart_put8>:
    9d8c:	e92d4010 	push	{r4, lr}
    9d90:	e1a04000 	mov	r4, r0
    9d94:	eb000052 	bl	9ee4 <dev_barrier>
    9d98:	ebfffff5 	bl	9d74 <uart_can_put8>
    9d9c:	e3500000 	cmp	r0, #0, 0
    9da0:	1a000001 	bne	9dac <uart_put8+0x20>
    9da4:	eb000054 	bl	9efc <rpi_wait>
    9da8:	eafffffa 	b	9d98 <uart_put8+0xc>
    9dac:	e1a01004 	mov	r1, r4
    9db0:	e59f000c 	ldr	r0, [pc, #12]	; 9dc4 <uart_put8+0x38>
    9db4:	ebfff89a 	bl	8024 <PUT32>
    9db8:	eb000049 	bl	9ee4 <dev_barrier>
    9dbc:	e3a00001 	mov	r0, #1, 0
    9dc0:	e8bd8010 	pop	{r4, pc}
    9dc4:	20215040 	.word	0x20215040

00009dc8 <uart_has_data>:
    9dc8:	e92d4010 	push	{r4, lr}
    9dcc:	e59f0008 	ldr	r0, [pc, #8]	; 9ddc <uart_has_data+0x14>
    9dd0:	ebfff895 	bl	802c <GET32>
    9dd4:	e2000001 	and	r0, r0, #1, 0
    9dd8:	e8bd8010 	pop	{r4, pc}
    9ddc:	20215064 	.word	0x20215064

00009de0 <uart_get8>:
    9de0:	e92d4010 	push	{r4, lr}
    9de4:	eb00003e 	bl	9ee4 <dev_barrier>
    9de8:	ebfffff6 	bl	9dc8 <uart_has_data>
    9dec:	e3500000 	cmp	r0, #0, 0
    9df0:	1a000001 	bne	9dfc <uart_get8+0x1c>
    9df4:	eb000040 	bl	9efc <rpi_wait>
    9df8:	eafffffa 	b	9de8 <uart_get8+0x8>
    9dfc:	e59f0010 	ldr	r0, [pc, #16]	; 9e14 <uart_get8+0x34>
    9e00:	ebfff889 	bl	802c <GET32>
    9e04:	e6ef4070 	uxtb	r4, r0
    9e08:	eb000035 	bl	9ee4 <dev_barrier>
    9e0c:	e1a00004 	mov	r0, r4
    9e10:	e8bd8010 	pop	{r4, pc}
    9e14:	20215040 	.word	0x20215040

00009e18 <uart_get8_async>:
    9e18:	e92d4010 	push	{r4, lr}
    9e1c:	eb000030 	bl	9ee4 <dev_barrier>
    9e20:	ebffffe8 	bl	9dc8 <uart_has_data>
    9e24:	e3500000 	cmp	r0, #0, 0
    9e28:	0a000001 	beq	9e34 <uart_get8_async+0x1c>
    9e2c:	ebffffeb 	bl	9de0 <uart_get8>
    9e30:	e8bd8010 	pop	{r4, pc}
    9e34:	e3e00000 	mvn	r0, #0, 0
    9e38:	e8bd8010 	pop	{r4, pc}

00009e3c <uart_tx_is_empty>:
    9e3c:	e92d4010 	push	{r4, lr}
    9e40:	e59f000c 	ldr	r0, [pc, #12]	; 9e54 <uart_tx_is_empty+0x18>
    9e44:	ebfff878 	bl	802c <GET32>
    9e48:	e1a004a0 	lsr	r0, r0, #9
    9e4c:	e2000001 	and	r0, r0, #1, 0
    9e50:	e8bd8010 	pop	{r4, pc}
    9e54:	20215064 	.word	0x20215064

00009e58 <uart_flush_tx>:
    9e58:	e92d4010 	push	{r4, lr}
    9e5c:	ebfffff6 	bl	9e3c <uart_tx_is_empty>
    9e60:	e3500000 	cmp	r0, #0, 0
    9e64:	18bd8010 	popne	{r4, pc}
    9e68:	eb000023 	bl	9efc <rpi_wait>
    9e6c:	eafffffa 	b	9e5c <uart_flush_tx+0x4>

00009e70 <uart_disable>:
    9e70:	e92d4010 	push	{r4, lr}
    9e74:	e24dd008 	sub	sp, sp, #8, 0
    9e78:	eb000019 	bl	9ee4 <dev_barrier>
    9e7c:	ebfffff5 	bl	9e58 <uart_flush_tx>
    9e80:	e59f4024 	ldr	r4, [pc, #36]	; 9eac <uart_disable+0x3c>
    9e84:	e1a00004 	mov	r0, r4
    9e88:	ebfff867 	bl	802c <GET32>
    9e8c:	e58d0004 	str	r0, [sp, #4]
    9e90:	e59d1004 	ldr	r1, [sp, #4]
    9e94:	e2011006 	and	r1, r1, #6, 0
    9e98:	e1a00004 	mov	r0, r4
    9e9c:	ebfff860 	bl	8024 <PUT32>
    9ea0:	eb00000f 	bl	9ee4 <dev_barrier>
    9ea4:	e28dd008 	add	sp, sp, #8, 0
    9ea8:	e8bd8010 	pop	{r4, pc}
    9eac:	20215004 	.word	0x20215004

00009eb0 <putk>:
    9eb0:	e92d4010 	push	{r4, lr}
    9eb4:	e1a04000 	mov	r4, r0
    9eb8:	e5d40000 	ldrb	r0, [r4]
    9ebc:	e3500000 	cmp	r0, #0, 0
    9ec0:	0a000004 	beq	9ed8 <putk+0x28>
    9ec4:	e59f3014 	ldr	r3, [pc, #20]	; 9ee0 <putk+0x30>
    9ec8:	e5933000 	ldr	r3, [r3]
    9ecc:	e12fff33 	blx	r3
    9ed0:	e2844001 	add	r4, r4, #1, 0
    9ed4:	eafffff7 	b	9eb8 <putk+0x8>
    9ed8:	e3a00001 	mov	r0, #1, 0
    9edc:	e8bd8010 	pop	{r4, pc}
    9ee0:	0000b09c 	.word	0x0000b09c

00009ee4 <dev_barrier>:
    9ee4:	ea000002 	b	9ef4 <dsb>

00009ee8 <dmb>:
    9ee8:	e3a00000 	mov	r0, #0, 0
    9eec:	ee070fba 	mcr	15, 0, r0, cr7, cr10, {5}
    9ef0:	e12fff1e 	bx	lr

00009ef4 <dsb>:
    9ef4:	ee070f9a 	mcr	15, 0, r0, cr7, cr10, {4}
    9ef8:	e12fff1e 	bx	lr

00009efc <rpi_wait>:
    9efc:	e12fff1e 	bx	lr
