
objs/memcheck.elf:     file format elf32-littlearm


Disassembly of section .text:

00008000 <__code_start__>:
    8000:	e3a00013 	mov	r0, #19, 0
    8004:	e3800080 	orr	r0, r0, #128, 0	; 0x80
    8008:	e129f000 	msr	CPSR_fc, r0
    800c:	e3a01000 	mov	r1, #0, 0
    8010:	ee071f95 	mcr	15, 0, r1, cr7, cr5, {4}
    8014:	e3a0d302 	mov	sp, #134217728	; 0x8000000
    8018:	e3a0b000 	mov	fp, #0, 0
    801c:	eb00062b 	bl	98d0 <_cstart>
    8020:	eb00068a 	bl	9a50 <rpi_reboot>

00008024 <PUT32>:
    8024:	e5801000 	str	r1, [r0]
    8028:	e12fff1e 	bx	lr

0000802c <GET32>:
    802c:	e5900000 	ldr	r0, [r0]
    8030:	e12fff1e 	bx	lr

00008034 <BRANCHTO>:
    8034:	e12fff10 	bx	r0

00008038 <notmain>:
    8038:	e92d4010 	push	{r4, lr}
    803c:	e59f0014 	ldr	r0, [pc, #20]	; 8058 <notmain+0x20>
    8040:	eb0004e7 	bl	93e4 <printk>
    8044:	e3a01406 	mov	r1, #100663296	; 0x6000000
    8048:	e5912000 	ldr	r2, [r1]
    804c:	e59f0008 	ldr	r0, [pc, #8]	; 805c <notmain+0x24>
    8050:	eb0004e3 	bl	93e4 <printk>
    8054:	e8bd8010 	pop	{r4, pc}
    8058:	00009ec0 	.word	0x00009ec0
    805c:	00009ecc 	.word	0x00009ecc

00008060 <mmu_reset>:
    8060:	e3a02000 	mov	r2, #0, 0
    8064:	ee072f15 	mcr	15, 0, r2, cr7, cr5, {0}
    8068:	ee072f15 	mcr	15, 0, r2, cr7, cr5, {0}
    806c:	ee072f15 	mcr	15, 0, r2, cr7, cr5, {0}
    8070:	ee072f15 	mcr	15, 0, r2, cr7, cr5, {0}
    8074:	e320f000 	nop	{0}
    8078:	e320f000 	nop	{0}
    807c:	e320f000 	nop	{0}
    8080:	e320f000 	nop	{0}
    8084:	e320f000 	nop	{0}
    8088:	e320f000 	nop	{0}
    808c:	e320f000 	nop	{0}
    8090:	e320f000 	nop	{0}
    8094:	e320f000 	nop	{0}
    8098:	e320f000 	nop	{0}
    809c:	e320f000 	nop	{0}
    80a0:	ee072f16 	mcr	15, 0, r2, cr7, cr6, {0}
    80a4:	ee082f17 	mcr	15, 0, r2, cr8, cr7, {0}
    80a8:	ee072f9a 	mcr	15, 0, r2, cr7, cr10, {4}
    80ac:	ee072fd5 	mcr	15, 0, r2, cr7, cr5, {6}
    80b0:	ee072f95 	mcr	15, 0, r2, cr7, cr5, {4}
    80b4:	e12fff1e 	bx	lr

000080b8 <cp15_domain_ctrl_wr>:
    80b8:	ee030f10 	mcr	15, 0, r0, cr3, cr0, {0}
    80bc:	e3a02000 	mov	r2, #0, 0
    80c0:	ee072f95 	mcr	15, 0, r2, cr7, cr5, {4}
    80c4:	e12fff1e 	bx	lr

000080c8 <cp15_set_procid_ttbr0>:
    80c8:	e3a02000 	mov	r2, #0, 0
    80cc:	ee072f9a 	mcr	15, 0, r2, cr7, cr10, {4}
    80d0:	ee0d2f30 	mcr	15, 0, r2, cr13, cr0, {1}
    80d4:	ee072f95 	mcr	15, 0, r2, cr7, cr5, {4}
    80d8:	ee021f10 	mcr	15, 0, r1, cr2, cr0, {0}
    80dc:	ee022f30 	mcr	15, 0, r2, cr2, cr0, {1}
    80e0:	ee022f50 	mcr	15, 0, r2, cr2, cr0, {2}
    80e4:	ee072fd5 	mcr	15, 0, r2, cr7, cr5, {6}
    80e8:	ee072f95 	mcr	15, 0, r2, cr7, cr5, {4}
    80ec:	ee0d0f30 	mcr	15, 0, r0, cr13, cr0, {1}
    80f0:	ee072fd5 	mcr	15, 0, r2, cr7, cr5, {6}
    80f4:	ee072f95 	mcr	15, 0, r2, cr7, cr5, {4}
    80f8:	e12fff1e 	bx	lr

000080fc <mmu_disable_set_asm>:
    80fc:	e3a02000 	mov	r2, #0, 0
    8100:	ee072f1e 	mcr	15, 0, r2, cr7, cr14, {0}
    8104:	ee072f9a 	mcr	15, 0, r2, cr7, cr10, {4}
    8108:	ee012f10 	mcr	15, 0, r2, cr1, cr0, {0}
    810c:	ee072f95 	mcr	15, 0, r2, cr7, cr5, {4}
    8110:	ee072f15 	mcr	15, 0, r2, cr7, cr5, {0}
    8114:	ee072f15 	mcr	15, 0, r2, cr7, cr5, {0}
    8118:	ee072f15 	mcr	15, 0, r2, cr7, cr5, {0}
    811c:	ee072f15 	mcr	15, 0, r2, cr7, cr5, {0}
    8120:	e320f000 	nop	{0}
    8124:	e320f000 	nop	{0}
    8128:	e320f000 	nop	{0}
    812c:	e320f000 	nop	{0}
    8130:	e320f000 	nop	{0}
    8134:	e320f000 	nop	{0}
    8138:	e320f000 	nop	{0}
    813c:	e320f000 	nop	{0}
    8140:	e320f000 	nop	{0}
    8144:	e320f000 	nop	{0}
    8148:	e320f000 	nop	{0}
    814c:	ee072f9a 	mcr	15, 0, r2, cr7, cr10, {4}
    8150:	ee072fd5 	mcr	15, 0, r2, cr7, cr5, {6}
    8154:	ee072f95 	mcr	15, 0, r2, cr7, cr5, {4}
    8158:	e12fff1e 	bx	lr

0000815c <mmu_enable_set_asm>:
    815c:	e1a01000 	mov	r1, r0
    8160:	e3a02000 	mov	r2, #0, 0
    8164:	ee110f10 	mrc	15, 0, r0, cr1, cr0, {0}
    8168:	e3c00a01 	bic	r0, r0, #4096	; 0x1000
    816c:	ee010f10 	mcr	15, 0, r0, cr1, cr0, {0}
    8170:	ee072f95 	mcr	15, 0, r2, cr7, cr5, {4}
    8174:	ee072f15 	mcr	15, 0, r2, cr7, cr5, {0}
    8178:	ee072f15 	mcr	15, 0, r2, cr7, cr5, {0}
    817c:	ee072f15 	mcr	15, 0, r2, cr7, cr5, {0}
    8180:	ee072f15 	mcr	15, 0, r2, cr7, cr5, {0}
    8184:	e320f000 	nop	{0}
    8188:	e320f000 	nop	{0}
    818c:	e320f000 	nop	{0}
    8190:	e320f000 	nop	{0}
    8194:	e320f000 	nop	{0}
    8198:	e320f000 	nop	{0}
    819c:	e320f000 	nop	{0}
    81a0:	e320f000 	nop	{0}
    81a4:	e320f000 	nop	{0}
    81a8:	e320f000 	nop	{0}
    81ac:	e320f000 	nop	{0}
    81b0:	ee072f9a 	mcr	15, 0, r2, cr7, cr10, {4}
    81b4:	e1a00001 	mov	r0, r1
    81b8:	ee010f10 	mcr	15, 0, r0, cr1, cr0, {0}
    81bc:	ee072f95 	mcr	15, 0, r2, cr7, cr5, {4}
    81c0:	ee072fd5 	mcr	15, 0, r2, cr7, cr5, {6}
    81c4:	ee072f95 	mcr	15, 0, r2, cr7, cr5, {4}
    81c8:	e12fff1e 	bx	lr

000081cc <mmu_sync_pte_mods>:
    81cc:	e3a02000 	mov	r2, #0, 0
    81d0:	ee072f1e 	mcr	15, 0, r2, cr7, cr14, {0}
    81d4:	ee072f15 	mcr	15, 0, r2, cr7, cr5, {0}
    81d8:	ee072f15 	mcr	15, 0, r2, cr7, cr5, {0}
    81dc:	ee072f15 	mcr	15, 0, r2, cr7, cr5, {0}
    81e0:	ee072f15 	mcr	15, 0, r2, cr7, cr5, {0}
    81e4:	e320f000 	nop	{0}
    81e8:	e320f000 	nop	{0}
    81ec:	e320f000 	nop	{0}
    81f0:	e320f000 	nop	{0}
    81f4:	e320f000 	nop	{0}
    81f8:	e320f000 	nop	{0}
    81fc:	e320f000 	nop	{0}
    8200:	e320f000 	nop	{0}
    8204:	e320f000 	nop	{0}
    8208:	e320f000 	nop	{0}
    820c:	e320f000 	nop	{0}
    8210:	ee072f9a 	mcr	15, 0, r2, cr7, cr10, {4}
    8214:	ee082f17 	mcr	15, 0, r2, cr8, cr7, {0}
    8218:	ee072fd5 	mcr	15, 0, r2, cr7, cr5, {6}
    821c:	ee072f9a 	mcr	15, 0, r2, cr7, cr10, {4}
    8220:	ee072f95 	mcr	15, 0, r2, cr7, cr5, {4}
    8224:	e12fff1e 	bx	lr

00008228 <cp15_ctrl_reg1_get>:
    8228:	ee110f10 	mrc	15, 0, r0, cr1, cr0, {0}
    822c:	e12fff1e 	bx	lr

00008230 <cp15_ctrl_reg1_wr>:
    8230:	e3a02000 	mov	r2, #0, 0
    8234:	ee010f10 	mcr	15, 0, r0, cr1, cr0, {0}
    8238:	ee072f9a 	mcr	15, 0, r2, cr7, cr10, {4}
    823c:	ee072fd5 	mcr	15, 0, r2, cr7, cr5, {6}
    8240:	ee072f9a 	mcr	15, 0, r2, cr7, cr10, {4}
    8244:	ee072f95 	mcr	15, 0, r2, cr7, cr5, {4}
    8248:	e12fff1e 	bx	lr

0000824c <pin_mmu_enable>:
    824c:	e92d4010 	push	{r4, lr}
    8250:	eb000132 	bl	8720 <mmu_enable>
    8254:	e8bd8010 	pop	{r4, pc}

00008258 <pin_mmu_disable>:
    8258:	e92d4010 	push	{r4, lr}
    825c:	eb000107 	bl	8680 <mmu_disable>
    8260:	e8bd8010 	pop	{r4, pc}

00008264 <pin_set_context>:
    8264:	e92d4010 	push	{r4, lr}
    8268:	e1a04000 	mov	r4, r0
    826c:	e3a01901 	mov	r1, #16384	; 0x4000
    8270:	e1a00001 	mov	r0, r1
    8274:	eb0003a0 	bl	90fc <kmalloc_aligned>
    8278:	e1a02000 	mov	r2, r0
    827c:	e1a01004 	mov	r1, r4
    8280:	e3a00080 	mov	r0, #128, 0	; 0x80
    8284:	eb00013a 	bl	8774 <mmu_set_ctx>
    8288:	e8bd8010 	pop	{r4, pc}

0000828c <pin_mmu_sec>:
    828c:	e24dd008 	sub	sp, sp, #8, 0
    8290:	e52de004 	push	{lr}		; (str lr, [sp, #-4]!)
    8294:	e24dd00c 	sub	sp, sp, #12, 0
    8298:	e58d3014 	str	r3, [sp, #20]
    829c:	e3500007 	cmp	r0, #7, 0
    82a0:	8a00001c 	bhi	8318 <pin_mmu_sec+0x8c>
    82a4:	eeaf0f54 	mcr	15, 5, r0, cr15, cr4, {2}
    82a8:	e3a00000 	mov	r0, #0, 0
    82ac:	ee070f95 	mcr	15, 0, r0, cr7, cr5, {4}
    82b0:	e59dc014 	ldr	ip, [sp, #20]
    82b4:	e59d3018 	ldr	r3, [sp, #24]
    82b8:	e183348c 	orr	r3, r3, ip, lsl #9
    82bc:	e1831001 	orr	r1, r3, r1
    82c0:	eeaf1f55 	mcr	15, 5, r1, cr15, cr5, {2}
    82c4:	ee070f95 	mcr	15, 0, r0, cr7, cr5, {4}
    82c8:	e5dd1025 	ldrb	r1, [sp, #37]	; 0x25
    82cc:	e59d301c 	ldr	r3, [sp, #28]
    82d0:	e1a03383 	lsl	r3, r3, #7
    82d4:	e1833081 	orr	r3, r3, r1, lsl #1
    82d8:	eeaf3f57 	mcr	15, 5, r3, cr15, cr7, {2}
    82dc:	ee070f95 	mcr	15, 0, r0, cr7, cr5, {4}
    82e0:	e5dd3024 	ldrb	r3, [sp, #36]	; 0x24
    82e4:	e1a03083 	lsl	r3, r3, #1
    82e8:	e3833001 	orr	r3, r3, #1, 0
    82ec:	e59d1020 	ldr	r1, [sp, #32]
    82f0:	e1833301 	orr	r3, r3, r1, lsl #6
    82f4:	e1832002 	orr	r2, r3, r2
    82f8:	eeaf2f56 	mcr	15, 5, r2, cr15, cr6, {2}
    82fc:	ee070f95 	mcr	15, 0, r0, cr7, cr5, {4}
    8300:	ee070f9a 	mcr	15, 0, r0, cr7, cr10, {4}
    8304:	ee070f95 	mcr	15, 0, r0, cr7, cr5, {4}
    8308:	e28dd00c 	add	sp, sp, #12, 0
    830c:	e49de004 	pop	{lr}		; (ldr lr, [sp], #4)
    8310:	e28dd008 	add	sp, sp, #8, 0
    8314:	e12fff1e 	bx	lr
    8318:	e59f3018 	ldr	r3, [pc, #24]	; 8338 <pin_mmu_sec+0xac>
    831c:	e58d3000 	str	r3, [sp]
    8320:	e3a03026 	mov	r3, #38, 0	; 0x26
    8324:	e59f2010 	ldr	r2, [pc, #16]	; 833c <pin_mmu_sec+0xb0>
    8328:	e59f1010 	ldr	r1, [pc, #16]	; 8340 <pin_mmu_sec+0xb4>
    832c:	e59f0010 	ldr	r0, [pc, #16]	; 8344 <pin_mmu_sec+0xb8>
    8330:	eb00042b 	bl	93e4 <printk>
    8334:	eb00055a 	bl	98a4 <clean_reboot>
    8338:	00009f18 	.word	0x00009f18
    833c:	0000a044 	.word	0x0000a044
    8340:	00009edc 	.word	0x00009edc
    8344:	00009ee8 	.word	0x00009ee8

00008348 <tlb_contains_va>:
    8348:	ee071f18 	mcr	15, 0, r1, cr7, cr8, {0}
    834c:	e3a03000 	mov	r3, #0, 0
    8350:	ee073f95 	mcr	15, 0, r3, cr7, cr5, {4}
    8354:	ee173f14 	mrc	15, 0, r3, cr7, cr4, {0}
    8358:	e2232001 	eor	r2, r3, #1, 0
    835c:	e3c33fff 	bic	r3, r3, #1020	; 0x3fc
    8360:	e3c33003 	bic	r3, r3, #3, 0
    8364:	e1a01b01 	lsl	r1, r1, #22
    8368:	e1a01b21 	lsr	r1, r1, #22
    836c:	e1833001 	orr	r3, r3, r1
    8370:	e5803000 	str	r3, [r0]
    8374:	e2020001 	and	r0, r2, #1, 0
    8378:	e12fff1e 	bx	lr

0000837c <pin_exists>:
    837c:	e52de004 	push	{lr}		; (str lr, [sp, #-4]!)
    8380:	e24dd00c 	sub	sp, sp, #12, 0
    8384:	e1a01000 	mov	r1, r0
    8388:	e28d0004 	add	r0, sp, #4, 0
    838c:	ebffffed 	bl	8348 <tlb_contains_va>
    8390:	e28dd00c 	add	sp, sp, #12, 0
    8394:	e49df004 	pop	{pc}		; (ldr pc, [sp], #4)

00008398 <get_regs_idx>:
    8398:	eeaf0f54 	mcr	15, 5, r0, cr15, cr4, {2}
    839c:	e3a00000 	mov	r0, #0, 0
    83a0:	ee070f95 	mcr	15, 0, r0, cr7, cr5, {4}
    83a4:	eebf1f55 	mrc	15, 5, r1, cr15, cr5, {2}
    83a8:	eebf2f56 	mrc	15, 5, r2, cr15, cr6, {2}
    83ac:	eebf3f57 	mrc	15, 5, r3, cr15, cr7, {2}
    83b0:	ee070f9a 	mcr	15, 0, r0, cr7, cr10, {4}
    83b4:	ee070f95 	mcr	15, 0, r0, cr7, cr5, {4}
    83b8:	e5801000 	str	r1, [r0]
    83bc:	e5802004 	str	r2, [r0, #4]
    83c0:	e5803008 	str	r3, [r0, #8]
    83c4:	e12fff1e 	bx	lr

000083c8 <lockdown_print_entry>:
    83c8:	e92d4ff0 	push	{r4, r5, r6, r7, r8, r9, sl, fp, lr}
    83cc:	e24dd01c 	sub	sp, sp, #28, 0
    83d0:	e1a07000 	mov	r7, r0
    83d4:	e59f1140 	ldr	r1, [pc, #320]	; 851c <lockdown_print_entry+0x154>
    83d8:	e59f0140 	ldr	r0, [pc, #320]	; 8520 <lockdown_print_entry+0x158>
    83dc:	eb000400 	bl	93e4 <printk>
    83e0:	e1a01007 	mov	r1, r7
    83e4:	e59f0138 	ldr	r0, [pc, #312]	; 8524 <lockdown_print_entry+0x15c>
    83e8:	eb0003fd 	bl	93e4 <printk>
    83ec:	e1a00007 	mov	r0, r7
    83f0:	ebffffe8 	bl	8398 <get_regs_idx>
    83f4:	e5906000 	ldr	r6, [r0]
    83f8:	e5904004 	ldr	r4, [r0, #4]
    83fc:	e5905008 	ldr	r5, [r0, #8]
    8400:	e214a001 	ands	sl, r4, #1, 0
    8404:	0a00003d 	beq	8500 <lockdown_print_entry+0x138>
    8408:	e1a03626 	lsr	r3, r6, #12
    840c:	e58d3010 	str	r3, [sp, #16]
    8410:	e1a094a6 	lsr	r9, r6, #9
    8414:	e2099001 	and	r9, r9, #1, 0
    8418:	e6efb076 	uxtb	fp, r6
    841c:	e59f80f8 	ldr	r8, [pc, #248]	; 851c <lockdown_print_entry+0x154>
    8420:	e59f70f8 	ldr	r7, [pc, #248]	; 8520 <lockdown_print_entry+0x158>
    8424:	e1a01008 	mov	r1, r8
    8428:	e1a00007 	mov	r0, r7
    842c:	eb0003ec 	bl	93e4 <printk>
    8430:	e58db000 	str	fp, [sp]
    8434:	e1a03009 	mov	r3, r9
    8438:	e59d2010 	ldr	r2, [sp, #16]
    843c:	e1a01006 	mov	r1, r6
    8440:	e59f00e0 	ldr	r0, [pc, #224]	; 8528 <lockdown_print_entry+0x160>
    8444:	eb0003e6 	bl	93e4 <printk>
    8448:	e1a03624 	lsr	r3, r4, #12
    844c:	e58d3010 	str	r3, [sp, #16]
    8450:	e1a034a4 	lsr	r3, r4, #9
    8454:	e2031001 	and	r1, r3, #1, 0
    8458:	e58d1014 	str	r1, [sp, #20]
    845c:	e1a06424 	lsr	r6, r4, #8
    8460:	e2066001 	and	r6, r6, #1, 0
    8464:	e1a09324 	lsr	r9, r4, #6
    8468:	e2099003 	and	r9, r9, #3, 0
    846c:	e1a0b0a4 	lsr	fp, r4, #1
    8470:	e20bb003 	and	fp, fp, #3, 0
    8474:	e1a01008 	mov	r1, r8
    8478:	e1a00007 	mov	r0, r7
    847c:	eb0003d8 	bl	93e4 <printk>
    8480:	e58da00c 	str	sl, [sp, #12]
    8484:	e58db008 	str	fp, [sp, #8]
    8488:	e58d9004 	str	r9, [sp, #4]
    848c:	e58d6000 	str	r6, [sp]
    8490:	e59d3014 	ldr	r3, [sp, #20]
    8494:	e59d2010 	ldr	r2, [sp, #16]
    8498:	e1a01004 	mov	r1, r4
    849c:	e59f0088 	ldr	r0, [pc, #136]	; 852c <lockdown_print_entry+0x164>
    84a0:	eb0003cf 	bl	93e4 <printk>
    84a4:	e1a043a5 	lsr	r4, r5, #7
    84a8:	e204400f 	and	r4, r4, #15, 0
    84ac:	e1a06325 	lsr	r6, r5, #6
    84b0:	e2066001 	and	r6, r6, #1, 0
    84b4:	e1a091a5 	lsr	r9, r5, #3
    84b8:	e2099007 	and	r9, r9, #7, 0
    84bc:	e1a0a125 	lsr	sl, r5, #2
    84c0:	e20aa001 	and	sl, sl, #1, 0
    84c4:	e1a0b0a5 	lsr	fp, r5, #1
    84c8:	e20bb001 	and	fp, fp, #1, 0
    84cc:	e1a01008 	mov	r1, r8
    84d0:	e1a00007 	mov	r0, r7
    84d4:	eb0003c2 	bl	93e4 <printk>
    84d8:	e58db008 	str	fp, [sp, #8]
    84dc:	e58da004 	str	sl, [sp, #4]
    84e0:	e58d9000 	str	r9, [sp]
    84e4:	e1a03006 	mov	r3, r6
    84e8:	e1a02004 	mov	r2, r4
    84ec:	e1a01005 	mov	r1, r5
    84f0:	e59f0038 	ldr	r0, [pc, #56]	; 8530 <lockdown_print_entry+0x168>
    84f4:	eb0003ba 	bl	93e4 <printk>
    84f8:	e28dd01c 	add	sp, sp, #28, 0
    84fc:	e8bd8ff0 	pop	{r4, r5, r6, r7, r8, r9, sl, fp, pc}
    8500:	e59f1014 	ldr	r1, [pc, #20]	; 851c <lockdown_print_entry+0x154>
    8504:	e59f0014 	ldr	r0, [pc, #20]	; 8520 <lockdown_print_entry+0x158>
    8508:	eb0003b5 	bl	93e4 <printk>
    850c:	e1a01007 	mov	r1, r7
    8510:	e59f001c 	ldr	r0, [pc, #28]	; 8534 <lockdown_print_entry+0x16c>
    8514:	eb0003b2 	bl	93e4 <printk>
    8518:	eafffff6 	b	84f8 <lockdown_print_entry+0x130>
    851c:	0000a050 	.word	0x0000a050
    8520:	00009f20 	.word	0x00009f20
    8524:	00009f2c 	.word	0x00009f2c
    8528:	00009f54 	.word	0x00009f54
    852c:	00009f78 	.word	0x00009f78
    8530:	00009fb4 	.word	0x00009fb4
    8534:	00009f38 	.word	0x00009f38

00008538 <lockdown_print_entries>:
    8538:	e92d4070 	push	{r4, r5, r6, lr}
    853c:	e1a04000 	mov	r4, r0
    8540:	e59f6060 	ldr	r6, [pc, #96]	; 85a8 <lockdown_print_entries+0x70>
    8544:	e59f5060 	ldr	r5, [pc, #96]	; 85ac <lockdown_print_entries+0x74>
    8548:	e1a01006 	mov	r1, r6
    854c:	e1a00005 	mov	r0, r5
    8550:	eb0003a3 	bl	93e4 <printk>
    8554:	e1a01004 	mov	r1, r4
    8558:	e59f0050 	ldr	r0, [pc, #80]	; 85b0 <lockdown_print_entries+0x78>
    855c:	eb0003a0 	bl	93e4 <printk>
    8560:	e1a01006 	mov	r1, r6
    8564:	e1a00005 	mov	r0, r5
    8568:	eb00039d 	bl	93e4 <printk>
    856c:	e59f0040 	ldr	r0, [pc, #64]	; 85b4 <lockdown_print_entries+0x7c>
    8570:	eb00039b 	bl	93e4 <printk>
    8574:	e3a04000 	mov	r4, #0, 0
    8578:	ea000002 	b	8588 <lockdown_print_entries+0x50>
    857c:	e1a00004 	mov	r0, r4
    8580:	ebffff90 	bl	83c8 <lockdown_print_entry>
    8584:	e2844001 	add	r4, r4, #1, 0
    8588:	e3540007 	cmp	r4, #7, 0
    858c:	dafffffa 	ble	857c <lockdown_print_entries+0x44>
    8590:	e59f1010 	ldr	r1, [pc, #16]	; 85a8 <lockdown_print_entries+0x70>
    8594:	e59f0010 	ldr	r0, [pc, #16]	; 85ac <lockdown_print_entries+0x74>
    8598:	eb000391 	bl	93e4 <printk>
    859c:	e59f0014 	ldr	r0, [pc, #20]	; 85b8 <lockdown_print_entries+0x80>
    85a0:	eb00038f 	bl	93e4 <printk>
    85a4:	e8bd8070 	pop	{r4, r5, r6, pc}
    85a8:	0000a068 	.word	0x0000a068
    85ac:	00009f20 	.word	0x00009f20
    85b0:	00009fe4 	.word	0x00009fe4
    85b4:	00009ff8 	.word	0x00009ff8
    85b8:	0000a018 	.word	0x0000a018

000085bc <pin_clear>:
    85bc:	e12fff1e 	bx	lr

000085c0 <pin_mmu_init>:
    85c0:	e92d4010 	push	{r4, lr}
    85c4:	e1a04000 	mov	r4, r0
    85c8:	eb00008a 	bl	87f8 <mmu_init>
    85cc:	e1a00004 	mov	r0, r4
    85d0:	eb0000ac 	bl	8888 <domain_access_ctrl_set>
    85d4:	e8bd8010 	pop	{r4, pc}

000085d8 <cp15_ctrl_reg1_rd>:
    85d8:	e52de004 	push	{lr}		; (str lr, [sp, #-4]!)
    85dc:	e24dd00c 	sub	sp, sp, #12, 0
    85e0:	ebffff10 	bl	8228 <cp15_ctrl_reg1_get>
    85e4:	e58d0000 	str	r0, [sp]
    85e8:	e3a02004 	mov	r2, #4, 0
    85ec:	e1a0100d 	mov	r1, sp
    85f0:	e08d0002 	add	r0, sp, r2
    85f4:	eb000327 	bl	9298 <memcpy>
    85f8:	e59d0004 	ldr	r0, [sp, #4]
    85fc:	e28dd00c 	add	sp, sp, #12, 0
    8600:	e49df004 	pop	{pc}		; (ldr pc, [sp], #4)

00008604 <mmu_is_enabled>:
    8604:	e92d4010 	push	{r4, lr}
    8608:	ebfffff2 	bl	85d8 <cp15_ctrl_reg1_rd>
    860c:	e2000001 	and	r0, r0, #1, 0
    8610:	e8bd8010 	pop	{r4, pc}

00008614 <mmu_disable_set>:
    8614:	e92d4030 	push	{r4, r5, lr}
    8618:	e24dd00c 	sub	sp, sp, #12, 0
    861c:	e3100001 	tst	r0, #1, 0
    8620:	1a000007 	bne	8644 <mmu_disable_set+0x30>
    8624:	e1a04000 	mov	r4, r0
    8628:	e1a05120 	lsr	r5, r0, #2
    862c:	e2055001 	and	r5, r5, #1, 0
    8630:	ebfffeb1 	bl	80fc <mmu_disable_set_asm>
    8634:	e3550000 	cmp	r5, #0, 0
    8638:	1a000009 	bne	8664 <mmu_disable_set+0x50>
    863c:	e28dd00c 	add	sp, sp, #12, 0
    8640:	e8bd8030 	pop	{r4, r5, pc}
    8644:	e59f3024 	ldr	r3, [pc, #36]	; 8670 <mmu_disable_set+0x5c>
    8648:	e58d3000 	str	r3, [sp]
    864c:	e3a0301f 	mov	r3, #31, 0
    8650:	e59f201c 	ldr	r2, [pc, #28]	; 8674 <mmu_disable_set+0x60>
    8654:	e59f101c 	ldr	r1, [pc, #28]	; 8678 <mmu_disable_set+0x64>
    8658:	e59f001c 	ldr	r0, [pc, #28]	; 867c <mmu_disable_set+0x68>
    865c:	eb000360 	bl	93e4 <printk>
    8660:	eb00048f 	bl	98a4 <clean_reboot>
    8664:	e3840004 	orr	r0, r4, #4, 0
    8668:	ebfffef0 	bl	8230 <cp15_ctrl_reg1_wr>
    866c:	eafffff2 	b	863c <mmu_disable_set+0x28>
    8670:	0000a088 	.word	0x0000a088
    8674:	0000a0d4 	.word	0x0000a0d4
    8678:	0000a080 	.word	0x0000a080
    867c:	00009ee8 	.word	0x00009ee8

00008680 <mmu_disable>:
    8680:	e52de004 	push	{lr}		; (str lr, [sp, #-4]!)
    8684:	e24dd00c 	sub	sp, sp, #12, 0
    8688:	ebffffd2 	bl	85d8 <cp15_ctrl_reg1_rd>
    868c:	e3100001 	tst	r0, #1, 0
    8690:	0a000003 	beq	86a4 <mmu_disable+0x24>
    8694:	e3c00001 	bic	r0, r0, #1, 0
    8698:	ebffffdd 	bl	8614 <mmu_disable_set>
    869c:	e28dd00c 	add	sp, sp, #12, 0
    86a0:	e49df004 	pop	{pc}		; (ldr pc, [sp], #4)
    86a4:	e59f3018 	ldr	r3, [pc, #24]	; 86c4 <mmu_disable+0x44>
    86a8:	e58d3000 	str	r3, [sp]
    86ac:	e3a03033 	mov	r3, #51, 0	; 0x33
    86b0:	e59f2010 	ldr	r2, [pc, #16]	; 86c8 <mmu_disable+0x48>
    86b4:	e59f1010 	ldr	r1, [pc, #16]	; 86cc <mmu_disable+0x4c>
    86b8:	e59f0010 	ldr	r0, [pc, #16]	; 86d0 <mmu_disable+0x50>
    86bc:	eb000348 	bl	93e4 <printk>
    86c0:	eb000477 	bl	98a4 <clean_reboot>
    86c4:	0000a098 	.word	0x0000a098
    86c8:	0000a0e4 	.word	0x0000a0e4
    86cc:	0000a080 	.word	0x0000a080
    86d0:	00009ee8 	.word	0x00009ee8

000086d4 <mmu_enable_set>:
    86d4:	e52de004 	push	{lr}		; (str lr, [sp, #-4]!)
    86d8:	e24dd00c 	sub	sp, sp, #12, 0
    86dc:	e3100001 	tst	r0, #1, 0
    86e0:	0a000002 	beq	86f0 <mmu_enable_set+0x1c>
    86e4:	ebfffe9c 	bl	815c <mmu_enable_set_asm>
    86e8:	e28dd00c 	add	sp, sp, #12, 0
    86ec:	e49df004 	pop	{pc}		; (ldr pc, [sp], #4)
    86f0:	e59f3018 	ldr	r3, [pc, #24]	; 8710 <mmu_enable_set+0x3c>
    86f4:	e58d3000 	str	r3, [sp]
    86f8:	e3a0303d 	mov	r3, #61, 0	; 0x3d
    86fc:	e59f2010 	ldr	r2, [pc, #16]	; 8714 <mmu_enable_set+0x40>
    8700:	e59f1010 	ldr	r1, [pc, #16]	; 8718 <mmu_enable_set+0x44>
    8704:	e59f0010 	ldr	r0, [pc, #16]	; 871c <mmu_enable_set+0x48>
    8708:	eb000335 	bl	93e4 <printk>
    870c:	eb000464 	bl	98a4 <clean_reboot>
    8710:	0000a098 	.word	0x0000a098
    8714:	0000a0f0 	.word	0x0000a0f0
    8718:	0000a080 	.word	0x0000a080
    871c:	00009ee8 	.word	0x00009ee8

00008720 <mmu_enable>:
    8720:	e52de004 	push	{lr}		; (str lr, [sp, #-4]!)
    8724:	e24dd00c 	sub	sp, sp, #12, 0
    8728:	ebffffaa 	bl	85d8 <cp15_ctrl_reg1_rd>
    872c:	e3100001 	tst	r0, #1, 0
    8730:	1a000003 	bne	8744 <mmu_enable+0x24>
    8734:	e3800001 	orr	r0, r0, #1, 0
    8738:	ebffffe5 	bl	86d4 <mmu_enable_set>
    873c:	e28dd00c 	add	sp, sp, #12, 0
    8740:	e49df004 	pop	{pc}		; (ldr pc, [sp], #4)
    8744:	e59f3018 	ldr	r3, [pc, #24]	; 8764 <mmu_enable+0x44>
    8748:	e58d3000 	str	r3, [sp]
    874c:	e3a03044 	mov	r3, #68, 0	; 0x44
    8750:	e59f2010 	ldr	r2, [pc, #16]	; 8768 <mmu_enable+0x48>
    8754:	e59f1010 	ldr	r1, [pc, #16]	; 876c <mmu_enable+0x4c>
    8758:	e59f0010 	ldr	r0, [pc, #16]	; 8770 <mmu_enable+0x50>
    875c:	eb000320 	bl	93e4 <printk>
    8760:	eb00044f 	bl	98a4 <clean_reboot>
    8764:	0000a088 	.word	0x0000a088
    8768:	0000a100 	.word	0x0000a100
    876c:	0000a080 	.word	0x0000a080
    8770:	00009ee8 	.word	0x00009ee8

00008774 <mmu_set_ctx>:
    8774:	e52de004 	push	{lr}		; (str lr, [sp, #-4]!)
    8778:	e24dd00c 	sub	sp, sp, #12, 0
    877c:	e1a03001 	mov	r3, r1
    8780:	e3530000 	cmp	r3, #0, 0
    8784:	0a000006 	beq	87a4 <mmu_set_ctx+0x30>
    8788:	e1a01002 	mov	r1, r2
    878c:	e353003f 	cmp	r3, #63, 0	; 0x3f
    8790:	8a00000b 	bhi	87c4 <mmu_set_ctx+0x50>
    8794:	e1830400 	orr	r0, r3, r0, lsl #8
    8798:	ebfffe4a 	bl	80c8 <cp15_set_procid_ttbr0>
    879c:	e28dd00c 	add	sp, sp, #12, 0
    87a0:	e49df004 	pop	{pc}		; (ldr pc, [sp], #4)
    87a4:	e59f3038 	ldr	r3, [pc, #56]	; 87e4 <mmu_set_ctx+0x70>
    87a8:	e58d3000 	str	r3, [sp]
    87ac:	e3a0304b 	mov	r3, #75, 0	; 0x4b
    87b0:	e59f2030 	ldr	r2, [pc, #48]	; 87e8 <mmu_set_ctx+0x74>
    87b4:	e59f1030 	ldr	r1, [pc, #48]	; 87ec <mmu_set_ctx+0x78>
    87b8:	e59f0030 	ldr	r0, [pc, #48]	; 87f0 <mmu_set_ctx+0x7c>
    87bc:	eb000308 	bl	93e4 <printk>
    87c0:	eb000437 	bl	98a4 <clean_reboot>
    87c4:	e59f3028 	ldr	r3, [pc, #40]	; 87f4 <mmu_set_ctx+0x80>
    87c8:	e58d3000 	str	r3, [sp]
    87cc:	e3a0304c 	mov	r3, #76, 0	; 0x4c
    87d0:	e59f2010 	ldr	r2, [pc, #16]	; 87e8 <mmu_set_ctx+0x74>
    87d4:	e59f1010 	ldr	r1, [pc, #16]	; 87ec <mmu_set_ctx+0x78>
    87d8:	e59f0010 	ldr	r0, [pc, #16]	; 87f0 <mmu_set_ctx+0x7c>
    87dc:	eb000300 	bl	93e4 <printk>
    87e0:	eb00042f 	bl	98a4 <clean_reboot>
    87e4:	0000a0a8 	.word	0x0000a0a8
    87e8:	0000a10c 	.word	0x0000a10c
    87ec:	0000a080 	.word	0x0000a080
    87f0:	00009ee8 	.word	0x00009ee8
    87f4:	0000a0b0 	.word	0x0000a0b0

000087f8 <mmu_init>:
    87f8:	e52de004 	push	{lr}		; (str lr, [sp, #-4]!)
    87fc:	e24dd00c 	sub	sp, sp, #12, 0
    8800:	ebfffe16 	bl	8060 <mmu_reset>
    8804:	ebffff73 	bl	85d8 <cp15_ctrl_reg1_rd>
    8808:	e3800502 	orr	r0, r0, #8388608	; 0x800000
    880c:	ebfffe87 	bl	8230 <cp15_ctrl_reg1_wr>
    8810:	ebffff70 	bl	85d8 <cp15_ctrl_reg1_rd>
    8814:	e3100502 	tst	r0, #8388608	; 0x800000
    8818:	0a000003 	beq	882c <mmu_init+0x34>
    881c:	e3100001 	tst	r0, #1, 0
    8820:	1a000009 	bne	884c <mmu_init+0x54>
    8824:	e28dd00c 	add	sp, sp, #12, 0
    8828:	e49df004 	pop	{pc}		; (ldr pc, [sp], #4)
    882c:	e59f3038 	ldr	r3, [pc, #56]	; 886c <mmu_init+0x74>
    8830:	e58d3000 	str	r3, [sp]
    8834:	e3a03067 	mov	r3, #103, 0	; 0x67
    8838:	e59f2030 	ldr	r2, [pc, #48]	; 8870 <mmu_init+0x78>
    883c:	e59f1030 	ldr	r1, [pc, #48]	; 8874 <mmu_init+0x7c>
    8840:	e59f0030 	ldr	r0, [pc, #48]	; 8878 <mmu_init+0x80>
    8844:	eb0002e6 	bl	93e4 <printk>
    8848:	eb000415 	bl	98a4 <clean_reboot>
    884c:	e59f3028 	ldr	r3, [pc, #40]	; 887c <mmu_init+0x84>
    8850:	e58d3000 	str	r3, [sp]
    8854:	e3a03068 	mov	r3, #104, 0	; 0x68
    8858:	e59f2010 	ldr	r2, [pc, #16]	; 8870 <mmu_init+0x78>
    885c:	e59f1010 	ldr	r1, [pc, #16]	; 8874 <mmu_init+0x7c>
    8860:	e59f0010 	ldr	r0, [pc, #16]	; 8878 <mmu_init+0x80>
    8864:	eb0002de 	bl	93e4 <printk>
    8868:	eb00040d 	bl	98a4 <clean_reboot>
    886c:	0000a0b8 	.word	0x0000a0b8
    8870:	0000a118 	.word	0x0000a118
    8874:	0000a080 	.word	0x0000a080
    8878:	00009ee8 	.word	0x00009ee8
    887c:	0000a0c4 	.word	0x0000a0c4

00008880 <domain_access_ctrl_get>:
    8880:	ee130f10 	mrc	15, 0, r0, cr3, cr0, {0}
    8884:	e12fff1e 	bx	lr

00008888 <domain_access_ctrl_set>:
    8888:	e92d4010 	push	{r4, lr}
    888c:	ebfffe09 	bl	80b8 <cp15_domain_ctrl_wr>
    8890:	e8bd8010 	pop	{r4, pc}

00008894 <bits_mask>:
    8894:	e3500020 	cmp	r0, #32, 0
    8898:	0a00000f 	beq	88dc <bits_mask+0x48>
    889c:	e350001f 	cmp	r0, #31, 0
    88a0:	8a000003 	bhi	88b4 <bits_mask+0x20>
    88a4:	e3a03001 	mov	r3, #1, 0
    88a8:	e1a00013 	lsl	r0, r3, r0
    88ac:	e2400001 	sub	r0, r0, #1, 0
    88b0:	e12fff1e 	bx	lr
    88b4:	e52de004 	push	{lr}		; (str lr, [sp, #-4]!)
    88b8:	e24dd00c 	sub	sp, sp, #12, 0
    88bc:	e59f3020 	ldr	r3, [pc, #32]	; 88e4 <bits_mask+0x50>
    88c0:	e58d3000 	str	r3, [sp]
    88c4:	e3a03033 	mov	r3, #51, 0	; 0x33
    88c8:	e59f2018 	ldr	r2, [pc, #24]	; 88e8 <bits_mask+0x54>
    88cc:	e59f1018 	ldr	r1, [pc, #24]	; 88ec <bits_mask+0x58>
    88d0:	e59f0018 	ldr	r0, [pc, #24]	; 88f0 <bits_mask+0x5c>
    88d4:	eb0002c2 	bl	93e4 <printk>
    88d8:	eb0003f1 	bl	98a4 <clean_reboot>
    88dc:	e3e00000 	mvn	r0, #0, 0
    88e0:	e12fff1e 	bx	lr
    88e4:	0000a160 	.word	0x0000a160
    88e8:	0000a43c 	.word	0x0000a43c
    88ec:	0000a124 	.word	0x0000a124
    88f0:	00009ee8 	.word	0x00009ee8

000088f4 <mode_get>:
    88f4:	e92d4010 	push	{r4, lr}
    88f8:	e24dd008 	sub	sp, sp, #8, 0
    88fc:	e1a04000 	mov	r4, r0
    8900:	e3a00005 	mov	r0, #5, 0
    8904:	ebffffe2 	bl	8894 <bits_mask>
    8908:	e0000004 	and	r0, r0, r4
    890c:	e3500012 	cmp	r0, #18, 0
    8910:	13500010 	cmpne	r0, #16, 0
    8914:	0a000005 	beq	8930 <mode_get+0x3c>
    8918:	e3500017 	cmp	r0, #23, 0
    891c:	13500013 	cmpne	r0, #19, 0
    8920:	0a000002 	beq	8930 <mode_get+0x3c>
    8924:	e350001f 	cmp	r0, #31, 0
    8928:	1350001b 	cmpne	r0, #27, 0
    892c:	1a000001 	bne	8938 <mode_get+0x44>
    8930:	e28dd008 	add	sp, sp, #8, 0
    8934:	e8bd8010 	pop	{r4, pc}
    8938:	e58d0004 	str	r0, [sp, #4]
    893c:	e58d0000 	str	r0, [sp]
    8940:	e3a03013 	mov	r3, #19, 0
    8944:	e59f200c 	ldr	r2, [pc, #12]	; 8958 <mode_get+0x64>
    8948:	e59f100c 	ldr	r1, [pc, #12]	; 895c <mode_get+0x68>
    894c:	e59f000c 	ldr	r0, [pc, #12]	; 8960 <mode_get+0x6c>
    8950:	eb0002a3 	bl	93e4 <printk>
    8954:	eb0003d2 	bl	98a4 <clean_reboot>
    8958:	0000a448 	.word	0x0000a448
    895c:	0000a178 	.word	0x0000a178
    8960:	0000a1b4 	.word	0x0000a1b4

00008964 <fixup_regs>:
    8964:	e92d4070 	push	{r4, r5, r6, lr}
    8968:	e1a05000 	mov	r5, r0
    896c:	e1a04001 	mov	r4, r1
    8970:	e1a00001 	mov	r0, r1
    8974:	ebffffde 	bl	88f4 <mode_get>
    8978:	e3500010 	cmp	r0, #16, 0
    897c:	08bd8070 	popeq	{r4, r5, r6, pc}
    8980:	e2852038 	add	r2, r5, #56, 0	; 0x38
    8984:	e2851034 	add	r1, r5, #52, 0	; 0x34
    8988:	e1a00004 	mov	r0, r4
    898c:	eb00093e 	bl	ae8c <priv_get_sp_lr_asm>
    8990:	e8bd8070 	pop	{r4, r5, r6, pc}

00008994 <switchto>:
    8994:	e92d4010 	push	{r4, lr}
    8998:	e1a04000 	mov	r4, r0
    899c:	e5900040 	ldr	r0, [r0, #64]	; 0x40
    89a0:	ebffffd3 	bl	88f4 <mode_get>
    89a4:	e3500010 	cmp	r0, #16, 0
    89a8:	0a000001 	beq	89b4 <switchto+0x20>
    89ac:	e1a00004 	mov	r0, r4
    89b0:	eb000922 	bl	ae40 <switchto_priv_asm>
    89b4:	e1a00004 	mov	r0, r4
    89b8:	eb00090e 	bl	adf8 <switchto_user_asm>

000089bc <prefetch_abort_full_except>:
    89bc:	e52de004 	push	{lr}		; (str lr, [sp, #-4]!)
    89c0:	e24dd00c 	sub	sp, sp, #12, 0
    89c4:	e5903040 	ldr	r3, [r0, #64]	; 0x40
    89c8:	e1530001 	cmp	r3, r1
    89cc:	1a00000e 	bne	8a0c <prefetch_abort_full_except+0x50>
    89d0:	e1a04000 	mov	r4, r0
    89d4:	e590303c 	ldr	r3, [r0, #60]	; 0x3c
    89d8:	e1530002 	cmp	r3, r2
    89dc:	1a000012 	bne	8a2c <prefetch_abort_full_except+0x70>
    89e0:	e59f3080 	ldr	r3, [pc, #128]	; 8a68 <prefetch_abort_full_except+0xac>
    89e4:	e5933000 	ldr	r3, [r3]
    89e8:	e3530000 	cmp	r3, #0, 0
    89ec:	0a000016 	beq	8a4c <prefetch_abort_full_except+0x90>
    89f0:	ebffffdb 	bl	8964 <fixup_regs>
    89f4:	e59f306c 	ldr	r3, [pc, #108]	; 8a68 <prefetch_abort_full_except+0xac>
    89f8:	e5933000 	ldr	r3, [r3]
    89fc:	e1a00004 	mov	r0, r4
    8a00:	e12fff33 	blx	r3
    8a04:	e1a00004 	mov	r0, r4
    8a08:	ebffffe1 	bl	8994 <switchto>
    8a0c:	e59f3058 	ldr	r3, [pc, #88]	; 8a6c <prefetch_abort_full_except+0xb0>
    8a10:	e58d3000 	str	r3, [sp]
    8a14:	e3a03031 	mov	r3, #49, 0	; 0x31
    8a18:	e59f2050 	ldr	r2, [pc, #80]	; 8a70 <prefetch_abort_full_except+0xb4>
    8a1c:	e59f1050 	ldr	r1, [pc, #80]	; 8a74 <prefetch_abort_full_except+0xb8>
    8a20:	e59f0050 	ldr	r0, [pc, #80]	; 8a78 <prefetch_abort_full_except+0xbc>
    8a24:	eb00026e 	bl	93e4 <printk>
    8a28:	eb00039d 	bl	98a4 <clean_reboot>
    8a2c:	e59f3048 	ldr	r3, [pc, #72]	; 8a7c <prefetch_abort_full_except+0xc0>
    8a30:	e58d3000 	str	r3, [sp]
    8a34:	e3a03032 	mov	r3, #50, 0	; 0x32
    8a38:	e59f2030 	ldr	r2, [pc, #48]	; 8a70 <prefetch_abort_full_except+0xb4>
    8a3c:	e59f1030 	ldr	r1, [pc, #48]	; 8a74 <prefetch_abort_full_except+0xb8>
    8a40:	e59f0030 	ldr	r0, [pc, #48]	; 8a78 <prefetch_abort_full_except+0xbc>
    8a44:	eb000266 	bl	93e4 <printk>
    8a48:	eb000395 	bl	98a4 <clean_reboot>
    8a4c:	e58d2000 	str	r2, [sp]
    8a50:	e3a03035 	mov	r3, #53, 0	; 0x35
    8a54:	e59f2014 	ldr	r2, [pc, #20]	; 8a70 <prefetch_abort_full_except+0xb4>
    8a58:	e59f1014 	ldr	r1, [pc, #20]	; 8a74 <prefetch_abort_full_except+0xb8>
    8a5c:	e59f001c 	ldr	r0, [pc, #28]	; 8a80 <prefetch_abort_full_except+0xc4>
    8a60:	eb00025f 	bl	93e4 <printk>
    8a64:	eb00038e 	bl	98a4 <clean_reboot>
    8a68:	0000b080 	.word	0x0000b080
    8a6c:	0000a1f4 	.word	0x0000a1f4
    8a70:	0000a454 	.word	0x0000a454
    8a74:	0000a1e0 	.word	0x0000a1e0
    8a78:	00009ee8 	.word	0x00009ee8
    8a7c:	0000a210 	.word	0x0000a210
    8a80:	0000a228 	.word	0x0000a228

00008a84 <data_abort_full_except>:
    8a84:	e52de004 	push	{lr}		; (str lr, [sp, #-4]!)
    8a88:	e24dd00c 	sub	sp, sp, #12, 0
    8a8c:	e5903040 	ldr	r3, [r0, #64]	; 0x40
    8a90:	e1530001 	cmp	r3, r1
    8a94:	1a00000e 	bne	8ad4 <data_abort_full_except+0x50>
    8a98:	e1a04000 	mov	r4, r0
    8a9c:	e590303c 	ldr	r3, [r0, #60]	; 0x3c
    8aa0:	e1530002 	cmp	r3, r2
    8aa4:	1a000012 	bne	8af4 <data_abort_full_except+0x70>
    8aa8:	e59f3080 	ldr	r3, [pc, #128]	; 8b30 <data_abort_full_except+0xac>
    8aac:	e5933004 	ldr	r3, [r3, #4]
    8ab0:	e3530000 	cmp	r3, #0, 0
    8ab4:	0a000016 	beq	8b14 <data_abort_full_except+0x90>
    8ab8:	ebffffa9 	bl	8964 <fixup_regs>
    8abc:	e59f306c 	ldr	r3, [pc, #108]	; 8b30 <data_abort_full_except+0xac>
    8ac0:	e5933004 	ldr	r3, [r3, #4]
    8ac4:	e1a00004 	mov	r0, r4
    8ac8:	e12fff33 	blx	r3
    8acc:	e1a00004 	mov	r0, r4
    8ad0:	ebffffaf 	bl	8994 <switchto>
    8ad4:	e59f3058 	ldr	r3, [pc, #88]	; 8b34 <data_abort_full_except+0xb0>
    8ad8:	e58d3000 	str	r3, [sp]
    8adc:	e3a0303e 	mov	r3, #62, 0	; 0x3e
    8ae0:	e59f2050 	ldr	r2, [pc, #80]	; 8b38 <data_abort_full_except+0xb4>
    8ae4:	e59f1050 	ldr	r1, [pc, #80]	; 8b3c <data_abort_full_except+0xb8>
    8ae8:	e59f0050 	ldr	r0, [pc, #80]	; 8b40 <data_abort_full_except+0xbc>
    8aec:	eb00023c 	bl	93e4 <printk>
    8af0:	eb00036b 	bl	98a4 <clean_reboot>
    8af4:	e59f3048 	ldr	r3, [pc, #72]	; 8b44 <data_abort_full_except+0xc0>
    8af8:	e58d3000 	str	r3, [sp]
    8afc:	e3a0303f 	mov	r3, #63, 0	; 0x3f
    8b00:	e59f2030 	ldr	r2, [pc, #48]	; 8b38 <data_abort_full_except+0xb4>
    8b04:	e59f1030 	ldr	r1, [pc, #48]	; 8b3c <data_abort_full_except+0xb8>
    8b08:	e59f0030 	ldr	r0, [pc, #48]	; 8b40 <data_abort_full_except+0xbc>
    8b0c:	eb000234 	bl	93e4 <printk>
    8b10:	eb000363 	bl	98a4 <clean_reboot>
    8b14:	e58d2000 	str	r2, [sp]
    8b18:	e3a03042 	mov	r3, #66, 0	; 0x42
    8b1c:	e59f2014 	ldr	r2, [pc, #20]	; 8b38 <data_abort_full_except+0xb4>
    8b20:	e59f1014 	ldr	r1, [pc, #20]	; 8b3c <data_abort_full_except+0xb8>
    8b24:	e59f001c 	ldr	r0, [pc, #28]	; 8b48 <data_abort_full_except+0xc4>
    8b28:	eb00022d 	bl	93e4 <printk>
    8b2c:	eb00035c 	bl	98a4 <clean_reboot>
    8b30:	0000b080 	.word	0x0000b080
    8b34:	0000a1f4 	.word	0x0000a1f4
    8b38:	0000a470 	.word	0x0000a470
    8b3c:	0000a1e0 	.word	0x0000a1e0
    8b40:	00009ee8 	.word	0x00009ee8
    8b44:	0000a210 	.word	0x0000a210
    8b48:	0000a260 	.word	0x0000a260

00008b4c <syscall_full_except>:
    8b4c:	e52de004 	push	{lr}		; (str lr, [sp, #-4]!)
    8b50:	e24dd014 	sub	sp, sp, #20, 0
    8b54:	e5903040 	ldr	r3, [r0, #64]	; 0x40
    8b58:	e1530001 	cmp	r3, r1
    8b5c:	1a00000c 	bne	8b94 <syscall_full_except+0x48>
    8b60:	e1a04000 	mov	r4, r0
    8b64:	e1a05002 	mov	r5, r2
    8b68:	e590303c 	ldr	r3, [r0, #60]	; 0x3c
    8b6c:	e1530002 	cmp	r3, r2
    8b70:	0a00000f 	beq	8bb4 <syscall_full_except+0x68>
    8b74:	e59f30d0 	ldr	r3, [pc, #208]	; 8c4c <syscall_full_except+0x100>
    8b78:	e58d3000 	str	r3, [sp]
    8b7c:	e3a0304d 	mov	r3, #77, 0	; 0x4d
    8b80:	e59f20c8 	ldr	r2, [pc, #200]	; 8c50 <syscall_full_except+0x104>
    8b84:	e59f10c8 	ldr	r1, [pc, #200]	; 8c54 <syscall_full_except+0x108>
    8b88:	e59f00c8 	ldr	r0, [pc, #200]	; 8c58 <syscall_full_except+0x10c>
    8b8c:	eb000214 	bl	93e4 <printk>
    8b90:	eb000343 	bl	98a4 <clean_reboot>
    8b94:	e59f30c0 	ldr	r3, [pc, #192]	; 8c5c <syscall_full_except+0x110>
    8b98:	e58d3000 	str	r3, [sp]
    8b9c:	e3a0304c 	mov	r3, #76, 0	; 0x4c
    8ba0:	e59f20a8 	ldr	r2, [pc, #168]	; 8c50 <syscall_full_except+0x104>
    8ba4:	e59f10a8 	ldr	r1, [pc, #168]	; 8c54 <syscall_full_except+0x108>
    8ba8:	e59f00a8 	ldr	r0, [pc, #168]	; 8c58 <syscall_full_except+0x10c>
    8bac:	eb00020c 	bl	93e4 <printk>
    8bb0:	eb00033b 	bl	98a4 <clean_reboot>
    8bb4:	e1a00001 	mov	r0, r1
    8bb8:	ebffff4d 	bl	88f4 <mode_get>
    8bbc:	e3500010 	cmp	r0, #16, 0
    8bc0:	1a00000c 	bne	8bf8 <syscall_full_except+0xac>
    8bc4:	e28d200c 	add	r2, sp, #12, 0
    8bc8:	e59f3090 	ldr	r3, [pc, #144]	; 8c60 <syscall_full_except+0x114>
    8bcc:	e1520003 	cmp	r2, r3
    8bd0:	9a00000e 	bls	8c10 <syscall_full_except+0xc4>
    8bd4:	e59f3088 	ldr	r3, [pc, #136]	; 8c64 <syscall_full_except+0x118>
    8bd8:	e5933008 	ldr	r3, [r3, #8]
    8bdc:	e3530000 	cmp	r3, #0, 0
    8be0:	0a000012 	beq	8c30 <syscall_full_except+0xe4>
    8be4:	e1a00004 	mov	r0, r4
    8be8:	e12fff33 	blx	r3
    8bec:	e5840000 	str	r0, [r4]
    8bf0:	e1a00004 	mov	r0, r4
    8bf4:	ebffff66 	bl	8994 <switchto>
    8bf8:	e3a03050 	mov	r3, #80, 0	; 0x50
    8bfc:	e59f204c 	ldr	r2, [pc, #76]	; 8c50 <syscall_full_except+0x104>
    8c00:	e59f104c 	ldr	r1, [pc, #76]	; 8c54 <syscall_full_except+0x108>
    8c04:	e59f005c 	ldr	r0, [pc, #92]	; 8c68 <syscall_full_except+0x11c>
    8c08:	eb0001f5 	bl	93e4 <printk>
    8c0c:	eb000324 	bl	98a4 <clean_reboot>
    8c10:	e59f3054 	ldr	r3, [pc, #84]	; 8c6c <syscall_full_except+0x120>
    8c14:	e58d3000 	str	r3, [sp]
    8c18:	e3a03055 	mov	r3, #85, 0	; 0x55
    8c1c:	e59f202c 	ldr	r2, [pc, #44]	; 8c50 <syscall_full_except+0x104>
    8c20:	e59f102c 	ldr	r1, [pc, #44]	; 8c54 <syscall_full_except+0x108>
    8c24:	e59f0044 	ldr	r0, [pc, #68]	; 8c70 <syscall_full_except+0x124>
    8c28:	eb0001ed 	bl	93e4 <printk>
    8c2c:	eb00031c 	bl	98a4 <clean_reboot>
    8c30:	e58d5000 	str	r5, [sp]
    8c34:	e3a0305a 	mov	r3, #90, 0	; 0x5a
    8c38:	e59f2010 	ldr	r2, [pc, #16]	; 8c50 <syscall_full_except+0x104>
    8c3c:	e59f1010 	ldr	r1, [pc, #16]	; 8c54 <syscall_full_except+0x108>
    8c40:	e59f002c 	ldr	r0, [pc, #44]	; 8c74 <syscall_full_except+0x128>
    8c44:	eb0001e6 	bl	93e4 <printk>
    8c48:	eb000315 	bl	98a4 <clean_reboot>
    8c4c:	0000a210 	.word	0x0000a210
    8c50:	0000a488 	.word	0x0000a488
    8c54:	0000a1e0 	.word	0x0000a1e0
    8c58:	00009ee8 	.word	0x00009ee8
    8c5c:	0000a1f4 	.word	0x0000a1f4
    8c60:	000186a0 	.word	0x000186a0
    8c64:	0000b080 	.word	0x0000b080
    8c68:	0000a294 	.word	0x0000a294
    8c6c:	0000a314 	.word	0x0000a314
    8c70:	0000a2d0 	.word	0x0000a2d0
    8c74:	0000a32c 	.word	0x0000a32c

00008c78 <full_except_set_prefetch>:
    8c78:	e59f300c 	ldr	r3, [pc, #12]	; 8c8c <full_except_set_prefetch+0x14>
    8c7c:	e5932000 	ldr	r2, [r3]
    8c80:	e5830000 	str	r0, [r3]
    8c84:	e1a00002 	mov	r0, r2
    8c88:	e12fff1e 	bx	lr
    8c8c:	0000b080 	.word	0x0000b080

00008c90 <full_except_set_data_abort>:
    8c90:	e59f300c 	ldr	r3, [pc, #12]	; 8ca4 <full_except_set_data_abort+0x14>
    8c94:	e5932004 	ldr	r2, [r3, #4]
    8c98:	e5830004 	str	r0, [r3, #4]
    8c9c:	e1a00002 	mov	r0, r2
    8ca0:	e12fff1e 	bx	lr
    8ca4:	0000b080 	.word	0x0000b080

00008ca8 <full_except_set_syscall>:
    8ca8:	e59f300c 	ldr	r3, [pc, #12]	; 8cbc <full_except_set_syscall+0x14>
    8cac:	e5932008 	ldr	r2, [r3, #8]
    8cb0:	e5830008 	str	r0, [r3, #8]
    8cb4:	e1a00002 	mov	r0, r2
    8cb8:	e12fff1e 	bx	lr
    8cbc:	0000b080 	.word	0x0000b080

00008cc0 <full_except_install>:
    8cc0:	e52de004 	push	{lr}		; (str lr, [sp, #-4]!)
    8cc4:	e24dd00c 	sub	sp, sp, #12, 0
    8cc8:	e3500000 	cmp	r0, #0, 0
    8ccc:	1a000007 	bne	8cf0 <full_except_install+0x30>
    8cd0:	ee1c3f10 	mrc	15, 0, r3, cr12, cr0, {0}
    8cd4:	e3530000 	cmp	r3, #0, 0
    8cd8:	0a000030 	beq	8da0 <full_except_install+0xe0>
    8cdc:	e59f217c 	ldr	r2, [pc, #380]	; 8e60 <full_except_install+0x1a0>
    8ce0:	e1530002 	cmp	r3, r2
    8ce4:	1a000056 	bne	8e44 <full_except_install+0x184>
    8ce8:	e28dd00c 	add	sp, sp, #12, 0
    8cec:	e49df004 	pop	{pc}		; (ldr pc, [sp], #4)
    8cf0:	e59f3168 	ldr	r3, [pc, #360]	; 8e60 <full_except_install+0x1a0>
    8cf4:	e313001f 	tst	r3, #31, 0
    8cf8:	1a000017 	bne	8d5c <full_except_install+0x9c>
    8cfc:	e3a03001 	mov	r3, #1, 0
    8d00:	e3530000 	cmp	r3, #0, 0
    8d04:	0a000016 	beq	8d64 <full_except_install+0xa4>
    8d08:	ee1c3f10 	mrc	15, 0, r3, cr12, cr0, {0}
    8d0c:	e59f214c 	ldr	r2, [pc, #332]	; 8e60 <full_except_install+0x1a0>
    8d10:	e1530002 	cmp	r3, r2
    8d14:	0afffff3 	beq	8ce8 <full_except_install+0x28>
    8d18:	e3530000 	cmp	r3, #0, 0
    8d1c:	1a000018 	bne	8d84 <full_except_install+0xc4>
    8d20:	e59f3138 	ldr	r3, [pc, #312]	; 8e60 <full_except_install+0x1a0>
    8d24:	ee0c3f10 	mcr	15, 0, r3, cr12, cr0, {0}
    8d28:	e3a02000 	mov	r2, #0, 0
    8d2c:	ee072f95 	mcr	15, 0, r2, cr7, cr5, {4}
    8d30:	ee1c2f10 	mrc	15, 0, r2, cr12, cr0, {0}
    8d34:	e1520003 	cmp	r2, r3
    8d38:	0affffea 	beq	8ce8 <full_except_install+0x28>
    8d3c:	e58d2004 	str	r2, [sp, #4]
    8d40:	e58d3000 	str	r3, [sp]
    8d44:	e3a03036 	mov	r3, #54, 0	; 0x36
    8d48:	e59f2114 	ldr	r2, [pc, #276]	; 8e64 <full_except_install+0x1a4>
    8d4c:	e59f1114 	ldr	r1, [pc, #276]	; 8e68 <full_except_install+0x1a8>
    8d50:	e59f0114 	ldr	r0, [pc, #276]	; 8e6c <full_except_install+0x1ac>
    8d54:	eb0001a2 	bl	93e4 <printk>
    8d58:	eb0002d1 	bl	98a4 <clean_reboot>
    8d5c:	e3a03000 	mov	r3, #0, 0
    8d60:	eaffffe6 	b	8d00 <full_except_install+0x40>
    8d64:	e59f30f4 	ldr	r3, [pc, #244]	; 8e60 <full_except_install+0x1a0>
    8d68:	e58d3000 	str	r3, [sp]
    8d6c:	e3a03028 	mov	r3, #40, 0	; 0x28
    8d70:	e59f20ec 	ldr	r2, [pc, #236]	; 8e64 <full_except_install+0x1a4>
    8d74:	e59f10ec 	ldr	r1, [pc, #236]	; 8e68 <full_except_install+0x1a8>
    8d78:	e59f00f0 	ldr	r0, [pc, #240]	; 8e70 <full_except_install+0x1b0>
    8d7c:	eb000198 	bl	93e4 <printk>
    8d80:	eb0002c7 	bl	98a4 <clean_reboot>
    8d84:	e58d3000 	str	r3, [sp]
    8d88:	e3a03031 	mov	r3, #49, 0	; 0x31
    8d8c:	e59f20d0 	ldr	r2, [pc, #208]	; 8e64 <full_except_install+0x1a4>
    8d90:	e59f10d0 	ldr	r1, [pc, #208]	; 8e68 <full_except_install+0x1a8>
    8d94:	e59f00d8 	ldr	r0, [pc, #216]	; 8e74 <full_except_install+0x1b4>
    8d98:	eb000191 	bl	93e4 <printk>
    8d9c:	eb0002c0 	bl	98a4 <clean_reboot>
    8da0:	e59f30b8 	ldr	r3, [pc, #184]	; 8e60 <full_except_install+0x1a0>
    8da4:	e313001f 	tst	r3, #31, 0
    8da8:	03a00001 	moveq	r0, #1, 0
    8dac:	e3500000 	cmp	r0, #0, 0
    8db0:	0a000014 	beq	8e08 <full_except_install+0x148>
    8db4:	ee1c3f10 	mrc	15, 0, r3, cr12, cr0, {0}
    8db8:	e59f20a0 	ldr	r2, [pc, #160]	; 8e60 <full_except_install+0x1a0>
    8dbc:	e1530002 	cmp	r3, r2
    8dc0:	0affffc8 	beq	8ce8 <full_except_install+0x28>
    8dc4:	e3530000 	cmp	r3, #0, 0
    8dc8:	1a000016 	bne	8e28 <full_except_install+0x168>
    8dcc:	e59f308c 	ldr	r3, [pc, #140]	; 8e60 <full_except_install+0x1a0>
    8dd0:	ee0c3f10 	mcr	15, 0, r3, cr12, cr0, {0}
    8dd4:	e3a02000 	mov	r2, #0, 0
    8dd8:	ee072f95 	mcr	15, 0, r2, cr7, cr5, {4}
    8ddc:	ee1c2f10 	mrc	15, 0, r2, cr12, cr0, {0}
    8de0:	e1520003 	cmp	r2, r3
    8de4:	0affffbf 	beq	8ce8 <full_except_install+0x28>
    8de8:	e58d2004 	str	r2, [sp, #4]
    8dec:	e58d3000 	str	r3, [sp]
    8df0:	e3a03036 	mov	r3, #54, 0	; 0x36
    8df4:	e59f2068 	ldr	r2, [pc, #104]	; 8e64 <full_except_install+0x1a4>
    8df8:	e59f1068 	ldr	r1, [pc, #104]	; 8e68 <full_except_install+0x1a8>
    8dfc:	e59f0068 	ldr	r0, [pc, #104]	; 8e6c <full_except_install+0x1ac>
    8e00:	eb000177 	bl	93e4 <printk>
    8e04:	eb0002a6 	bl	98a4 <clean_reboot>
    8e08:	e59f3050 	ldr	r3, [pc, #80]	; 8e60 <full_except_install+0x1a0>
    8e0c:	e58d3000 	str	r3, [sp]
    8e10:	e3a03028 	mov	r3, #40, 0	; 0x28
    8e14:	e59f2048 	ldr	r2, [pc, #72]	; 8e64 <full_except_install+0x1a4>
    8e18:	e59f1048 	ldr	r1, [pc, #72]	; 8e68 <full_except_install+0x1a8>
    8e1c:	e59f004c 	ldr	r0, [pc, #76]	; 8e70 <full_except_install+0x1b0>
    8e20:	eb00016f 	bl	93e4 <printk>
    8e24:	eb00029e 	bl	98a4 <clean_reboot>
    8e28:	e58d3000 	str	r3, [sp]
    8e2c:	e3a03031 	mov	r3, #49, 0	; 0x31
    8e30:	e59f202c 	ldr	r2, [pc, #44]	; 8e64 <full_except_install+0x1a4>
    8e34:	e59f102c 	ldr	r1, [pc, #44]	; 8e68 <full_except_install+0x1a8>
    8e38:	e59f0034 	ldr	r0, [pc, #52]	; 8e74 <full_except_install+0x1b4>
    8e3c:	eb000168 	bl	93e4 <printk>
    8e40:	eb000297 	bl	98a4 <clean_reboot>
    8e44:	e58d3000 	str	r3, [sp]
    8e48:	e3a03089 	mov	r3, #137, 0	; 0x89
    8e4c:	e59f2024 	ldr	r2, [pc, #36]	; 8e78 <full_except_install+0x1b8>
    8e50:	e59f1024 	ldr	r1, [pc, #36]	; 8e7c <full_except_install+0x1bc>
    8e54:	e59f0024 	ldr	r0, [pc, #36]	; 8e80 <full_except_install+0x1c0>
    8e58:	eb000161 	bl	93e4 <printk>
    8e5c:	eb000290 	bl	98a4 <clean_reboot>
    8e60:	0000ad80 	.word	0x0000ad80
    8e64:	0000a49c 	.word	0x0000a49c
    8e68:	0000a35c 	.word	0x0000a35c
    8e6c:	0000a3cc 	.word	0x0000a3cc
    8e70:	0000a36c 	.word	0x0000a36c
    8e74:	0000a394 	.word	0x0000a394
    8e78:	0000a4ac 	.word	0x0000a4ac
    8e7c:	0000a1e0 	.word	0x0000a1e0
    8e80:	0000a3f8 	.word	0x0000a3f8

00008e84 <kmalloc_heap_end>:
    8e84:	e59f3004 	ldr	r3, [pc, #4]	; 8e90 <kmalloc_heap_end+0xc>
    8e88:	e5930000 	ldr	r0, [r3]
    8e8c:	e12fff1e 	bx	lr
    8e90:	0000b08c 	.word	0x0000b08c

00008e94 <kmalloc_heap_start>:
    8e94:	e59f3004 	ldr	r3, [pc, #4]	; 8ea0 <kmalloc_heap_start+0xc>
    8e98:	e5930004 	ldr	r0, [r3, #4]
    8e9c:	e12fff1e 	bx	lr
    8ea0:	0000b08c 	.word	0x0000b08c

00008ea4 <kmalloc_heap_ptr>:
    8ea4:	e59f3004 	ldr	r3, [pc, #4]	; 8eb0 <kmalloc_heap_ptr+0xc>
    8ea8:	e5930008 	ldr	r0, [r3, #8]
    8eac:	e12fff1e 	bx	lr
    8eb0:	0000b08c 	.word	0x0000b08c

00008eb4 <kmalloc_init_set_start>:
    8eb4:	e92d4030 	push	{r4, r5, lr}
    8eb8:	e24dd00c 	sub	sp, sp, #12, 0
    8ebc:	e1a04000 	mov	r4, r0
    8ec0:	e1a05001 	mov	r5, r1
    8ec4:	eb00027e 	bl	98c4 <program_end>
    8ec8:	e1540000 	cmp	r4, r0
    8ecc:	3a000010 	bcc	8f14 <kmalloc_init_set_start+0x60>
    8ed0:	e3550000 	cmp	r5, #0, 0
    8ed4:	0a000014 	beq	8f2c <kmalloc_init_set_start+0x78>
    8ed8:	e59f30ac 	ldr	r3, [pc, #172]	; 8f8c <kmalloc_init_set_start+0xd8>
    8edc:	e5933004 	ldr	r3, [r3, #4]
    8ee0:	e1530004 	cmp	r3, r4
    8ee4:	8a000018 	bhi	8f4c <kmalloc_init_set_start+0x98>
    8ee8:	e59f309c 	ldr	r3, [pc, #156]	; 8f8c <kmalloc_init_set_start+0xd8>
    8eec:	e5933008 	ldr	r3, [r3, #8]
    8ef0:	e1530004 	cmp	r3, r4
    8ef4:	8a00001a 	bhi	8f64 <kmalloc_init_set_start+0xb0>
    8ef8:	e59f308c 	ldr	r3, [pc, #140]	; 8f8c <kmalloc_init_set_start+0xd8>
    8efc:	e5834008 	str	r4, [r3, #8]
    8f00:	e5834004 	str	r4, [r3, #4]
    8f04:	e0844005 	add	r4, r4, r5
    8f08:	e5834000 	str	r4, [r3]
    8f0c:	e28dd00c 	add	sp, sp, #12, 0
    8f10:	e8bd8030 	pop	{r4, r5, pc}
    8f14:	e3a03030 	mov	r3, #48, 0	; 0x30
    8f18:	e59f2070 	ldr	r2, [pc, #112]	; 8f90 <kmalloc_init_set_start+0xdc>
    8f1c:	e59f1070 	ldr	r1, [pc, #112]	; 8f94 <kmalloc_init_set_start+0xe0>
    8f20:	e59f0070 	ldr	r0, [pc, #112]	; 8f98 <kmalloc_init_set_start+0xe4>
    8f24:	eb00012e 	bl	93e4 <printk>
    8f28:	eb00025d 	bl	98a4 <clean_reboot>
    8f2c:	e59f3068 	ldr	r3, [pc, #104]	; 8f9c <kmalloc_init_set_start+0xe8>
    8f30:	e58d3000 	str	r3, [sp]
    8f34:	e3a03032 	mov	r3, #50, 0	; 0x32
    8f38:	e59f2050 	ldr	r2, [pc, #80]	; 8f90 <kmalloc_init_set_start+0xdc>
    8f3c:	e59f1050 	ldr	r1, [pc, #80]	; 8f94 <kmalloc_init_set_start+0xe0>
    8f40:	e59f0058 	ldr	r0, [pc, #88]	; 8fa0 <kmalloc_init_set_start+0xec>
    8f44:	eb000126 	bl	93e4 <printk>
    8f48:	eb000255 	bl	98a4 <clean_reboot>
    8f4c:	e3a03034 	mov	r3, #52, 0	; 0x34
    8f50:	e59f2038 	ldr	r2, [pc, #56]	; 8f90 <kmalloc_init_set_start+0xdc>
    8f54:	e59f1038 	ldr	r1, [pc, #56]	; 8f94 <kmalloc_init_set_start+0xe0>
    8f58:	e59f0044 	ldr	r0, [pc, #68]	; 8fa4 <kmalloc_init_set_start+0xf0>
    8f5c:	eb000120 	bl	93e4 <printk>
    8f60:	eb00024f 	bl	98a4 <clean_reboot>
    8f64:	e59f3020 	ldr	r3, [pc, #32]	; 8f8c <kmalloc_init_set_start+0xd8>
    8f68:	e5933000 	ldr	r3, [r3]
    8f6c:	e58d3004 	str	r3, [sp, #4]
    8f70:	e58d4000 	str	r4, [sp]
    8f74:	e3a03038 	mov	r3, #56, 0	; 0x38
    8f78:	e59f2010 	ldr	r2, [pc, #16]	; 8f90 <kmalloc_init_set_start+0xdc>
    8f7c:	e59f1010 	ldr	r1, [pc, #16]	; 8f94 <kmalloc_init_set_start+0xe0>
    8f80:	e59f0020 	ldr	r0, [pc, #32]	; 8fa8 <kmalloc_init_set_start+0xf4>
    8f84:	eb000116 	bl	93e4 <printk>
    8f88:	eb000245 	bl	98a4 <clean_reboot>
    8f8c:	0000b08c 	.word	0x0000b08c
    8f90:	0000a6d0 	.word	0x0000a6d0
    8f94:	0000a4c0 	.word	0x0000a4c0
    8f98:	0000a4cc 	.word	0x0000a4cc
    8f9c:	0000a4f4 	.word	0x0000a4f4
    8fa0:	00009ee8 	.word	0x00009ee8
    8fa4:	0000a500 	.word	0x0000a500
    8fa8:	0000a54c 	.word	0x0000a54c

00008fac <kmalloc_notzero>:
    8fac:	e52de004 	push	{lr}		; (str lr, [sp, #-4]!)
    8fb0:	e24dd00c 	sub	sp, sp, #12, 0
    8fb4:	e3500000 	cmp	r0, #0, 0
    8fb8:	0a00000f 	beq	8ffc <kmalloc_notzero+0x50>
    8fbc:	e2800007 	add	r0, r0, #7, 0
    8fc0:	e3c03007 	bic	r3, r0, #7, 0
    8fc4:	e59f20ac 	ldr	r2, [pc, #172]	; 9078 <kmalloc_notzero+0xcc>
    8fc8:	e5920008 	ldr	r0, [r2, #8]
    8fcc:	e3100007 	tst	r0, #7, 0
    8fd0:	1a000011 	bne	901c <kmalloc_notzero+0x70>
    8fd4:	e3500000 	cmp	r0, #0, 0
    8fd8:	0a000017 	beq	903c <kmalloc_notzero+0x90>
    8fdc:	e0802003 	add	r2, r0, r3
    8fe0:	e59f1090 	ldr	r1, [pc, #144]	; 9078 <kmalloc_notzero+0xcc>
    8fe4:	e5812008 	str	r2, [r1, #8]
    8fe8:	e5911000 	ldr	r1, [r1]
    8fec:	e1520001 	cmp	r2, r1
    8ff0:	8a000017 	bhi	9054 <kmalloc_notzero+0xa8>
    8ff4:	e28dd00c 	add	sp, sp, #12, 0
    8ff8:	e49df004 	pop	{pc}		; (ldr pc, [sp], #4)
    8ffc:	e59f3078 	ldr	r3, [pc, #120]	; 907c <kmalloc_notzero+0xd0>
    9000:	e58d3000 	str	r3, [sp]
    9004:	e3a03041 	mov	r3, #65, 0	; 0x41
    9008:	e59f2070 	ldr	r2, [pc, #112]	; 9080 <kmalloc_notzero+0xd4>
    900c:	e59f1070 	ldr	r1, [pc, #112]	; 9084 <kmalloc_notzero+0xd8>
    9010:	e59f0070 	ldr	r0, [pc, #112]	; 9088 <kmalloc_notzero+0xdc>
    9014:	eb0000f2 	bl	93e4 <printk>
    9018:	eb000221 	bl	98a4 <clean_reboot>
    901c:	e59f3068 	ldr	r3, [pc, #104]	; 908c <kmalloc_notzero+0xe0>
    9020:	e58d3000 	str	r3, [sp]
    9024:	e3a03044 	mov	r3, #68, 0	; 0x44
    9028:	e59f2050 	ldr	r2, [pc, #80]	; 9080 <kmalloc_notzero+0xd4>
    902c:	e59f1050 	ldr	r1, [pc, #80]	; 9084 <kmalloc_notzero+0xd8>
    9030:	e59f0050 	ldr	r0, [pc, #80]	; 9088 <kmalloc_notzero+0xdc>
    9034:	eb0000ea 	bl	93e4 <printk>
    9038:	eb000219 	bl	98a4 <clean_reboot>
    903c:	e3a03048 	mov	r3, #72, 0	; 0x48
    9040:	e59f2038 	ldr	r2, [pc, #56]	; 9080 <kmalloc_notzero+0xd4>
    9044:	e59f1038 	ldr	r1, [pc, #56]	; 9084 <kmalloc_notzero+0xd8>
    9048:	e59f0040 	ldr	r0, [pc, #64]	; 9090 <kmalloc_notzero+0xe4>
    904c:	eb0000e4 	bl	93e4 <printk>
    9050:	eb000213 	bl	98a4 <clean_reboot>
    9054:	e0422001 	sub	r2, r2, r1
    9058:	e58d2004 	str	r2, [sp, #4]
    905c:	e58d3000 	str	r3, [sp]
    9060:	e3a0304c 	mov	r3, #76, 0	; 0x4c
    9064:	e59f2014 	ldr	r2, [pc, #20]	; 9080 <kmalloc_notzero+0xd4>
    9068:	e59f1014 	ldr	r1, [pc, #20]	; 9084 <kmalloc_notzero+0xd8>
    906c:	e59f0020 	ldr	r0, [pc, #32]	; 9094 <kmalloc_notzero+0xe8>
    9070:	eb0000db 	bl	93e4 <printk>
    9074:	eb00020a 	bl	98a4 <clean_reboot>
    9078:	0000b08c 	.word	0x0000b08c
    907c:	0000a4f8 	.word	0x0000a4f8
    9080:	0000a6e8 	.word	0x0000a6e8
    9084:	0000a4c0 	.word	0x0000a4c0
    9088:	00009ee8 	.word	0x00009ee8
    908c:	0000a590 	.word	0x0000a590
    9090:	0000a5a8 	.word	0x0000a5a8
    9094:	0000a5d4 	.word	0x0000a5d4

00009098 <kmalloc>:
    9098:	e92d4030 	push	{r4, r5, lr}
    909c:	e24dd00c 	sub	sp, sp, #12, 0
    90a0:	e2504000 	subs	r4, r0, #0, 0
    90a4:	0a000008 	beq	90cc <kmalloc+0x34>
    90a8:	e1a00004 	mov	r0, r4
    90ac:	ebffffbe 	bl	8fac <kmalloc_notzero>
    90b0:	e1a05000 	mov	r5, r0
    90b4:	e1a02004 	mov	r2, r4
    90b8:	e3a01000 	mov	r1, #0, 0
    90bc:	eb0000a0 	bl	9344 <memset>
    90c0:	e1a00005 	mov	r0, r5
    90c4:	e28dd00c 	add	sp, sp, #12, 0
    90c8:	e8bd8030 	pop	{r4, r5, pc}
    90cc:	e59f3018 	ldr	r3, [pc, #24]	; 90ec <kmalloc+0x54>
    90d0:	e58d3000 	str	r3, [sp]
    90d4:	e3a03054 	mov	r3, #84, 0	; 0x54
    90d8:	e59f2010 	ldr	r2, [pc, #16]	; 90f0 <kmalloc+0x58>
    90dc:	e59f1010 	ldr	r1, [pc, #16]	; 90f4 <kmalloc+0x5c>
    90e0:	e59f0010 	ldr	r0, [pc, #16]	; 90f8 <kmalloc+0x60>
    90e4:	eb0000be 	bl	93e4 <printk>
    90e8:	eb0001ed 	bl	98a4 <clean_reboot>
    90ec:	0000a4f8 	.word	0x0000a4f8
    90f0:	0000a6f8 	.word	0x0000a6f8
    90f4:	0000a4c0 	.word	0x0000a4c0
    90f8:	00009ee8 	.word	0x00009ee8

000090fc <kmalloc_aligned>:
    90fc:	e52de004 	push	{lr}		; (str lr, [sp, #-4]!)
    9100:	e24dd00c 	sub	sp, sp, #12, 0
    9104:	e3500000 	cmp	r0, #0, 0
    9108:	0a000014 	beq	9160 <kmalloc_aligned+0x64>
    910c:	e2613000 	rsb	r3, r1, #0, 0
    9110:	e1d13003 	bics	r3, r1, r3
    9114:	1a000019 	bne	9180 <kmalloc_aligned+0x84>
    9118:	e3510008 	cmp	r1, #8, 0
    911c:	33a01008 	movcc	r1, #8, 0
    9120:	e59f30b8 	ldr	r3, [pc, #184]	; 91e0 <kmalloc_aligned+0xe4>
    9124:	e5932008 	ldr	r2, [r3, #8]
    9128:	e2613000 	rsb	r3, r1, #0, 0
    912c:	e1d1c003 	bics	ip, r1, r3
    9130:	1a00001a 	bne	91a0 <kmalloc_aligned+0xa4>
    9134:	e0822001 	add	r2, r2, r1
    9138:	e2422001 	sub	r2, r2, #1, 0
    913c:	e0033002 	and	r3, r3, r2
    9140:	e2411001 	sub	r1, r1, #1, 0
    9144:	e1110003 	tst	r1, r3
    9148:	1a00001c 	bne	91c0 <kmalloc_aligned+0xc4>
    914c:	e59f208c 	ldr	r2, [pc, #140]	; 91e0 <kmalloc_aligned+0xe4>
    9150:	e5823008 	str	r3, [r2, #8]
    9154:	ebffffcf 	bl	9098 <kmalloc>
    9158:	e28dd00c 	add	sp, sp, #12, 0
    915c:	e49df004 	pop	{pc}		; (ldr pc, [sp], #4)
    9160:	e59f307c 	ldr	r3, [pc, #124]	; 91e4 <kmalloc_aligned+0xe8>
    9164:	e58d3000 	str	r3, [sp]
    9168:	e3a0305e 	mov	r3, #94, 0	; 0x5e
    916c:	e59f2074 	ldr	r2, [pc, #116]	; 91e8 <kmalloc_aligned+0xec>
    9170:	e59f1074 	ldr	r1, [pc, #116]	; 91ec <kmalloc_aligned+0xf0>
    9174:	e59f0074 	ldr	r0, [pc, #116]	; 91f0 <kmalloc_aligned+0xf4>
    9178:	eb000099 	bl	93e4 <printk>
    917c:	eb0001c8 	bl	98a4 <clean_reboot>
    9180:	e59f306c 	ldr	r3, [pc, #108]	; 91f4 <kmalloc_aligned+0xf8>
    9184:	e58d3000 	str	r3, [sp]
    9188:	e3a0305f 	mov	r3, #95, 0	; 0x5f
    918c:	e59f2054 	ldr	r2, [pc, #84]	; 91e8 <kmalloc_aligned+0xec>
    9190:	e59f1054 	ldr	r1, [pc, #84]	; 91ec <kmalloc_aligned+0xf0>
    9194:	e59f005c 	ldr	r0, [pc, #92]	; 91f8 <kmalloc_aligned+0xfc>
    9198:	eb000091 	bl	93e4 <printk>
    919c:	eb0001c0 	bl	98a4 <clean_reboot>
    91a0:	e59f3054 	ldr	r3, [pc, #84]	; 91fc <kmalloc_aligned+0x100>
    91a4:	e58d3000 	str	r3, [sp]
    91a8:	e3a03011 	mov	r3, #17, 0
    91ac:	e59f204c 	ldr	r2, [pc, #76]	; 9200 <kmalloc_aligned+0x104>
    91b0:	e59f1034 	ldr	r1, [pc, #52]	; 91ec <kmalloc_aligned+0xf0>
    91b4:	e59f0034 	ldr	r0, [pc, #52]	; 91f0 <kmalloc_aligned+0xf4>
    91b8:	eb000089 	bl	93e4 <printk>
    91bc:	eb0001b8 	bl	98a4 <clean_reboot>
    91c0:	e59f303c 	ldr	r3, [pc, #60]	; 9204 <kmalloc_aligned+0x108>
    91c4:	e58d3000 	str	r3, [sp]
    91c8:	e3a03066 	mov	r3, #102, 0	; 0x66
    91cc:	e59f2014 	ldr	r2, [pc, #20]	; 91e8 <kmalloc_aligned+0xec>
    91d0:	e59f1014 	ldr	r1, [pc, #20]	; 91ec <kmalloc_aligned+0xf0>
    91d4:	e59f002c 	ldr	r0, [pc, #44]	; 9208 <kmalloc_aligned+0x10c>
    91d8:	eb000081 	bl	93e4 <printk>
    91dc:	eb0001b0 	bl	98a4 <clean_reboot>
    91e0:	0000b08c 	.word	0x0000b08c
    91e4:	0000a4f8 	.word	0x0000a4f8
    91e8:	0000a700 	.word	0x0000a700
    91ec:	0000a4c0 	.word	0x0000a4c0
    91f0:	00009ee8 	.word	0x00009ee8
    91f4:	0000a65c 	.word	0x0000a65c
    91f8:	0000a61c 	.word	0x0000a61c
    91fc:	0000a670 	.word	0x0000a670
    9200:	0000a710 	.word	0x0000a710
    9204:	0000a6b4 	.word	0x0000a6b4
    9208:	0000a67c 	.word	0x0000a67c

0000920c <kfree_all>:
    920c:	e59f3008 	ldr	r3, [pc, #8]	; 921c <kfree_all+0x10>
    9210:	e5932004 	ldr	r2, [r3, #4]
    9214:	e5832008 	str	r2, [r3, #8]
    9218:	e12fff1e 	bx	lr
    921c:	0000b08c 	.word	0x0000b08c

00009220 <memcpy256>:
    9220:	e92d40f0 	push	{r4, r5, r6, r7, lr}
    9224:	e24dd00c 	sub	sp, sp, #12, 0
    9228:	e212401f 	ands	r4, r2, #31, 0
    922c:	01a06000 	moveq	r6, r0
    9230:	01a07001 	moveq	r7, r1
    9234:	01a052a2 	lsreq	r5, r2, #5
    9238:	0a00000f 	beq	927c <memcpy256+0x5c>
    923c:	e3a03020 	mov	r3, #32, 0
    9240:	e58d3004 	str	r3, [sp, #4]
    9244:	e58d2000 	str	r2, [sp]
    9248:	e3a0300f 	mov	r3, #15, 0
    924c:	e59f2038 	ldr	r2, [pc, #56]	; 928c <memcpy256+0x6c>
    9250:	e59f1038 	ldr	r1, [pc, #56]	; 9290 <memcpy256+0x70>
    9254:	e59f0038 	ldr	r0, [pc, #56]	; 9294 <memcpy256+0x74>
    9258:	eb000061 	bl	93e4 <printk>
    925c:	eb000190 	bl	98a4 <clean_reboot>
    9260:	e086c284 	add	ip, r6, r4, lsl #5
    9264:	e087e284 	add	lr, r7, r4, lsl #5
    9268:	e8be000f 	ldm	lr!, {r0, r1, r2, r3}
    926c:	e8ac000f 	stmia	ip!, {r0, r1, r2, r3}
    9270:	e89e000f 	ldm	lr, {r0, r1, r2, r3}
    9274:	e88c000f 	stm	ip, {r0, r1, r2, r3}
    9278:	e2844001 	add	r4, r4, #1, 0
    927c:	e1540005 	cmp	r4, r5
    9280:	3afffff6 	bcc	9260 <memcpy256+0x40>
    9284:	e28dd00c 	add	sp, sp, #12, 0
    9288:	e8bd80f0 	pop	{r4, r5, r6, r7, pc}
    928c:	0000a764 	.word	0x0000a764
    9290:	0000a718 	.word	0x0000a718
    9294:	0000a728 	.word	0x0000a728

00009298 <memcpy>:
    9298:	e3100007 	tst	r0, #7, 0
    929c:	1a00000f 	bne	92e0 <memcpy+0x48>
    92a0:	e3110007 	tst	r1, #7, 0
    92a4:	1a00000d 	bne	92e0 <memcpy+0x48>
    92a8:	e2123007 	ands	r3, r2, #7, 0
    92ac:	1a00000b 	bne	92e0 <memcpy+0x48>
    92b0:	e1a021a2 	lsr	r2, r2, #3
    92b4:	e1530002 	cmp	r3, r2
    92b8:	212fff1e 	bxcs	lr
    92bc:	e92d0030 	push	{r4, r5}
    92c0:	e1a0c183 	lsl	ip, r3, #3
    92c4:	e18140dc 	ldrd	r4, [r1, ip]
    92c8:	e18040fc 	strd	r4, [r0, ip]
    92cc:	e2833001 	add	r3, r3, #1, 0
    92d0:	e1530002 	cmp	r3, r2
    92d4:	3afffff9 	bcc	92c0 <memcpy+0x28>
    92d8:	e8bd0030 	pop	{r4, r5}
    92dc:	e12fff1e 	bx	lr
    92e0:	e2103003 	ands	r3, r0, #3, 0
    92e4:	1a000011 	bne	9330 <memcpy+0x98>
    92e8:	e211c003 	ands	ip, r1, #3, 0
    92ec:	1a00000c 	bne	9324 <memcpy+0x8c>
    92f0:	e2123003 	ands	r3, r2, #3, 0
    92f4:	1a00000f 	bne	9338 <memcpy+0xa0>
    92f8:	e1a02122 	lsr	r2, r2, #2
    92fc:	ea000002 	b	930c <memcpy+0x74>
    9300:	e791c103 	ldr	ip, [r1, r3, lsl #2]
    9304:	e780c103 	str	ip, [r0, r3, lsl #2]
    9308:	e2833001 	add	r3, r3, #1, 0
    930c:	e1530002 	cmp	r3, r2
    9310:	3afffffa 	bcc	9300 <memcpy+0x68>
    9314:	e12fff1e 	bx	lr
    9318:	e7d1c003 	ldrb	ip, [r1, r3]
    931c:	e7c0c003 	strb	ip, [r0, r3]
    9320:	e2833001 	add	r3, r3, #1, 0
    9324:	e1530002 	cmp	r3, r2
    9328:	3afffffa 	bcc	9318 <memcpy+0x80>
    932c:	e12fff1e 	bx	lr
    9330:	e3a03000 	mov	r3, #0, 0
    9334:	eafffffa 	b	9324 <memcpy+0x8c>
    9338:	e1a0300c 	mov	r3, ip
    933c:	eafffff8 	b	9324 <memcpy+0x8c>

00009340 <memcpy_end>:
    9340:	e12fff1e 	bx	lr

00009344 <memset>:
    9344:	e3520000 	cmp	r2, #0, 0
    9348:	012fff1e 	bxeq	lr
    934c:	e3510000 	cmp	r1, #0, 0
    9350:	1a000007 	bne	9374 <memset+0x30>
    9354:	e3100007 	tst	r0, #7, 0
    9358:	1a000001 	bne	9364 <memset+0x20>
    935c:	e3120007 	tst	r2, #7, 0
    9360:	0a000011 	beq	93ac <memset+0x68>
    9364:	e3100003 	tst	r0, #3, 0
    9368:	1a000001 	bne	9374 <memset+0x30>
    936c:	e3120003 	tst	r2, #3, 0
    9370:	0a000001 	beq	937c <memset+0x38>
    9374:	e0802002 	add	r2, r0, r2
    9378:	ea000008 	b	93a0 <memset+0x5c>
    937c:	e1a02122 	lsr	r2, r2, #2
    9380:	ea000001 	b	938c <memset+0x48>
    9384:	e4801004 	str	r1, [r0], #4
    9388:	e1a02003 	mov	r2, r3
    938c:	e2423001 	sub	r3, r2, #1, 0
    9390:	e3520000 	cmp	r2, #0, 0
    9394:	1afffffa 	bne	9384 <memset+0x40>
    9398:	e12fff1e 	bx	lr
    939c:	e4c01001 	strb	r1, [r0], #1
    93a0:	e1500002 	cmp	r0, r2
    93a4:	3afffffc 	bcc	939c <memset+0x58>
    93a8:	e12fff1e 	bx	lr
    93ac:	e1a021a2 	lsr	r2, r2, #3
    93b0:	e2423001 	sub	r3, r2, #1, 0
    93b4:	e3520000 	cmp	r2, #0, 0
    93b8:	012fff1e 	bxeq	lr
    93bc:	e92d0030 	push	{r4, r5}
    93c0:	e1a04001 	mov	r4, r1
    93c4:	e1a05fc1 	asr	r5, r1, #31
    93c8:	e0c040f8 	strd	r4, [r0], #8
    93cc:	e1a02003 	mov	r2, r3
    93d0:	e2433001 	sub	r3, r3, #1, 0
    93d4:	e3520000 	cmp	r2, #0, 0
    93d8:	1afffff8 	bne	93c0 <memset+0x7c>
    93dc:	e8bd0030 	pop	{r4, r5}
    93e0:	e12fff1e 	bx	lr

000093e4 <printk>:
    93e4:	e92d000f 	push	{r0, r1, r2, r3}
    93e8:	e52de004 	push	{lr}		; (str lr, [sp, #-4]!)
    93ec:	e24dd00c 	sub	sp, sp, #12, 0
    93f0:	e28d1014 	add	r1, sp, #20, 0
    93f4:	e58d1004 	str	r1, [sp, #4]
    93f8:	e59d0010 	ldr	r0, [sp, #16]
    93fc:	eb000047 	bl	9520 <vprintk>
    9400:	e28dd00c 	add	sp, sp, #12, 0
    9404:	e49de004 	pop	{lr}		; (ldr lr, [sp], #4)
    9408:	e28dd010 	add	sp, sp, #16, 0
    940c:	e12fff1e 	bx	lr

00009410 <emit_val>:
    9410:	e92d4010 	push	{r4, lr}
    9414:	e24dd030 	sub	sp, sp, #48, 0	; 0x30
    9418:	e350000a 	cmp	r0, #10, 0
    941c:	0a000014 	beq	9474 <emit_val+0x64>
    9420:	e3500010 	cmp	r0, #16, 0
    9424:	0a000022 	beq	94b4 <emit_val+0xa4>
    9428:	e3500002 	cmp	r0, #2, 0
    942c:	0a000006 	beq	944c <emit_val+0x3c>
    9430:	e58d0000 	str	r0, [sp]
    9434:	e3a0301b 	mov	r3, #27, 0
    9438:	e59f20c0 	ldr	r2, [pc, #192]	; 9500 <emit_val+0xf0>
    943c:	e59f10c0 	ldr	r1, [pc, #192]	; 9504 <emit_val+0xf4>
    9440:	e59f00c0 	ldr	r0, [pc, #192]	; 9508 <emit_val+0xf8>
    9444:	ebffffe6 	bl	93e4 <printk>
    9448:	eb000115 	bl	98a4 <clean_reboot>
    944c:	e28d400c 	add	r4, sp, #12, 0
    9450:	e2012001 	and	r2, r1, #1, 0
    9454:	e59f00b0 	ldr	r0, [pc, #176]	; 950c <emit_val+0xfc>
    9458:	e7d02002 	ldrb	r2, [r0, r2]
    945c:	e5c42000 	strb	r2, [r4]
    9460:	e2844001 	add	r4, r4, #1, 0
    9464:	e3510001 	cmp	r1, #1, 0
    9468:	e1a010a1 	lsr	r1, r1, #1
    946c:	8afffff7 	bhi	9450 <emit_val+0x40>
    9470:	ea00001d 	b	94ec <emit_val+0xdc>
    9474:	e28d400c 	add	r4, sp, #12, 0
    9478:	e59f3090 	ldr	r3, [pc, #144]	; 9510 <emit_val+0x100>
    947c:	e0832193 	umull	r2, r3, r3, r1
    9480:	e1a031a3 	lsr	r3, r3, #3
    9484:	e1a00003 	mov	r0, r3
    9488:	e0833103 	add	r3, r3, r3, lsl #2
    948c:	e0413083 	sub	r3, r1, r3, lsl #1
    9490:	e59fc07c 	ldr	ip, [pc, #124]	; 9514 <emit_val+0x104>
    9494:	e7dcc003 	ldrb	ip, [ip, r3]
    9498:	e5c4c000 	strb	ip, [r4]
    949c:	e2844001 	add	r4, r4, #1, 0
    94a0:	e1a03001 	mov	r3, r1
    94a4:	e1a01000 	mov	r1, r0
    94a8:	e3530009 	cmp	r3, #9, 0
    94ac:	8afffff1 	bhi	9478 <emit_val+0x68>
    94b0:	ea00000d 	b	94ec <emit_val+0xdc>
    94b4:	e28d400c 	add	r4, sp, #12, 0
    94b8:	e201200f 	and	r2, r1, #15, 0
    94bc:	e59f0054 	ldr	r0, [pc, #84]	; 9518 <emit_val+0x108>
    94c0:	e7d02002 	ldrb	r2, [r0, r2]
    94c4:	e5c42000 	strb	r2, [r4]
    94c8:	e2844001 	add	r4, r4, #1, 0
    94cc:	e351000f 	cmp	r1, #15, 0
    94d0:	e1a01221 	lsr	r1, r1, #4
    94d4:	8afffff7 	bhi	94b8 <emit_val+0xa8>
    94d8:	ea000003 	b	94ec <emit_val+0xdc>
    94dc:	e59f3038 	ldr	r3, [pc, #56]	; 951c <emit_val+0x10c>
    94e0:	e5933000 	ldr	r3, [r3]
    94e4:	e5740001 	ldrb	r0, [r4, #-1]!
    94e8:	e12fff33 	blx	r3
    94ec:	e28d300c 	add	r3, sp, #12, 0
    94f0:	e1540003 	cmp	r4, r3
    94f4:	8afffff8 	bhi	94dc <emit_val+0xcc>
    94f8:	e28dd030 	add	sp, sp, #48, 0	; 0x30
    94fc:	e8bd8010 	pop	{r4, pc}
    9500:	0000a828 	.word	0x0000a828
    9504:	0000a770 	.word	0x0000a770
    9508:	0000a780 	.word	0x0000a780
    950c:	0000a7a4 	.word	0x0000a7a4
    9510:	cccccccd 	.word	0xcccccccd
    9514:	0000a7a8 	.word	0x0000a7a8
    9518:	0000a7b4 	.word	0x0000a7b4
    951c:	0000b07c 	.word	0x0000b07c

00009520 <vprintk>:
    9520:	e92d4030 	push	{r4, r5, lr}
    9524:	e24dd014 	sub	sp, sp, #20, 0
    9528:	e1a04000 	mov	r4, r0
    952c:	e58d100c 	str	r1, [sp, #12]
    9530:	ea000003 	b	9544 <vprintk+0x24>
    9534:	e59f3288 	ldr	r3, [pc, #648]	; 97c4 <vprintk+0x2a4>
    9538:	e5933000 	ldr	r3, [r3]
    953c:	e12fff33 	blx	r3
    9540:	e2844001 	add	r4, r4, #1, 0
    9544:	e5d40000 	ldrb	r0, [r4]
    9548:	e3500000 	cmp	r0, #0, 0
    954c:	0a00009a 	beq	97bc <vprintk+0x29c>
    9550:	e3500025 	cmp	r0, #37, 0	; 0x25
    9554:	1afffff6 	bne	9534 <vprintk+0x14>
    9558:	e2845001 	add	r5, r4, #1, 0
    955c:	e5d42001 	ldrb	r2, [r4, #1]
    9560:	e2423062 	sub	r3, r2, #98, 0	; 0x62
    9564:	e3530016 	cmp	r3, #22, 0
    9568:	979ff103 	ldrls	pc, [pc, r3, lsl #2]
    956c:	ea00008b 	b	97a0 <vprintk+0x280>
    9570:	000095cc 	.word	0x000095cc
    9574:	0000960c 	.word	0x0000960c
    9578:	00009724 	.word	0x00009724
    957c:	000097a0 	.word	0x000097a0
    9580:	000097a0 	.word	0x000097a0
    9584:	000097a0 	.word	0x000097a0
    9588:	000097a0 	.word	0x000097a0
    958c:	000097a0 	.word	0x000097a0
    9590:	000097a0 	.word	0x000097a0
    9594:	000097a0 	.word	0x000097a0
    9598:	00009630 	.word	0x00009630
    959c:	000097a0 	.word	0x000097a0
    95a0:	000097a0 	.word	0x000097a0
    95a4:	000097a0 	.word	0x000097a0
    95a8:	000096e8 	.word	0x000096e8
    95ac:	000097a0 	.word	0x000097a0
    95b0:	000097a0 	.word	0x000097a0
    95b4:	00009768 	.word	0x00009768
    95b8:	000097a0 	.word	0x000097a0
    95bc:	000095ec 	.word	0x000095ec
    95c0:	000097a0 	.word	0x000097a0
    95c4:	000097a0 	.word	0x000097a0
    95c8:	000096e8 	.word	0x000096e8
    95cc:	e59d300c 	ldr	r3, [sp, #12]
    95d0:	e2832004 	add	r2, r3, #4, 0
    95d4:	e58d200c 	str	r2, [sp, #12]
    95d8:	e5931000 	ldr	r1, [r3]
    95dc:	e3a00002 	mov	r0, #2, 0
    95e0:	ebffff8a 	bl	9410 <emit_val>
    95e4:	e1a04005 	mov	r4, r5
    95e8:	eaffffd4 	b	9540 <vprintk+0x20>
    95ec:	e59d300c 	ldr	r3, [sp, #12]
    95f0:	e2832004 	add	r2, r3, #4, 0
    95f4:	e58d200c 	str	r2, [sp, #12]
    95f8:	e5931000 	ldr	r1, [r3]
    95fc:	e3a0000a 	mov	r0, #10, 0
    9600:	ebffff82 	bl	9410 <emit_val>
    9604:	e1a04005 	mov	r4, r5
    9608:	eaffffcc 	b	9540 <vprintk+0x20>
    960c:	e59f31b0 	ldr	r3, [pc, #432]	; 97c4 <vprintk+0x2a4>
    9610:	e5932000 	ldr	r2, [r3]
    9614:	e59d300c 	ldr	r3, [sp, #12]
    9618:	e2831004 	add	r1, r3, #4, 0
    961c:	e58d100c 	str	r1, [sp, #12]
    9620:	e5930000 	ldr	r0, [r3]
    9624:	e12fff32 	blx	r2
    9628:	e1a04005 	mov	r4, r5
    962c:	eaffffc3 	b	9540 <vprintk+0x20>
    9630:	e2842002 	add	r2, r4, #2, 0
    9634:	e5d43002 	ldrb	r3, [r4, #2]
    9638:	e353006c 	cmp	r3, #108, 0	; 0x6c
    963c:	1a000018 	bne	96a4 <vprintk+0x184>
    9640:	e2845003 	add	r5, r4, #3, 0
    9644:	e5d43003 	ldrb	r3, [r4, #3]
    9648:	e3530078 	cmp	r3, #120, 0	; 0x78
    964c:	1a00001b 	bne	96c0 <vprintk+0x1a0>
    9650:	e59f416c 	ldr	r4, [pc, #364]	; 97c4 <vprintk+0x2a4>
    9654:	e5943000 	ldr	r3, [r4]
    9658:	e3a00030 	mov	r0, #48, 0	; 0x30
    965c:	e12fff33 	blx	r3
    9660:	e5943000 	ldr	r3, [r4]
    9664:	e3a00078 	mov	r0, #120, 0	; 0x78
    9668:	e12fff33 	blx	r3
    966c:	e59d300c 	ldr	r3, [sp, #12]
    9670:	e2833007 	add	r3, r3, #7, 0
    9674:	e3c33007 	bic	r3, r3, #7, 0
    9678:	e2832008 	add	r2, r3, #8, 0
    967c:	e58d200c 	str	r2, [sp, #12]
    9680:	e5934000 	ldr	r4, [r3]
    9684:	e5931004 	ldr	r1, [r3, #4]
    9688:	e3510000 	cmp	r1, #0, 0
    968c:	1a000012 	bne	96dc <vprintk+0x1bc>
    9690:	e1a01004 	mov	r1, r4
    9694:	e3a00010 	mov	r0, #16, 0
    9698:	ebffff5c 	bl	9410 <emit_val>
    969c:	e1a04005 	mov	r4, r5
    96a0:	eaffffa6 	b	9540 <vprintk+0x20>
    96a4:	e58d2000 	str	r2, [sp]
    96a8:	e3a0303b 	mov	r3, #59, 0	; 0x3b
    96ac:	e59f2114 	ldr	r2, [pc, #276]	; 97c8 <vprintk+0x2a8>
    96b0:	e59f1114 	ldr	r1, [pc, #276]	; 97cc <vprintk+0x2ac>
    96b4:	e59f0114 	ldr	r0, [pc, #276]	; 97d0 <vprintk+0x2b0>
    96b8:	ebffff49 	bl	93e4 <printk>
    96bc:	eb000078 	bl	98a4 <clean_reboot>
    96c0:	e58d5000 	str	r5, [sp]
    96c4:	e3a0303e 	mov	r3, #62, 0	; 0x3e
    96c8:	e59f20f8 	ldr	r2, [pc, #248]	; 97c8 <vprintk+0x2a8>
    96cc:	e59f10f8 	ldr	r1, [pc, #248]	; 97cc <vprintk+0x2ac>
    96d0:	e59f00f8 	ldr	r0, [pc, #248]	; 97d0 <vprintk+0x2b0>
    96d4:	ebffff42 	bl	93e4 <printk>
    96d8:	eb000071 	bl	98a4 <clean_reboot>
    96dc:	e3a00010 	mov	r0, #16, 0
    96e0:	ebffff4a 	bl	9410 <emit_val>
    96e4:	eaffffe9 	b	9690 <vprintk+0x170>
    96e8:	e59f40d4 	ldr	r4, [pc, #212]	; 97c4 <vprintk+0x2a4>
    96ec:	e5943000 	ldr	r3, [r4]
    96f0:	e3a00030 	mov	r0, #48, 0	; 0x30
    96f4:	e12fff33 	blx	r3
    96f8:	e5943000 	ldr	r3, [r4]
    96fc:	e3a00078 	mov	r0, #120, 0	; 0x78
    9700:	e12fff33 	blx	r3
    9704:	e59d300c 	ldr	r3, [sp, #12]
    9708:	e2832004 	add	r2, r3, #4, 0
    970c:	e58d200c 	str	r2, [sp, #12]
    9710:	e5931000 	ldr	r1, [r3]
    9714:	e3a00010 	mov	r0, #16, 0
    9718:	ebffff3c 	bl	9410 <emit_val>
    971c:	e1a04005 	mov	r4, r5
    9720:	eaffff86 	b	9540 <vprintk+0x20>
    9724:	e59d300c 	ldr	r3, [sp, #12]
    9728:	e2832004 	add	r2, r3, #4, 0
    972c:	e58d200c 	str	r2, [sp, #12]
    9730:	e5934000 	ldr	r4, [r3]
    9734:	e3540000 	cmp	r4, #0, 0
    9738:	ba000004 	blt	9750 <vprintk+0x230>
    973c:	e1a01004 	mov	r1, r4
    9740:	e3a0000a 	mov	r0, #10, 0
    9744:	ebffff31 	bl	9410 <emit_val>
    9748:	e1a04005 	mov	r4, r5
    974c:	eaffff7b 	b	9540 <vprintk+0x20>
    9750:	e59f306c 	ldr	r3, [pc, #108]	; 97c4 <vprintk+0x2a4>
    9754:	e5933000 	ldr	r3, [r3]
    9758:	e3a0002d 	mov	r0, #45, 0	; 0x2d
    975c:	e12fff33 	blx	r3
    9760:	e2644000 	rsb	r4, r4, #0, 0
    9764:	eafffff4 	b	973c <vprintk+0x21c>
    9768:	e59d300c 	ldr	r3, [sp, #12]
    976c:	e2832004 	add	r2, r3, #4, 0
    9770:	e58d200c 	str	r2, [sp, #12]
    9774:	e5934000 	ldr	r4, [r3]
    9778:	e5d40000 	ldrb	r0, [r4]
    977c:	e3500000 	cmp	r0, #0, 0
    9780:	0a000004 	beq	9798 <vprintk+0x278>
    9784:	e59f3038 	ldr	r3, [pc, #56]	; 97c4 <vprintk+0x2a4>
    9788:	e5933000 	ldr	r3, [r3]
    978c:	e12fff33 	blx	r3
    9790:	e2844001 	add	r4, r4, #1, 0
    9794:	eafffff7 	b	9778 <vprintk+0x258>
    9798:	e1a04005 	mov	r4, r5
    979c:	eaffff67 	b	9540 <vprintk+0x20>
    97a0:	e58d2000 	str	r2, [sp]
    97a4:	e3a03062 	mov	r3, #98, 0	; 0x62
    97a8:	e59f2018 	ldr	r2, [pc, #24]	; 97c8 <vprintk+0x2a8>
    97ac:	e59f1018 	ldr	r1, [pc, #24]	; 97cc <vprintk+0x2ac>
    97b0:	e59f001c 	ldr	r0, [pc, #28]	; 97d4 <vprintk+0x2b4>
    97b4:	ebffff0a 	bl	93e4 <printk>
    97b8:	eb000039 	bl	98a4 <clean_reboot>
    97bc:	e28dd014 	add	sp, sp, #20, 0
    97c0:	e8bd8030 	pop	{r4, r5, pc}
    97c4:	0000b07c 	.word	0x0000b07c
    97c8:	0000a834 	.word	0x0000a834
    97cc:	0000a770 	.word	0x0000a770
    97d0:	0000a7c8 	.word	0x0000a7c8
    97d4:	0000a800 	.word	0x0000a800

000097d8 <default_putchar>:
    97d8:	e92d4010 	push	{r4, lr}
    97dc:	e1a04000 	mov	r4, r0
    97e0:	e6ef0070 	uxtb	r0, r0
    97e4:	eb000101 	bl	9bf0 <uart_put8>
    97e8:	e1a00004 	mov	r0, r4
    97ec:	e8bd8010 	pop	{r4, pc}

000097f0 <rpi_putchar_set>:
    97f0:	e59f300c 	ldr	r3, [pc, #12]	; 9804 <rpi_putchar_set+0x14>
    97f4:	e5932000 	ldr	r2, [r3]
    97f8:	e5830000 	str	r0, [r3]
    97fc:	e1a00002 	mov	r0, r2
    9800:	e12fff1e 	bx	lr
    9804:	0000b07c 	.word	0x0000b07c

00009808 <asm_not_reached_helper>:
    9808:	e92d4010 	push	{r4, lr}
    980c:	e1a04000 	mov	r4, r0
    9810:	e59f0010 	ldr	r0, [pc, #16]	; 9828 <asm_not_reached_helper+0x20>
    9814:	ebfffef2 	bl	93e4 <printk>
    9818:	e1a01004 	mov	r1, r4
    981c:	e59f0008 	ldr	r0, [pc, #8]	; 982c <asm_not_reached_helper+0x24>
    9820:	ebfffeef 	bl	93e4 <printk>
    9824:	eb00001e 	bl	98a4 <clean_reboot>
    9828:	0000a83c 	.word	0x0000a83c
    982c:	0000a870 	.word	0x0000a870

00009830 <asm_not_implemented_helper>:
    9830:	e92d4010 	push	{r4, lr}
    9834:	e1a04000 	mov	r4, r0
    9838:	e59f0010 	ldr	r0, [pc, #16]	; 9850 <asm_not_implemented_helper+0x20>
    983c:	ebfffee8 	bl	93e4 <printk>
    9840:	e1a01004 	mov	r1, r4
    9844:	e59f0008 	ldr	r0, [pc, #8]	; 9854 <asm_not_implemented_helper+0x24>
    9848:	ebfffee5 	bl	93e4 <printk>
    984c:	eb000014 	bl	98a4 <clean_reboot>
    9850:	0000a8a4 	.word	0x0000a8a4
    9854:	0000a870 	.word	0x0000a870

00009858 <asm_todo_helper>:
    9858:	e92d4010 	push	{r4, lr}
    985c:	e1a04001 	mov	r4, r1
    9860:	e59f0018 	ldr	r0, [pc, #24]	; 9880 <asm_todo_helper+0x28>
    9864:	ebfffede 	bl	93e4 <printk>
    9868:	e59f0014 	ldr	r0, [pc, #20]	; 9884 <asm_todo_helper+0x2c>
    986c:	ebfffedc 	bl	93e4 <printk>
    9870:	e1a01004 	mov	r1, r4
    9874:	e59f000c 	ldr	r0, [pc, #12]	; 9888 <asm_todo_helper+0x30>
    9878:	ebfffed9 	bl	93e4 <printk>
    987c:	eb000008 	bl	98a4 <clean_reboot>
    9880:	0000a8d0 	.word	0x0000a8d0
    9884:	0000a908 	.word	0x0000a908
    9888:	0000a93c 	.word	0x0000a93c

0000988c <asm_bad_exception_helper>:
    988c:	e92d4010 	push	{r4, lr}
    9890:	e1a02000 	mov	r2, r0
    9894:	e59f0004 	ldr	r0, [pc, #4]	; 98a0 <asm_bad_exception_helper+0x14>
    9898:	ebfffed1 	bl	93e4 <printk>
    989c:	eb000000 	bl	98a4 <clean_reboot>
    98a0:	0000a944 	.word	0x0000a944

000098a4 <clean_reboot>:
    98a4:	e92d4010 	push	{r4, lr}
    98a8:	e59f0010 	ldr	r0, [pc, #16]	; 98c0 <clean_reboot+0x1c>
    98ac:	eb000118 	bl	9d14 <putk>
    98b0:	eb000101 	bl	9cbc <uart_flush_tx>
    98b4:	e3a0000a 	mov	r0, #10, 0
    98b8:	eb000087 	bl	9adc <delay_ms>
    98bc:	eb000063 	bl	9a50 <rpi_reboot>
    98c0:	0000a964 	.word	0x0000a964

000098c4 <program_end>:
    98c4:	e59f0000 	ldr	r0, [pc]	; 98cc <program_end+0x8>
    98c8:	e12fff1e 	bx	lr
    98cc:	0000b098 	.word	0x0000b098

000098d0 <_cstart>:
    98d0:	e92d4030 	push	{r4, r5, lr}
    98d4:	e24dd00c 	sub	sp, sp, #12, 0
    98d8:	e59f3098 	ldr	r3, [pc, #152]	; 9978 <_cstart+0xa8>
    98dc:	e59f2098 	ldr	r2, [pc, #152]	; 997c <_cstart+0xac>
    98e0:	e1530002 	cmp	r3, r2
    98e4:	33a02000 	movcc	r2, #0, 0
    98e8:	34c32001 	strbcc	r2, [r3], #1
    98ec:	3afffffa 	bcc	98dc <_cstart+0xc>
    98f0:	eb000085 	bl	9b0c <uart_init>
    98f4:	e3a03001 	mov	r3, #1, 0
    98f8:	ee0f3f1c 	mcr	15, 0, r3, cr15, cr12, {0}
    98fc:	e3a02a01 	mov	r2, #4096	; 0x1000
    9900:	e3a01000 	mov	r1, #0, 0
    9904:	e1a00001 	mov	r0, r1
    9908:	ebfffe8d 	bl	9344 <memset>
    990c:	e3a04000 	mov	r4, #0, 0
    9910:	e1a05004 	mov	r5, r4
    9914:	ea000005 	b	9930 <_cstart+0x60>
    9918:	e2855001 	add	r5, r5, #1, 0
    991c:	e5912000 	ldr	r2, [r1]
    9920:	e1a03005 	mov	r3, r5
    9924:	e59f0054 	ldr	r0, [pc, #84]	; 9980 <_cstart+0xb0>
    9928:	ebfffead 	bl	93e4 <printk>
    992c:	e2844001 	add	r4, r4, #1, 0
    9930:	e3540b01 	cmp	r4, #1024	; 0x400
    9934:	2a000004 	bcs	994c <_cstart+0x7c>
    9938:	e1a01104 	lsl	r1, r4, #2
    993c:	e5913000 	ldr	r3, [r1]
    9940:	e3530000 	cmp	r3, #0, 0
    9944:	0afffff8 	beq	992c <_cstart+0x5c>
    9948:	eafffff2 	b	9918 <_cstart+0x48>
    994c:	e3550000 	cmp	r5, #0, 0
    9950:	1a000001 	bne	995c <_cstart+0x8c>
    9954:	ebfff9b7 	bl	8038 <notmain>
    9958:	ebffffd1 	bl	98a4 <clean_reboot>
    995c:	e58d5000 	str	r5, [sp]
    9960:	e3a0301b 	mov	r3, #27, 0
    9964:	e59f2018 	ldr	r2, [pc, #24]	; 9984 <_cstart+0xb4>
    9968:	e59f1018 	ldr	r1, [pc, #24]	; 9988 <_cstart+0xb8>
    996c:	e59f0018 	ldr	r0, [pc, #24]	; 998c <_cstart+0xbc>
    9970:	ebfffe9b 	bl	93e4 <printk>
    9974:	ebffffca 	bl	98a4 <clean_reboot>
    9978:	0000b080 	.word	0x0000b080
    997c:	0000b098 	.word	0x0000b098
    9980:	0000a970 	.word	0x0000a970
    9984:	0000aa0c 	.word	0x0000aa0c
    9988:	0000a99c 	.word	0x0000a99c
    998c:	0000a9dc 	.word	0x0000a9dc

00009990 <int_vector>:
    9990:	e52de004 	push	{lr}		; (str lr, [sp, #-4]!)
    9994:	e24dd00c 	sub	sp, sp, #12, 0
    9998:	e58d0000 	str	r0, [sp]
    999c:	e3a03003 	mov	r3, #3, 0
    99a0:	e59f200c 	ldr	r2, [pc, #12]	; 99b4 <int_vector+0x24>
    99a4:	e59f100c 	ldr	r1, [pc, #12]	; 99b8 <int_vector+0x28>
    99a8:	e59f000c 	ldr	r0, [pc, #12]	; 99bc <int_vector+0x2c>
    99ac:	ebfffe8c 	bl	93e4 <printk>
    99b0:	ebffffbb 	bl	98a4 <clean_reboot>
    99b4:	0000aa6c 	.word	0x0000aa6c
    99b8:	0000aa1c 	.word	0x0000aa1c
    99bc:	0000aa40 	.word	0x0000aa40

000099c0 <prefetch_abort_vector>:
    99c0:	e52de004 	push	{lr}		; (str lr, [sp, #-4]!)
    99c4:	e24dd00c 	sub	sp, sp, #12, 0
    99c8:	e58d0000 	str	r0, [sp]
    99cc:	e3a03003 	mov	r3, #3, 0
    99d0:	e59f200c 	ldr	r2, [pc, #12]	; 99e4 <prefetch_abort_vector+0x24>
    99d4:	e59f100c 	ldr	r1, [pc, #12]	; 99e8 <prefetch_abort_vector+0x28>
    99d8:	e59f000c 	ldr	r0, [pc, #12]	; 99ec <prefetch_abort_vector+0x2c>
    99dc:	ebfffe80 	bl	93e4 <printk>
    99e0:	ebffffaf 	bl	98a4 <clean_reboot>
    99e4:	0000aad0 	.word	0x0000aad0
    99e8:	0000aa78 	.word	0x0000aa78
    99ec:	0000aaa0 	.word	0x0000aaa0

000099f0 <reset_vector>:
    99f0:	e52de004 	push	{lr}		; (str lr, [sp, #-4]!)
    99f4:	e24dd00c 	sub	sp, sp, #12, 0
    99f8:	e58d0000 	str	r0, [sp]
    99fc:	e3a03003 	mov	r3, #3, 0
    9a00:	e59f200c 	ldr	r2, [pc, #12]	; 9a14 <reset_vector+0x24>
    9a04:	e59f100c 	ldr	r1, [pc, #12]	; 9a18 <reset_vector+0x28>
    9a08:	e59f000c 	ldr	r0, [pc, #12]	; 9a1c <reset_vector+0x2c>
    9a0c:	ebfffe74 	bl	93e4 <printk>
    9a10:	ebffffa3 	bl	98a4 <clean_reboot>
    9a14:	0000ab40 	.word	0x0000ab40
    9a18:	0000aae8 	.word	0x0000aae8
    9a1c:	0000ab0c 	.word	0x0000ab0c

00009a20 <undefined_instruction_vector>:
    9a20:	e52de004 	push	{lr}		; (str lr, [sp, #-4]!)
    9a24:	e24dd00c 	sub	sp, sp, #12, 0
    9a28:	e58d0000 	str	r0, [sp]
    9a2c:	e3a03003 	mov	r3, #3, 0
    9a30:	e59f200c 	ldr	r2, [pc, #12]	; 9a44 <undefined_instruction_vector+0x24>
    9a34:	e59f100c 	ldr	r1, [pc, #12]	; 9a48 <undefined_instruction_vector+0x28>
    9a38:	e59f000c 	ldr	r0, [pc, #12]	; 9a4c <undefined_instruction_vector+0x2c>
    9a3c:	ebfffe68 	bl	93e4 <printk>
    9a40:	ebffff97 	bl	98a4 <clean_reboot>
    9a44:	0000abbc 	.word	0x0000abbc
    9a48:	0000ab50 	.word	0x0000ab50
    9a4c:	0000ab80 	.word	0x0000ab80

00009a50 <rpi_reboot>:
    9a50:	e92d4010 	push	{r4, lr}
    9a54:	e3a0000a 	mov	r0, #10, 0
    9a58:	eb00001f 	bl	9adc <delay_ms>
    9a5c:	e59f1014 	ldr	r1, [pc, #20]	; 9a78 <rpi_reboot+0x28>
    9a60:	e59f0014 	ldr	r0, [pc, #20]	; 9a7c <rpi_reboot+0x2c>
    9a64:	ebfff96e 	bl	8024 <PUT32>
    9a68:	e59f1010 	ldr	r1, [pc, #16]	; 9a80 <rpi_reboot+0x30>
    9a6c:	e59f0010 	ldr	r0, [pc, #16]	; 9a84 <rpi_reboot+0x34>
    9a70:	ebfff96b 	bl	8024 <PUT32>
    9a74:	eafffffe 	b	9a74 <rpi_reboot+0x24>
    9a78:	5a000001 	.word	0x5a000001
    9a7c:	20100024 	.word	0x20100024
    9a80:	5a000020 	.word	0x5a000020
    9a84:	2010001c 	.word	0x2010001c

00009a88 <timer_get_usec_raw>:
    9a88:	e92d4010 	push	{r4, lr}
    9a8c:	e59f0004 	ldr	r0, [pc, #4]	; 9a98 <timer_get_usec_raw+0x10>
    9a90:	ebfff965 	bl	802c <GET32>
    9a94:	e8bd8010 	pop	{r4, pc}
    9a98:	20003004 	.word	0x20003004

00009a9c <timer_get_usec>:
    9a9c:	e92d4010 	push	{r4, lr}
    9aa0:	eb0000a8 	bl	9d48 <dev_barrier>
    9aa4:	ebfffff7 	bl	9a88 <timer_get_usec_raw>
    9aa8:	e1a04000 	mov	r4, r0
    9aac:	eb0000a5 	bl	9d48 <dev_barrier>
    9ab0:	e1a00004 	mov	r0, r4
    9ab4:	e8bd8010 	pop	{r4, pc}

00009ab8 <delay_us>:
    9ab8:	e92d4070 	push	{r4, r5, r6, lr}
    9abc:	e1a05000 	mov	r5, r0
    9ac0:	ebfffff5 	bl	9a9c <timer_get_usec>
    9ac4:	e1a04000 	mov	r4, r0
    9ac8:	ebfffff3 	bl	9a9c <timer_get_usec>
    9acc:	e0400004 	sub	r0, r0, r4
    9ad0:	e1500005 	cmp	r0, r5
    9ad4:	3afffffb 	bcc	9ac8 <delay_us+0x10>
    9ad8:	e8bd8070 	pop	{r4, r5, r6, pc}

00009adc <delay_ms>:
    9adc:	e92d4010 	push	{r4, lr}
    9ae0:	e0603280 	rsb	r3, r0, r0, lsl #5
    9ae4:	e0800103 	add	r0, r0, r3, lsl #2
    9ae8:	e1a00180 	lsl	r0, r0, #3
    9aec:	ebfffff1 	bl	9ab8 <delay_us>
    9af0:	e8bd8010 	pop	{r4, pc}

00009af4 <delay_sec>:
    9af4:	e92d4010 	push	{r4, lr}
    9af8:	e0603280 	rsb	r3, r0, r0, lsl #5
    9afc:	e0800103 	add	r0, r0, r3, lsl #2
    9b00:	e1a00180 	lsl	r0, r0, #3
    9b04:	ebfffff4 	bl	9adc <delay_ms>
    9b08:	e8bd8010 	pop	{r4, pc}

00009b0c <uart_init>:
    9b0c:	e92d4010 	push	{r4, lr}
    9b10:	e24dd008 	sub	sp, sp, #8, 0
    9b14:	eb00008b 	bl	9d48 <dev_barrier>
    9b18:	e3a01002 	mov	r1, #2, 0
    9b1c:	e3a0000e 	mov	r0, #14, 0
    9b20:	eb0000be 	bl	9e20 <gpio_set_function>
    9b24:	e3a01002 	mov	r1, #2, 0
    9b28:	e3a0000f 	mov	r0, #15, 0
    9b2c:	eb0000bb 	bl	9e20 <gpio_set_function>
    9b30:	eb000084 	bl	9d48 <dev_barrier>
    9b34:	e59f4080 	ldr	r4, [pc, #128]	; 9bbc <uart_init+0xb0>
    9b38:	e1a00004 	mov	r0, r4
    9b3c:	ebfff93a 	bl	802c <GET32>
    9b40:	e58d0004 	str	r0, [sp, #4]
    9b44:	e59d1004 	ldr	r1, [sp, #4]
    9b48:	e3811001 	orr	r1, r1, #1, 0
    9b4c:	e1a00004 	mov	r0, r4
    9b50:	ebfff933 	bl	8024 <PUT32>
    9b54:	eb00007b 	bl	9d48 <dev_barrier>
    9b58:	e284405c 	add	r4, r4, #92, 0	; 0x5c
    9b5c:	e3a01000 	mov	r1, #0, 0
    9b60:	e1a00004 	mov	r0, r4
    9b64:	ebfff92e 	bl	8024 <PUT32>
    9b68:	e3a01000 	mov	r1, #0, 0
    9b6c:	e59f004c 	ldr	r0, [pc, #76]	; 9bc0 <uart_init+0xb4>
    9b70:	ebfff92b 	bl	8024 <PUT32>
    9b74:	e3a01006 	mov	r1, #6, 0
    9b78:	e59f0044 	ldr	r0, [pc, #68]	; 9bc4 <uart_init+0xb8>
    9b7c:	ebfff928 	bl	8024 <PUT32>
    9b80:	e3a01003 	mov	r1, #3, 0
    9b84:	e59f003c 	ldr	r0, [pc, #60]	; 9bc8 <uart_init+0xbc>
    9b88:	ebfff925 	bl	8024 <PUT32>
    9b8c:	e3a01000 	mov	r1, #0, 0
    9b90:	e59f0034 	ldr	r0, [pc, #52]	; 9bcc <uart_init+0xc0>
    9b94:	ebfff922 	bl	8024 <PUT32>
    9b98:	e59f1030 	ldr	r1, [pc, #48]	; 9bd0 <uart_init+0xc4>
    9b9c:	e59f0030 	ldr	r0, [pc, #48]	; 9bd4 <uart_init+0xc8>
    9ba0:	ebfff91f 	bl	8024 <PUT32>
    9ba4:	e3a01003 	mov	r1, #3, 0
    9ba8:	e1a00004 	mov	r0, r4
    9bac:	ebfff91c 	bl	8024 <PUT32>
    9bb0:	eb000064 	bl	9d48 <dev_barrier>
    9bb4:	e28dd008 	add	sp, sp, #8, 0
    9bb8:	e8bd8010 	pop	{r4, pc}
    9bbc:	20215004 	.word	0x20215004
    9bc0:	20215044 	.word	0x20215044
    9bc4:	20215048 	.word	0x20215048
    9bc8:	2021504c 	.word	0x2021504c
    9bcc:	20215050 	.word	0x20215050
    9bd0:	0000010e 	.word	0x0000010e
    9bd4:	20215068 	.word	0x20215068

00009bd8 <uart_can_put8>:
    9bd8:	e92d4010 	push	{r4, lr}
    9bdc:	e59f0008 	ldr	r0, [pc, #8]	; 9bec <uart_can_put8+0x14>
    9be0:	ebfff911 	bl	802c <GET32>
    9be4:	e2000002 	and	r0, r0, #2, 0
    9be8:	e8bd8010 	pop	{r4, pc}
    9bec:	20215064 	.word	0x20215064

00009bf0 <uart_put8>:
    9bf0:	e92d4010 	push	{r4, lr}
    9bf4:	e1a04000 	mov	r4, r0
    9bf8:	eb000052 	bl	9d48 <dev_barrier>
    9bfc:	ebfffff5 	bl	9bd8 <uart_can_put8>
    9c00:	e3500000 	cmp	r0, #0, 0
    9c04:	1a000001 	bne	9c10 <uart_put8+0x20>
    9c08:	eb000054 	bl	9d60 <rpi_wait>
    9c0c:	eafffffa 	b	9bfc <uart_put8+0xc>
    9c10:	e1a01004 	mov	r1, r4
    9c14:	e59f000c 	ldr	r0, [pc, #12]	; 9c28 <uart_put8+0x38>
    9c18:	ebfff901 	bl	8024 <PUT32>
    9c1c:	eb000049 	bl	9d48 <dev_barrier>
    9c20:	e3a00001 	mov	r0, #1, 0
    9c24:	e8bd8010 	pop	{r4, pc}
    9c28:	20215040 	.word	0x20215040

00009c2c <uart_has_data>:
    9c2c:	e92d4010 	push	{r4, lr}
    9c30:	e59f0008 	ldr	r0, [pc, #8]	; 9c40 <uart_has_data+0x14>
    9c34:	ebfff8fc 	bl	802c <GET32>
    9c38:	e2000001 	and	r0, r0, #1, 0
    9c3c:	e8bd8010 	pop	{r4, pc}
    9c40:	20215064 	.word	0x20215064

00009c44 <uart_get8>:
    9c44:	e92d4010 	push	{r4, lr}
    9c48:	eb00003e 	bl	9d48 <dev_barrier>
    9c4c:	ebfffff6 	bl	9c2c <uart_has_data>
    9c50:	e3500000 	cmp	r0, #0, 0
    9c54:	1a000001 	bne	9c60 <uart_get8+0x1c>
    9c58:	eb000040 	bl	9d60 <rpi_wait>
    9c5c:	eafffffa 	b	9c4c <uart_get8+0x8>
    9c60:	e59f0010 	ldr	r0, [pc, #16]	; 9c78 <uart_get8+0x34>
    9c64:	ebfff8f0 	bl	802c <GET32>
    9c68:	e6ef4070 	uxtb	r4, r0
    9c6c:	eb000035 	bl	9d48 <dev_barrier>
    9c70:	e1a00004 	mov	r0, r4
    9c74:	e8bd8010 	pop	{r4, pc}
    9c78:	20215040 	.word	0x20215040

00009c7c <uart_get8_async>:
    9c7c:	e92d4010 	push	{r4, lr}
    9c80:	eb000030 	bl	9d48 <dev_barrier>
    9c84:	ebffffe8 	bl	9c2c <uart_has_data>
    9c88:	e3500000 	cmp	r0, #0, 0
    9c8c:	0a000001 	beq	9c98 <uart_get8_async+0x1c>
    9c90:	ebffffeb 	bl	9c44 <uart_get8>
    9c94:	e8bd8010 	pop	{r4, pc}
    9c98:	e3e00000 	mvn	r0, #0, 0
    9c9c:	e8bd8010 	pop	{r4, pc}

00009ca0 <uart_tx_is_empty>:
    9ca0:	e92d4010 	push	{r4, lr}
    9ca4:	e59f000c 	ldr	r0, [pc, #12]	; 9cb8 <uart_tx_is_empty+0x18>
    9ca8:	ebfff8df 	bl	802c <GET32>
    9cac:	e1a004a0 	lsr	r0, r0, #9
    9cb0:	e2000001 	and	r0, r0, #1, 0
    9cb4:	e8bd8010 	pop	{r4, pc}
    9cb8:	20215064 	.word	0x20215064

00009cbc <uart_flush_tx>:
    9cbc:	e92d4010 	push	{r4, lr}
    9cc0:	ebfffff6 	bl	9ca0 <uart_tx_is_empty>
    9cc4:	e3500000 	cmp	r0, #0, 0
    9cc8:	18bd8010 	popne	{r4, pc}
    9ccc:	eb000023 	bl	9d60 <rpi_wait>
    9cd0:	eafffffa 	b	9cc0 <uart_flush_tx+0x4>

00009cd4 <uart_disable>:
    9cd4:	e92d4010 	push	{r4, lr}
    9cd8:	e24dd008 	sub	sp, sp, #8, 0
    9cdc:	eb000019 	bl	9d48 <dev_barrier>
    9ce0:	ebfffff5 	bl	9cbc <uart_flush_tx>
    9ce4:	e59f4024 	ldr	r4, [pc, #36]	; 9d10 <uart_disable+0x3c>
    9ce8:	e1a00004 	mov	r0, r4
    9cec:	ebfff8ce 	bl	802c <GET32>
    9cf0:	e58d0004 	str	r0, [sp, #4]
    9cf4:	e59d1004 	ldr	r1, [sp, #4]
    9cf8:	e2011006 	and	r1, r1, #6, 0
    9cfc:	e1a00004 	mov	r0, r4
    9d00:	ebfff8c7 	bl	8024 <PUT32>
    9d04:	eb00000f 	bl	9d48 <dev_barrier>
    9d08:	e28dd008 	add	sp, sp, #8, 0
    9d0c:	e8bd8010 	pop	{r4, pc}
    9d10:	20215004 	.word	0x20215004

00009d14 <putk>:
    9d14:	e92d4010 	push	{r4, lr}
    9d18:	e1a04000 	mov	r4, r0
    9d1c:	e5d40000 	ldrb	r0, [r4]
    9d20:	e3500000 	cmp	r0, #0, 0
    9d24:	0a000004 	beq	9d3c <putk+0x28>
    9d28:	e59f3014 	ldr	r3, [pc, #20]	; 9d44 <putk+0x30>
    9d2c:	e5933000 	ldr	r3, [r3]
    9d30:	e12fff33 	blx	r3
    9d34:	e2844001 	add	r4, r4, #1, 0
    9d38:	eafffff7 	b	9d1c <putk+0x8>
    9d3c:	e3a00001 	mov	r0, #1, 0
    9d40:	e8bd8010 	pop	{r4, pc}
    9d44:	0000b07c 	.word	0x0000b07c

00009d48 <dev_barrier>:
    9d48:	ea000002 	b	9d58 <dsb>

00009d4c <dmb>:
    9d4c:	e3a00000 	mov	r0, #0, 0
    9d50:	ee070fba 	mcr	15, 0, r0, cr7, cr10, {5}
    9d54:	e12fff1e 	bx	lr

00009d58 <dsb>:
    9d58:	ee070f9a 	mcr	15, 0, r0, cr7, cr10, {4}
    9d5c:	e12fff1e 	bx	lr

00009d60 <rpi_wait>:
    9d60:	e12fff1e 	bx	lr

00009d64 <gpio_set_on>:
    9d64:	e350002f 	cmp	r0, #47, 0	; 0x2f
    9d68:	1350001f 	cmpne	r0, #31, 0
    9d6c:	812fff1e 	bxhi	lr
    9d70:	e92d4010 	push	{r4, lr}
    9d74:	e59f3018 	ldr	r3, [pc, #24]	; 9d94 <gpio_set_on+0x30>
    9d78:	e08332a0 	add	r3, r3, r0, lsr #5
    9d7c:	e200001f 	and	r0, r0, #31, 0
    9d80:	e3a01001 	mov	r1, #1, 0
    9d84:	e1a01011 	lsl	r1, r1, r0
    9d88:	e1a00103 	lsl	r0, r3, #2
    9d8c:	ebfff8a4 	bl	8024 <PUT32>
    9d90:	e8bd8010 	pop	{r4, pc}
    9d94:	08080007 	.word	0x08080007

00009d98 <gpio_set_off>:
    9d98:	e350002f 	cmp	r0, #47, 0	; 0x2f
    9d9c:	1350001f 	cmpne	r0, #31, 0
    9da0:	812fff1e 	bxhi	lr
    9da4:	e92d4010 	push	{r4, lr}
    9da8:	e59f3018 	ldr	r3, [pc, #24]	; 9dc8 <gpio_set_off+0x30>
    9dac:	e08332a0 	add	r3, r3, r0, lsr #5
    9db0:	e200001f 	and	r0, r0, #31, 0
    9db4:	e3a01001 	mov	r1, #1, 0
    9db8:	e1a01011 	lsl	r1, r1, r0
    9dbc:	e1a00103 	lsl	r0, r3, #2
    9dc0:	ebfff897 	bl	8024 <PUT32>
    9dc4:	e8bd8010 	pop	{r4, pc}
    9dc8:	0808000a 	.word	0x0808000a

00009dcc <gpio_write>:
    9dcc:	e92d4010 	push	{r4, lr}
    9dd0:	e3510000 	cmp	r1, #0, 0
    9dd4:	0a000001 	beq	9de0 <gpio_write+0x14>
    9dd8:	ebffffe1 	bl	9d64 <gpio_set_on>
    9ddc:	e8bd8010 	pop	{r4, pc}
    9de0:	ebffffec 	bl	9d98 <gpio_set_off>
    9de4:	e8bd8010 	pop	{r4, pc}

00009de8 <gpio_read>:
    9de8:	e350001f 	cmp	r0, #31, 0
    9dec:	8a000008 	bhi	9e14 <gpio_read+0x2c>
    9df0:	e92d4010 	push	{r4, lr}
    9df4:	e1a04000 	mov	r4, r0
    9df8:	e59f001c 	ldr	r0, [pc, #28]	; 9e1c <gpio_read+0x34>
    9dfc:	e08002a4 	add	r0, r0, r4, lsr #5
    9e00:	e1a00100 	lsl	r0, r0, #2
    9e04:	ebfff888 	bl	802c <GET32>
    9e08:	e1a00430 	lsr	r0, r0, r4
    9e0c:	e2000001 	and	r0, r0, #1, 0
    9e10:	e8bd8010 	pop	{r4, pc}
    9e14:	e3e00000 	mvn	r0, #0, 0
    9e18:	e12fff1e 	bx	lr
    9e1c:	0808000d 	.word	0x0808000d

00009e20 <gpio_set_function>:
    9e20:	e350002f 	cmp	r0, #47, 0	; 0x2f
    9e24:	1350001f 	cmpne	r0, #31, 0
    9e28:	812fff1e 	bxhi	lr
    9e2c:	e92d40f0 	push	{r4, r5, r6, r7, lr}
    9e30:	e24dd00c 	sub	sp, sp, #12, 0
    9e34:	e1a04000 	mov	r4, r0
    9e38:	e1a06001 	mov	r6, r1
    9e3c:	e3510007 	cmp	r1, #7, 0
    9e40:	9a000001 	bls	9e4c <gpio_set_function+0x2c>
    9e44:	e28dd00c 	add	sp, sp, #12, 0
    9e48:	e8bd80f0 	pop	{r4, r5, r6, r7, pc}
    9e4c:	e59f5044 	ldr	r5, [pc, #68]	; 9e98 <gpio_set_function+0x78>
    9e50:	e0853095 	umull	r3, r5, r5, r0
    9e54:	e1a051a5 	lsr	r5, r5, #3
    9e58:	e2857302 	add	r7, r5, #134217728	; 0x8000000
    9e5c:	e2877702 	add	r7, r7, #524288	; 0x80000
    9e60:	e1a07107 	lsl	r7, r7, #2
    9e64:	e1a00007 	mov	r0, r7
    9e68:	ebfff86f 	bl	802c <GET32>
    9e6c:	e58d0004 	str	r0, [sp, #4]
    9e70:	e0855105 	add	r5, r5, r5, lsl #2
    9e74:	e0444085 	sub	r4, r4, r5, lsl #1
    9e78:	e0844084 	add	r4, r4, r4, lsl #1
    9e7c:	e59d1004 	ldr	r1, [sp, #4]
    9e80:	e3a03007 	mov	r3, #7, 0
    9e84:	e1c11413 	bic	r1, r1, r3, lsl r4
    9e88:	e1811416 	orr	r1, r1, r6, lsl r4
    9e8c:	e1a00007 	mov	r0, r7
    9e90:	ebfff863 	bl	8024 <PUT32>
    9e94:	eaffffea 	b	9e44 <gpio_set_function+0x24>
    9e98:	cccccccd 	.word	0xcccccccd

00009e9c <gpio_set_output>:
    9e9c:	e92d4010 	push	{r4, lr}
    9ea0:	e3a01001 	mov	r1, #1, 0
    9ea4:	ebffffdd 	bl	9e20 <gpio_set_function>
    9ea8:	e8bd8010 	pop	{r4, pc}

00009eac <gpio_set_input>:
    9eac:	e92d4010 	push	{r4, lr}
    9eb0:	e3a01000 	mov	r1, #0, 0
    9eb4:	ebffffd9 	bl	9e20 <gpio_set_function>
    9eb8:	e8bd8010 	pop	{r4, pc}

00009ebc <__code_end__>:
    9ebc:	00000000 	andeq	r0, r0, r0
