
objs/start.elf:     file format elf32-littlearm


Disassembly of section .text:

00008000 <__code_start__>:
    8000:	e3a00013 	mov	r0, #19, 0
    8004:	e3800080 	orr	r0, r0, #128, 0	; 0x80
    8008:	e129f000 	msr	CPSR_fc, r0
    800c:	e3a01000 	mov	r1, #0, 0
    8010:	ee071f95 	mcr	15, 0, r1, cr7, cr5, {4}
    8014:	e3a0d302 	mov	sp, #134217728	; 0x8000000
    8018:	e3a0b000 	mov	fp, #0, 0
    801c:	eb0006b6 	bl	9afc <_cstart>
    8020:	eb000715 	bl	9c7c <rpi_reboot>

00008024 <PUT32>:
    8024:	e5801000 	str	r1, [r0]
    8028:	e12fff1e 	bx	lr

0000802c <GET32>:
    802c:	e5900000 	ldr	r0, [r0]
    8030:	e12fff1e 	bx	lr

00008034 <BRANCHTO>:
    8034:	e12fff10 	bx	r0

00008038 <notmain>:
    8038:	e92d41f0 	push	{r4, r5, r6, r7, r8, lr}
    803c:	e24dd060 	sub	sp, sp, #96, 0	; 0x60
    8040:	e3a01903 	mov	r1, #49152	; 0xc000
    8044:	e591200c 	ldr	r2, [r1, #12]
    8048:	e3a0051a 	mov	r0, #109051904	; 0x6800000
    804c:	eb00051c 	bl	94c4 <memcpy>
    8050:	e59f3204 	ldr	r3, [pc, #516]	; 825c <notmain+0x224>
    8054:	e3530601 	cmp	r3, #1048576	; 0x100000
    8058:	2a00006f 	bcs	821c <notmain+0x1e4>
    805c:	e3a00000 	mov	r0, #0, 0
    8060:	eb0003a1 	bl	8eec <full_except_install>
    8064:	e59f01f4 	ldr	r0, [pc, #500]	; 8260 <notmain+0x228>
    8068:	eb000393 	bl	8ebc <full_except_set_data_abort>
    806c:	eb0001ef 	bl	8830 <mmu_is_enabled>
    8070:	e3500000 	cmp	r0, #0, 0
    8074:	1a000070 	bne	823c <notmain+0x204>
    8078:	e3a07001 	mov	r7, #1, 0
    807c:	e58d7010 	str	r7, [sp, #16]
    8080:	e3a05000 	mov	r5, #0, 0
    8084:	e58d5014 	str	r5, [sp, #20]
    8088:	e58d7018 	str	r7, [sp, #24]
    808c:	e3a06003 	mov	r6, #3, 0
    8090:	e58d601c 	str	r6, [sp, #28]
    8094:	e5cd7020 	strb	r7, [sp, #32]
    8098:	e5cd5021 	strb	r5, [sp, #33]	; 0x21
    809c:	e28dc04c 	add	ip, sp, #76, 0	; 0x4c
    80a0:	e28de010 	add	lr, sp, #16, 0
    80a4:	e8be000f 	ldm	lr!, {r0, r1, r2, r3}
    80a8:	e8ac000f 	stmia	ip!, {r0, r1, r2, r3}
    80ac:	e59e3000 	ldr	r3, [lr]
    80b0:	e58c3000 	str	r3, [ip]
    80b4:	e3a08004 	mov	r8, #4, 0
    80b8:	e5cd8021 	strb	r8, [sp, #33]	; 0x21
    80bc:	e28dc038 	add	ip, sp, #56, 0	; 0x38
    80c0:	e28de010 	add	lr, sp, #16, 0
    80c4:	e8be000f 	ldm	lr!, {r0, r1, r2, r3}
    80c8:	e8ac000f 	stmia	ip!, {r0, r1, r2, r3}
    80cc:	e59e3000 	ldr	r3, [lr]
    80d0:	e58c3000 	str	r3, [ip]
    80d4:	e5cd5020 	strb	r5, [sp, #32]
    80d8:	e5cd5021 	strb	r5, [sp, #33]	; 0x21
    80dc:	e28dc024 	add	ip, sp, #36, 0	; 0x24
    80e0:	e28de010 	add	lr, sp, #16, 0
    80e4:	e8be000f 	ldm	lr!, {r0, r1, r2, r3}
    80e8:	e8ac000f 	stmia	ip!, {r0, r1, r2, r3}
    80ec:	e59e3000 	ldr	r3, [lr]
    80f0:	e58c3000 	str	r3, [ip]
    80f4:	eb00024a 	bl	8a24 <mmu_init>
    80f8:	e28d403c 	add	r4, sp, #60, 0	; 0x3c
    80fc:	e894000f 	ldm	r4, {r0, r1, r2, r3}
    8100:	e88d000f 	stm	sp, {r0, r1, r2, r3}
    8104:	e59d3038 	ldr	r3, [sp, #56]	; 0x38
    8108:	e1a02005 	mov	r2, r5
    810c:	e1a01005 	mov	r1, r5
    8110:	e1a00005 	mov	r0, r5
    8114:	eb0000e7 	bl	84b8 <pin_mmu_sec>
    8118:	e894000f 	ldm	r4, {r0, r1, r2, r3}
    811c:	e88d000f 	stm	sp, {r0, r1, r2, r3}
    8120:	e59d3038 	ldr	r3, [sp, #56]	; 0x38
    8124:	e3a0267f 	mov	r2, #133169152	; 0x7f00000
    8128:	e1a01002 	mov	r1, r2
    812c:	e3a00002 	mov	r0, #2, 0
    8130:	eb0000e0 	bl	84b8 <pin_mmu_sec>
    8134:	e894000f 	ldm	r4, {r0, r1, r2, r3}
    8138:	e88d000f 	stm	sp, {r0, r1, r2, r3}
    813c:	e59d3038 	ldr	r3, [sp, #56]	; 0x38
    8140:	e3a0268f 	mov	r2, #149946368	; 0x8f00000
    8144:	e1a01002 	mov	r1, r2
    8148:	e1a00006 	mov	r0, r6
    814c:	eb0000d9 	bl	84b8 <pin_mmu_sec>
    8150:	e59f010c 	ldr	r0, [pc, #268]	; 8264 <notmain+0x22c>
    8154:	eb00052d 	bl	9610 <printk>
    8158:	e59fc108 	ldr	ip, [pc, #264]	; 8268 <notmain+0x230>
    815c:	e28d6050 	add	r6, sp, #80, 0	; 0x50
    8160:	e896000f 	ldm	r6, {r0, r1, r2, r3}
    8164:	e88d000f 	stm	sp, {r0, r1, r2, r3}
    8168:	e59d304c 	ldr	r3, [sp, #76]	; 0x4c
    816c:	e1a0200c 	mov	r2, ip
    8170:	e1a0100c 	mov	r1, ip
    8174:	e1a00008 	mov	r0, r8
    8178:	eb0000ce 	bl	84b8 <pin_mmu_sec>
    817c:	e896000f 	ldm	r6, {r0, r1, r2, r3}
    8180:	e88d000f 	stm	sp, {r0, r1, r2, r3}
    8184:	e59d304c 	ldr	r3, [sp, #76]	; 0x4c
    8188:	e3a02202 	mov	r2, #536870912	; 0x20000000
    818c:	e1a01002 	mov	r1, r2
    8190:	e3a00005 	mov	r0, #5, 0
    8194:	eb0000c7 	bl	84b8 <pin_mmu_sec>
    8198:	e1a00008 	mov	r0, r8
    819c:	eb000244 	bl	8ab4 <domain_access_ctrl_set>
    81a0:	e3a02519 	mov	r2, #104857600	; 0x6400000
    81a4:	e1a01007 	mov	r1, r7
    81a8:	e3a00080 	mov	r0, #128, 0	; 0x80
    81ac:	eb0001fb 	bl	89a0 <mmu_set_ctx>
    81b0:	e59fc0b4 	ldr	ip, [pc, #180]	; 826c <notmain+0x234>
    81b4:	e28d3028 	add	r3, sp, #40, 0	; 0x28
    81b8:	e893000f 	ldm	r3, {r0, r1, r2, r3}
    81bc:	e88d000f 	stm	sp, {r0, r1, r2, r3}
    81c0:	e59d3024 	ldr	r3, [sp, #36]	; 0x24
    81c4:	e1a0200c 	mov	r2, ip
    81c8:	e1a0100c 	mov	r1, ip
    81cc:	e3a00006 	mov	r0, #6, 0
    81d0:	eb0000b8 	bl	84b8 <pin_mmu_sec>
    81d4:	e3a03406 	mov	r3, #100663296	; 0x6000000
    81d8:	e5835000 	str	r5, [r3]
    81dc:	e894000f 	ldm	r4, {r0, r1, r2, r3}
    81e0:	e88d000f 	stm	sp, {r0, r1, r2, r3}
    81e4:	e59d3038 	ldr	r3, [sp, #56]	; 0x38
    81e8:	e3a0251a 	mov	r2, #109051904	; 0x6800000
    81ec:	e1a01002 	mov	r1, r2
    81f0:	e3a00007 	mov	r0, #7, 0
    81f4:	eb0000af 	bl	84b8 <pin_mmu_sec>
    81f8:	eb0001d3 	bl	894c <mmu_enable>
    81fc:	e59f006c 	ldr	r0, [pc, #108]	; 8270 <notmain+0x238>
    8200:	eb000502 	bl	9610 <printk>
    8204:	e59f0068 	ldr	r0, [pc, #104]	; 8274 <notmain+0x23c>
    8208:	eb000500 	bl	9610 <printk>
    820c:	e3a00ffa 	mov	r0, #1000	; 0x3e8
    8210:	eb0006bc 	bl	9d08 <delay_ms>
    8214:	e28dd060 	add	sp, sp, #96, 0	; 0x60
    8218:	e8bd81f0 	pop	{r4, r5, r6, r7, r8, pc}
    821c:	e59f3054 	ldr	r3, [pc, #84]	; 8278 <notmain+0x240>
    8220:	e58d3000 	str	r3, [sp]
    8224:	e3a03027 	mov	r3, #39, 0	; 0x27
    8228:	e59f204c 	ldr	r2, [pc, #76]	; 827c <notmain+0x244>
    822c:	e59f104c 	ldr	r1, [pc, #76]	; 8280 <notmain+0x248>
    8230:	e59f004c 	ldr	r0, [pc, #76]	; 8284 <notmain+0x24c>
    8234:	eb0004f5 	bl	9610 <printk>
    8238:	eb000624 	bl	9ad0 <clean_reboot>
    823c:	e59f3044 	ldr	r3, [pc, #68]	; 8288 <notmain+0x250>
    8240:	e58d3000 	str	r3, [sp]
    8244:	e3a03033 	mov	r3, #51, 0	; 0x33
    8248:	e59f202c 	ldr	r2, [pc, #44]	; 827c <notmain+0x244>
    824c:	e59f102c 	ldr	r1, [pc, #44]	; 8280 <notmain+0x248>
    8250:	e59f002c 	ldr	r0, [pc, #44]	; 8284 <notmain+0x24c>
    8254:	eb0004ed 	bl	9610 <printk>
    8258:	eb00061c 	bl	9ad0 <clean_reboot>
    825c:	0000b338 	.word	0x0000b338
    8260:	06800190 	.word	0x06800190
    8264:	0000a160 	.word	0x0000a160
    8268:	20300000 	.word	0x20300000
    826c:	20200000 	.word	0x20200000
    8270:	0000a16c 	.word	0x0000a16c
    8274:	0000a174 	.word	0x0000a174
    8278:	0000a120 	.word	0x0000a120
    827c:	0000a18c 	.word	0x0000a18c
    8280:	0000a0e8 	.word	0x0000a0e8
    8284:	0000a0f0 	.word	0x0000a0f0
    8288:	0000a14c 	.word	0x0000a14c

0000828c <mmu_reset>:
    828c:	e3a02000 	mov	r2, #0, 0
    8290:	ee072f15 	mcr	15, 0, r2, cr7, cr5, {0}
    8294:	ee072f15 	mcr	15, 0, r2, cr7, cr5, {0}
    8298:	ee072f15 	mcr	15, 0, r2, cr7, cr5, {0}
    829c:	ee072f15 	mcr	15, 0, r2, cr7, cr5, {0}
    82a0:	e320f000 	nop	{0}
    82a4:	e320f000 	nop	{0}
    82a8:	e320f000 	nop	{0}
    82ac:	e320f000 	nop	{0}
    82b0:	e320f000 	nop	{0}
    82b4:	e320f000 	nop	{0}
    82b8:	e320f000 	nop	{0}
    82bc:	e320f000 	nop	{0}
    82c0:	e320f000 	nop	{0}
    82c4:	e320f000 	nop	{0}
    82c8:	e320f000 	nop	{0}
    82cc:	ee072f16 	mcr	15, 0, r2, cr7, cr6, {0}
    82d0:	ee082f17 	mcr	15, 0, r2, cr8, cr7, {0}
    82d4:	ee072f9a 	mcr	15, 0, r2, cr7, cr10, {4}
    82d8:	ee072fd5 	mcr	15, 0, r2, cr7, cr5, {6}
    82dc:	ee072f95 	mcr	15, 0, r2, cr7, cr5, {4}
    82e0:	e12fff1e 	bx	lr

000082e4 <cp15_domain_ctrl_wr>:
    82e4:	ee030f10 	mcr	15, 0, r0, cr3, cr0, {0}
    82e8:	e3a02000 	mov	r2, #0, 0
    82ec:	ee072f95 	mcr	15, 0, r2, cr7, cr5, {4}
    82f0:	e12fff1e 	bx	lr

000082f4 <cp15_set_procid_ttbr0>:
    82f4:	e3a02000 	mov	r2, #0, 0
    82f8:	ee072f9a 	mcr	15, 0, r2, cr7, cr10, {4}
    82fc:	ee0d2f30 	mcr	15, 0, r2, cr13, cr0, {1}
    8300:	ee072f95 	mcr	15, 0, r2, cr7, cr5, {4}
    8304:	ee021f10 	mcr	15, 0, r1, cr2, cr0, {0}
    8308:	ee022f30 	mcr	15, 0, r2, cr2, cr0, {1}
    830c:	ee022f50 	mcr	15, 0, r2, cr2, cr0, {2}
    8310:	ee072fd5 	mcr	15, 0, r2, cr7, cr5, {6}
    8314:	ee072f95 	mcr	15, 0, r2, cr7, cr5, {4}
    8318:	ee0d0f30 	mcr	15, 0, r0, cr13, cr0, {1}
    831c:	ee072fd5 	mcr	15, 0, r2, cr7, cr5, {6}
    8320:	ee072f95 	mcr	15, 0, r2, cr7, cr5, {4}
    8324:	e12fff1e 	bx	lr

00008328 <mmu_disable_set_asm>:
    8328:	e3a02000 	mov	r2, #0, 0
    832c:	ee072f1e 	mcr	15, 0, r2, cr7, cr14, {0}
    8330:	ee072f9a 	mcr	15, 0, r2, cr7, cr10, {4}
    8334:	ee012f10 	mcr	15, 0, r2, cr1, cr0, {0}
    8338:	ee072f95 	mcr	15, 0, r2, cr7, cr5, {4}
    833c:	ee072f15 	mcr	15, 0, r2, cr7, cr5, {0}
    8340:	ee072f15 	mcr	15, 0, r2, cr7, cr5, {0}
    8344:	ee072f15 	mcr	15, 0, r2, cr7, cr5, {0}
    8348:	ee072f15 	mcr	15, 0, r2, cr7, cr5, {0}
    834c:	e320f000 	nop	{0}
    8350:	e320f000 	nop	{0}
    8354:	e320f000 	nop	{0}
    8358:	e320f000 	nop	{0}
    835c:	e320f000 	nop	{0}
    8360:	e320f000 	nop	{0}
    8364:	e320f000 	nop	{0}
    8368:	e320f000 	nop	{0}
    836c:	e320f000 	nop	{0}
    8370:	e320f000 	nop	{0}
    8374:	e320f000 	nop	{0}
    8378:	ee072f9a 	mcr	15, 0, r2, cr7, cr10, {4}
    837c:	ee072fd5 	mcr	15, 0, r2, cr7, cr5, {6}
    8380:	ee072f95 	mcr	15, 0, r2, cr7, cr5, {4}
    8384:	e12fff1e 	bx	lr

00008388 <mmu_enable_set_asm>:
    8388:	e1a01000 	mov	r1, r0
    838c:	e3a02000 	mov	r2, #0, 0
    8390:	ee110f10 	mrc	15, 0, r0, cr1, cr0, {0}
    8394:	e3c00a01 	bic	r0, r0, #4096	; 0x1000
    8398:	ee010f10 	mcr	15, 0, r0, cr1, cr0, {0}
    839c:	ee072f95 	mcr	15, 0, r2, cr7, cr5, {4}
    83a0:	ee072f15 	mcr	15, 0, r2, cr7, cr5, {0}
    83a4:	ee072f15 	mcr	15, 0, r2, cr7, cr5, {0}
    83a8:	ee072f15 	mcr	15, 0, r2, cr7, cr5, {0}
    83ac:	ee072f15 	mcr	15, 0, r2, cr7, cr5, {0}
    83b0:	e320f000 	nop	{0}
    83b4:	e320f000 	nop	{0}
    83b8:	e320f000 	nop	{0}
    83bc:	e320f000 	nop	{0}
    83c0:	e320f000 	nop	{0}
    83c4:	e320f000 	nop	{0}
    83c8:	e320f000 	nop	{0}
    83cc:	e320f000 	nop	{0}
    83d0:	e320f000 	nop	{0}
    83d4:	e320f000 	nop	{0}
    83d8:	e320f000 	nop	{0}
    83dc:	ee072f9a 	mcr	15, 0, r2, cr7, cr10, {4}
    83e0:	e1a00001 	mov	r0, r1
    83e4:	ee010f10 	mcr	15, 0, r0, cr1, cr0, {0}
    83e8:	ee072f95 	mcr	15, 0, r2, cr7, cr5, {4}
    83ec:	ee072fd5 	mcr	15, 0, r2, cr7, cr5, {6}
    83f0:	ee072f95 	mcr	15, 0, r2, cr7, cr5, {4}
    83f4:	e12fff1e 	bx	lr

000083f8 <mmu_sync_pte_mods>:
    83f8:	e3a02000 	mov	r2, #0, 0
    83fc:	ee072f1e 	mcr	15, 0, r2, cr7, cr14, {0}
    8400:	ee072f15 	mcr	15, 0, r2, cr7, cr5, {0}
    8404:	ee072f15 	mcr	15, 0, r2, cr7, cr5, {0}
    8408:	ee072f15 	mcr	15, 0, r2, cr7, cr5, {0}
    840c:	ee072f15 	mcr	15, 0, r2, cr7, cr5, {0}
    8410:	e320f000 	nop	{0}
    8414:	e320f000 	nop	{0}
    8418:	e320f000 	nop	{0}
    841c:	e320f000 	nop	{0}
    8420:	e320f000 	nop	{0}
    8424:	e320f000 	nop	{0}
    8428:	e320f000 	nop	{0}
    842c:	e320f000 	nop	{0}
    8430:	e320f000 	nop	{0}
    8434:	e320f000 	nop	{0}
    8438:	e320f000 	nop	{0}
    843c:	ee072f9a 	mcr	15, 0, r2, cr7, cr10, {4}
    8440:	ee082f17 	mcr	15, 0, r2, cr8, cr7, {0}
    8444:	ee072fd5 	mcr	15, 0, r2, cr7, cr5, {6}
    8448:	ee072f9a 	mcr	15, 0, r2, cr7, cr10, {4}
    844c:	ee072f95 	mcr	15, 0, r2, cr7, cr5, {4}
    8450:	e12fff1e 	bx	lr

00008454 <cp15_ctrl_reg1_get>:
    8454:	ee110f10 	mrc	15, 0, r0, cr1, cr0, {0}
    8458:	e12fff1e 	bx	lr

0000845c <cp15_ctrl_reg1_wr>:
    845c:	e3a02000 	mov	r2, #0, 0
    8460:	ee010f10 	mcr	15, 0, r0, cr1, cr0, {0}
    8464:	ee072f9a 	mcr	15, 0, r2, cr7, cr10, {4}
    8468:	ee072fd5 	mcr	15, 0, r2, cr7, cr5, {6}
    846c:	ee072f9a 	mcr	15, 0, r2, cr7, cr10, {4}
    8470:	ee072f95 	mcr	15, 0, r2, cr7, cr5, {4}
    8474:	e12fff1e 	bx	lr

00008478 <pin_mmu_enable>:
    8478:	e92d4010 	push	{r4, lr}
    847c:	eb000132 	bl	894c <mmu_enable>
    8480:	e8bd8010 	pop	{r4, pc}

00008484 <pin_mmu_disable>:
    8484:	e92d4010 	push	{r4, lr}
    8488:	eb000107 	bl	88ac <mmu_disable>
    848c:	e8bd8010 	pop	{r4, pc}

00008490 <pin_set_context>:
    8490:	e92d4010 	push	{r4, lr}
    8494:	e1a04000 	mov	r4, r0
    8498:	e3a01901 	mov	r1, #16384	; 0x4000
    849c:	e1a00001 	mov	r0, r1
    84a0:	eb0003a0 	bl	9328 <kmalloc_aligned>
    84a4:	e1a02000 	mov	r2, r0
    84a8:	e1a01004 	mov	r1, r4
    84ac:	e3a00080 	mov	r0, #128, 0	; 0x80
    84b0:	eb00013a 	bl	89a0 <mmu_set_ctx>
    84b4:	e8bd8010 	pop	{r4, pc}

000084b8 <pin_mmu_sec>:
    84b8:	e24dd008 	sub	sp, sp, #8, 0
    84bc:	e52de004 	push	{lr}		; (str lr, [sp, #-4]!)
    84c0:	e24dd00c 	sub	sp, sp, #12, 0
    84c4:	e58d3014 	str	r3, [sp, #20]
    84c8:	e3500007 	cmp	r0, #7, 0
    84cc:	8a00001c 	bhi	8544 <pin_mmu_sec+0x8c>
    84d0:	eeaf0f54 	mcr	15, 5, r0, cr15, cr4, {2}
    84d4:	e3a00000 	mov	r0, #0, 0
    84d8:	ee070f95 	mcr	15, 0, r0, cr7, cr5, {4}
    84dc:	e59dc014 	ldr	ip, [sp, #20]
    84e0:	e59d3018 	ldr	r3, [sp, #24]
    84e4:	e183348c 	orr	r3, r3, ip, lsl #9
    84e8:	e1831001 	orr	r1, r3, r1
    84ec:	eeaf1f55 	mcr	15, 5, r1, cr15, cr5, {2}
    84f0:	ee070f95 	mcr	15, 0, r0, cr7, cr5, {4}
    84f4:	e5dd1025 	ldrb	r1, [sp, #37]	; 0x25
    84f8:	e59d301c 	ldr	r3, [sp, #28]
    84fc:	e1a03383 	lsl	r3, r3, #7
    8500:	e1833081 	orr	r3, r3, r1, lsl #1
    8504:	eeaf3f57 	mcr	15, 5, r3, cr15, cr7, {2}
    8508:	ee070f95 	mcr	15, 0, r0, cr7, cr5, {4}
    850c:	e5dd3024 	ldrb	r3, [sp, #36]	; 0x24
    8510:	e1a03083 	lsl	r3, r3, #1
    8514:	e3833001 	orr	r3, r3, #1, 0
    8518:	e59d1020 	ldr	r1, [sp, #32]
    851c:	e1833301 	orr	r3, r3, r1, lsl #6
    8520:	e1832002 	orr	r2, r3, r2
    8524:	eeaf2f56 	mcr	15, 5, r2, cr15, cr6, {2}
    8528:	ee070f95 	mcr	15, 0, r0, cr7, cr5, {4}
    852c:	ee070f9a 	mcr	15, 0, r0, cr7, cr10, {4}
    8530:	ee070f95 	mcr	15, 0, r0, cr7, cr5, {4}
    8534:	e28dd00c 	add	sp, sp, #12, 0
    8538:	e49de004 	pop	{lr}		; (ldr lr, [sp], #4)
    853c:	e28dd008 	add	sp, sp, #8, 0
    8540:	e12fff1e 	bx	lr
    8544:	e59f3018 	ldr	r3, [pc, #24]	; 8564 <pin_mmu_sec+0xac>
    8548:	e58d3000 	str	r3, [sp]
    854c:	e3a03026 	mov	r3, #38, 0	; 0x26
    8550:	e59f2010 	ldr	r2, [pc, #16]	; 8568 <pin_mmu_sec+0xb0>
    8554:	e59f1010 	ldr	r1, [pc, #16]	; 856c <pin_mmu_sec+0xb4>
    8558:	e59f0010 	ldr	r0, [pc, #16]	; 8570 <pin_mmu_sec+0xb8>
    855c:	eb00042b 	bl	9610 <printk>
    8560:	eb00055a 	bl	9ad0 <clean_reboot>
    8564:	0000a1a0 	.word	0x0000a1a0
    8568:	0000a2cc 	.word	0x0000a2cc
    856c:	0000a194 	.word	0x0000a194
    8570:	0000a0f0 	.word	0x0000a0f0

00008574 <tlb_contains_va>:
    8574:	ee071f18 	mcr	15, 0, r1, cr7, cr8, {0}
    8578:	e3a03000 	mov	r3, #0, 0
    857c:	ee073f95 	mcr	15, 0, r3, cr7, cr5, {4}
    8580:	ee173f14 	mrc	15, 0, r3, cr7, cr4, {0}
    8584:	e2232001 	eor	r2, r3, #1, 0
    8588:	e3c33fff 	bic	r3, r3, #1020	; 0x3fc
    858c:	e3c33003 	bic	r3, r3, #3, 0
    8590:	e1a01b01 	lsl	r1, r1, #22
    8594:	e1a01b21 	lsr	r1, r1, #22
    8598:	e1833001 	orr	r3, r3, r1
    859c:	e5803000 	str	r3, [r0]
    85a0:	e2020001 	and	r0, r2, #1, 0
    85a4:	e12fff1e 	bx	lr

000085a8 <pin_exists>:
    85a8:	e52de004 	push	{lr}		; (str lr, [sp, #-4]!)
    85ac:	e24dd00c 	sub	sp, sp, #12, 0
    85b0:	e1a01000 	mov	r1, r0
    85b4:	e28d0004 	add	r0, sp, #4, 0
    85b8:	ebffffed 	bl	8574 <tlb_contains_va>
    85bc:	e28dd00c 	add	sp, sp, #12, 0
    85c0:	e49df004 	pop	{pc}		; (ldr pc, [sp], #4)

000085c4 <get_regs_idx>:
    85c4:	eeaf0f54 	mcr	15, 5, r0, cr15, cr4, {2}
    85c8:	e3a00000 	mov	r0, #0, 0
    85cc:	ee070f95 	mcr	15, 0, r0, cr7, cr5, {4}
    85d0:	eebf1f55 	mrc	15, 5, r1, cr15, cr5, {2}
    85d4:	eebf2f56 	mrc	15, 5, r2, cr15, cr6, {2}
    85d8:	eebf3f57 	mrc	15, 5, r3, cr15, cr7, {2}
    85dc:	ee070f9a 	mcr	15, 0, r0, cr7, cr10, {4}
    85e0:	ee070f95 	mcr	15, 0, r0, cr7, cr5, {4}
    85e4:	e5801000 	str	r1, [r0]
    85e8:	e5802004 	str	r2, [r0, #4]
    85ec:	e5803008 	str	r3, [r0, #8]
    85f0:	e12fff1e 	bx	lr

000085f4 <lockdown_print_entry>:
    85f4:	e92d4ff0 	push	{r4, r5, r6, r7, r8, r9, sl, fp, lr}
    85f8:	e24dd01c 	sub	sp, sp, #28, 0
    85fc:	e1a07000 	mov	r7, r0
    8600:	e59f1140 	ldr	r1, [pc, #320]	; 8748 <lockdown_print_entry+0x154>
    8604:	e59f0140 	ldr	r0, [pc, #320]	; 874c <lockdown_print_entry+0x158>
    8608:	eb000400 	bl	9610 <printk>
    860c:	e1a01007 	mov	r1, r7
    8610:	e59f0138 	ldr	r0, [pc, #312]	; 8750 <lockdown_print_entry+0x15c>
    8614:	eb0003fd 	bl	9610 <printk>
    8618:	e1a00007 	mov	r0, r7
    861c:	ebffffe8 	bl	85c4 <get_regs_idx>
    8620:	e5906000 	ldr	r6, [r0]
    8624:	e5904004 	ldr	r4, [r0, #4]
    8628:	e5905008 	ldr	r5, [r0, #8]
    862c:	e214a001 	ands	sl, r4, #1, 0
    8630:	0a00003d 	beq	872c <lockdown_print_entry+0x138>
    8634:	e1a03626 	lsr	r3, r6, #12
    8638:	e58d3010 	str	r3, [sp, #16]
    863c:	e1a094a6 	lsr	r9, r6, #9
    8640:	e2099001 	and	r9, r9, #1, 0
    8644:	e6efb076 	uxtb	fp, r6
    8648:	e59f80f8 	ldr	r8, [pc, #248]	; 8748 <lockdown_print_entry+0x154>
    864c:	e59f70f8 	ldr	r7, [pc, #248]	; 874c <lockdown_print_entry+0x158>
    8650:	e1a01008 	mov	r1, r8
    8654:	e1a00007 	mov	r0, r7
    8658:	eb0003ec 	bl	9610 <printk>
    865c:	e58db000 	str	fp, [sp]
    8660:	e1a03009 	mov	r3, r9
    8664:	e59d2010 	ldr	r2, [sp, #16]
    8668:	e1a01006 	mov	r1, r6
    866c:	e59f00e0 	ldr	r0, [pc, #224]	; 8754 <lockdown_print_entry+0x160>
    8670:	eb0003e6 	bl	9610 <printk>
    8674:	e1a03624 	lsr	r3, r4, #12
    8678:	e58d3010 	str	r3, [sp, #16]
    867c:	e1a034a4 	lsr	r3, r4, #9
    8680:	e2031001 	and	r1, r3, #1, 0
    8684:	e58d1014 	str	r1, [sp, #20]
    8688:	e1a06424 	lsr	r6, r4, #8
    868c:	e2066001 	and	r6, r6, #1, 0
    8690:	e1a09324 	lsr	r9, r4, #6
    8694:	e2099003 	and	r9, r9, #3, 0
    8698:	e1a0b0a4 	lsr	fp, r4, #1
    869c:	e20bb003 	and	fp, fp, #3, 0
    86a0:	e1a01008 	mov	r1, r8
    86a4:	e1a00007 	mov	r0, r7
    86a8:	eb0003d8 	bl	9610 <printk>
    86ac:	e58da00c 	str	sl, [sp, #12]
    86b0:	e58db008 	str	fp, [sp, #8]
    86b4:	e58d9004 	str	r9, [sp, #4]
    86b8:	e58d6000 	str	r6, [sp]
    86bc:	e59d3014 	ldr	r3, [sp, #20]
    86c0:	e59d2010 	ldr	r2, [sp, #16]
    86c4:	e1a01004 	mov	r1, r4
    86c8:	e59f0088 	ldr	r0, [pc, #136]	; 8758 <lockdown_print_entry+0x164>
    86cc:	eb0003cf 	bl	9610 <printk>
    86d0:	e1a043a5 	lsr	r4, r5, #7
    86d4:	e204400f 	and	r4, r4, #15, 0
    86d8:	e1a06325 	lsr	r6, r5, #6
    86dc:	e2066001 	and	r6, r6, #1, 0
    86e0:	e1a091a5 	lsr	r9, r5, #3
    86e4:	e2099007 	and	r9, r9, #7, 0
    86e8:	e1a0a125 	lsr	sl, r5, #2
    86ec:	e20aa001 	and	sl, sl, #1, 0
    86f0:	e1a0b0a5 	lsr	fp, r5, #1
    86f4:	e20bb001 	and	fp, fp, #1, 0
    86f8:	e1a01008 	mov	r1, r8
    86fc:	e1a00007 	mov	r0, r7
    8700:	eb0003c2 	bl	9610 <printk>
    8704:	e58db008 	str	fp, [sp, #8]
    8708:	e58da004 	str	sl, [sp, #4]
    870c:	e58d9000 	str	r9, [sp]
    8710:	e1a03006 	mov	r3, r6
    8714:	e1a02004 	mov	r2, r4
    8718:	e1a01005 	mov	r1, r5
    871c:	e59f0038 	ldr	r0, [pc, #56]	; 875c <lockdown_print_entry+0x168>
    8720:	eb0003ba 	bl	9610 <printk>
    8724:	e28dd01c 	add	sp, sp, #28, 0
    8728:	e8bd8ff0 	pop	{r4, r5, r6, r7, r8, r9, sl, fp, pc}
    872c:	e59f1014 	ldr	r1, [pc, #20]	; 8748 <lockdown_print_entry+0x154>
    8730:	e59f0014 	ldr	r0, [pc, #20]	; 874c <lockdown_print_entry+0x158>
    8734:	eb0003b5 	bl	9610 <printk>
    8738:	e1a01007 	mov	r1, r7
    873c:	e59f001c 	ldr	r0, [pc, #28]	; 8760 <lockdown_print_entry+0x16c>
    8740:	eb0003b2 	bl	9610 <printk>
    8744:	eafffff6 	b	8724 <lockdown_print_entry+0x130>
    8748:	0000a2d8 	.word	0x0000a2d8
    874c:	0000a1a8 	.word	0x0000a1a8
    8750:	0000a1b4 	.word	0x0000a1b4
    8754:	0000a1dc 	.word	0x0000a1dc
    8758:	0000a200 	.word	0x0000a200
    875c:	0000a23c 	.word	0x0000a23c
    8760:	0000a1c0 	.word	0x0000a1c0

00008764 <lockdown_print_entries>:
    8764:	e92d4070 	push	{r4, r5, r6, lr}
    8768:	e1a04000 	mov	r4, r0
    876c:	e59f6060 	ldr	r6, [pc, #96]	; 87d4 <lockdown_print_entries+0x70>
    8770:	e59f5060 	ldr	r5, [pc, #96]	; 87d8 <lockdown_print_entries+0x74>
    8774:	e1a01006 	mov	r1, r6
    8778:	e1a00005 	mov	r0, r5
    877c:	eb0003a3 	bl	9610 <printk>
    8780:	e1a01004 	mov	r1, r4
    8784:	e59f0050 	ldr	r0, [pc, #80]	; 87dc <lockdown_print_entries+0x78>
    8788:	eb0003a0 	bl	9610 <printk>
    878c:	e1a01006 	mov	r1, r6
    8790:	e1a00005 	mov	r0, r5
    8794:	eb00039d 	bl	9610 <printk>
    8798:	e59f0040 	ldr	r0, [pc, #64]	; 87e0 <lockdown_print_entries+0x7c>
    879c:	eb00039b 	bl	9610 <printk>
    87a0:	e3a04000 	mov	r4, #0, 0
    87a4:	ea000002 	b	87b4 <lockdown_print_entries+0x50>
    87a8:	e1a00004 	mov	r0, r4
    87ac:	ebffff90 	bl	85f4 <lockdown_print_entry>
    87b0:	e2844001 	add	r4, r4, #1, 0
    87b4:	e3540007 	cmp	r4, #7, 0
    87b8:	dafffffa 	ble	87a8 <lockdown_print_entries+0x44>
    87bc:	e59f1010 	ldr	r1, [pc, #16]	; 87d4 <lockdown_print_entries+0x70>
    87c0:	e59f0010 	ldr	r0, [pc, #16]	; 87d8 <lockdown_print_entries+0x74>
    87c4:	eb000391 	bl	9610 <printk>
    87c8:	e59f0014 	ldr	r0, [pc, #20]	; 87e4 <lockdown_print_entries+0x80>
    87cc:	eb00038f 	bl	9610 <printk>
    87d0:	e8bd8070 	pop	{r4, r5, r6, pc}
    87d4:	0000a2f0 	.word	0x0000a2f0
    87d8:	0000a1a8 	.word	0x0000a1a8
    87dc:	0000a26c 	.word	0x0000a26c
    87e0:	0000a280 	.word	0x0000a280
    87e4:	0000a2a0 	.word	0x0000a2a0

000087e8 <pin_clear>:
    87e8:	e12fff1e 	bx	lr

000087ec <pin_mmu_init>:
    87ec:	e92d4010 	push	{r4, lr}
    87f0:	e1a04000 	mov	r4, r0
    87f4:	eb00008a 	bl	8a24 <mmu_init>
    87f8:	e1a00004 	mov	r0, r4
    87fc:	eb0000ac 	bl	8ab4 <domain_access_ctrl_set>
    8800:	e8bd8010 	pop	{r4, pc}

00008804 <cp15_ctrl_reg1_rd>:
    8804:	e52de004 	push	{lr}		; (str lr, [sp, #-4]!)
    8808:	e24dd00c 	sub	sp, sp, #12, 0
    880c:	ebffff10 	bl	8454 <cp15_ctrl_reg1_get>
    8810:	e58d0000 	str	r0, [sp]
    8814:	e3a02004 	mov	r2, #4, 0
    8818:	e1a0100d 	mov	r1, sp
    881c:	e08d0002 	add	r0, sp, r2
    8820:	eb000327 	bl	94c4 <memcpy>
    8824:	e59d0004 	ldr	r0, [sp, #4]
    8828:	e28dd00c 	add	sp, sp, #12, 0
    882c:	e49df004 	pop	{pc}		; (ldr pc, [sp], #4)

00008830 <mmu_is_enabled>:
    8830:	e92d4010 	push	{r4, lr}
    8834:	ebfffff2 	bl	8804 <cp15_ctrl_reg1_rd>
    8838:	e2000001 	and	r0, r0, #1, 0
    883c:	e8bd8010 	pop	{r4, pc}

00008840 <mmu_disable_set>:
    8840:	e92d4030 	push	{r4, r5, lr}
    8844:	e24dd00c 	sub	sp, sp, #12, 0
    8848:	e3100001 	tst	r0, #1, 0
    884c:	1a000007 	bne	8870 <mmu_disable_set+0x30>
    8850:	e1a04000 	mov	r4, r0
    8854:	e1a05120 	lsr	r5, r0, #2
    8858:	e2055001 	and	r5, r5, #1, 0
    885c:	ebfffeb1 	bl	8328 <mmu_disable_set_asm>
    8860:	e3550000 	cmp	r5, #0, 0
    8864:	1a000009 	bne	8890 <mmu_disable_set+0x50>
    8868:	e28dd00c 	add	sp, sp, #12, 0
    886c:	e8bd8030 	pop	{r4, r5, pc}
    8870:	e59f3024 	ldr	r3, [pc, #36]	; 889c <mmu_disable_set+0x5c>
    8874:	e58d3000 	str	r3, [sp]
    8878:	e3a0301f 	mov	r3, #31, 0
    887c:	e59f201c 	ldr	r2, [pc, #28]	; 88a0 <mmu_disable_set+0x60>
    8880:	e59f101c 	ldr	r1, [pc, #28]	; 88a4 <mmu_disable_set+0x64>
    8884:	e59f001c 	ldr	r0, [pc, #28]	; 88a8 <mmu_disable_set+0x68>
    8888:	eb000360 	bl	9610 <printk>
    888c:	eb00048f 	bl	9ad0 <clean_reboot>
    8890:	e3840004 	orr	r0, r4, #4, 0
    8894:	ebfffef0 	bl	845c <cp15_ctrl_reg1_wr>
    8898:	eafffff2 	b	8868 <mmu_disable_set+0x28>
    889c:	0000a310 	.word	0x0000a310
    88a0:	0000a35c 	.word	0x0000a35c
    88a4:	0000a308 	.word	0x0000a308
    88a8:	0000a0f0 	.word	0x0000a0f0

000088ac <mmu_disable>:
    88ac:	e52de004 	push	{lr}		; (str lr, [sp, #-4]!)
    88b0:	e24dd00c 	sub	sp, sp, #12, 0
    88b4:	ebffffd2 	bl	8804 <cp15_ctrl_reg1_rd>
    88b8:	e3100001 	tst	r0, #1, 0
    88bc:	0a000003 	beq	88d0 <mmu_disable+0x24>
    88c0:	e3c00001 	bic	r0, r0, #1, 0
    88c4:	ebffffdd 	bl	8840 <mmu_disable_set>
    88c8:	e28dd00c 	add	sp, sp, #12, 0
    88cc:	e49df004 	pop	{pc}		; (ldr pc, [sp], #4)
    88d0:	e59f3018 	ldr	r3, [pc, #24]	; 88f0 <mmu_disable+0x44>
    88d4:	e58d3000 	str	r3, [sp]
    88d8:	e3a03033 	mov	r3, #51, 0	; 0x33
    88dc:	e59f2010 	ldr	r2, [pc, #16]	; 88f4 <mmu_disable+0x48>
    88e0:	e59f1010 	ldr	r1, [pc, #16]	; 88f8 <mmu_disable+0x4c>
    88e4:	e59f0010 	ldr	r0, [pc, #16]	; 88fc <mmu_disable+0x50>
    88e8:	eb000348 	bl	9610 <printk>
    88ec:	eb000477 	bl	9ad0 <clean_reboot>
    88f0:	0000a320 	.word	0x0000a320
    88f4:	0000a36c 	.word	0x0000a36c
    88f8:	0000a308 	.word	0x0000a308
    88fc:	0000a0f0 	.word	0x0000a0f0

00008900 <mmu_enable_set>:
    8900:	e52de004 	push	{lr}		; (str lr, [sp, #-4]!)
    8904:	e24dd00c 	sub	sp, sp, #12, 0
    8908:	e3100001 	tst	r0, #1, 0
    890c:	0a000002 	beq	891c <mmu_enable_set+0x1c>
    8910:	ebfffe9c 	bl	8388 <mmu_enable_set_asm>
    8914:	e28dd00c 	add	sp, sp, #12, 0
    8918:	e49df004 	pop	{pc}		; (ldr pc, [sp], #4)
    891c:	e59f3018 	ldr	r3, [pc, #24]	; 893c <mmu_enable_set+0x3c>
    8920:	e58d3000 	str	r3, [sp]
    8924:	e3a0303d 	mov	r3, #61, 0	; 0x3d
    8928:	e59f2010 	ldr	r2, [pc, #16]	; 8940 <mmu_enable_set+0x40>
    892c:	e59f1010 	ldr	r1, [pc, #16]	; 8944 <mmu_enable_set+0x44>
    8930:	e59f0010 	ldr	r0, [pc, #16]	; 8948 <mmu_enable_set+0x48>
    8934:	eb000335 	bl	9610 <printk>
    8938:	eb000464 	bl	9ad0 <clean_reboot>
    893c:	0000a320 	.word	0x0000a320
    8940:	0000a378 	.word	0x0000a378
    8944:	0000a308 	.word	0x0000a308
    8948:	0000a0f0 	.word	0x0000a0f0

0000894c <mmu_enable>:
    894c:	e52de004 	push	{lr}		; (str lr, [sp, #-4]!)
    8950:	e24dd00c 	sub	sp, sp, #12, 0
    8954:	ebffffaa 	bl	8804 <cp15_ctrl_reg1_rd>
    8958:	e3100001 	tst	r0, #1, 0
    895c:	1a000003 	bne	8970 <mmu_enable+0x24>
    8960:	e3800001 	orr	r0, r0, #1, 0
    8964:	ebffffe5 	bl	8900 <mmu_enable_set>
    8968:	e28dd00c 	add	sp, sp, #12, 0
    896c:	e49df004 	pop	{pc}		; (ldr pc, [sp], #4)
    8970:	e59f3018 	ldr	r3, [pc, #24]	; 8990 <mmu_enable+0x44>
    8974:	e58d3000 	str	r3, [sp]
    8978:	e3a03044 	mov	r3, #68, 0	; 0x44
    897c:	e59f2010 	ldr	r2, [pc, #16]	; 8994 <mmu_enable+0x48>
    8980:	e59f1010 	ldr	r1, [pc, #16]	; 8998 <mmu_enable+0x4c>
    8984:	e59f0010 	ldr	r0, [pc, #16]	; 899c <mmu_enable+0x50>
    8988:	eb000320 	bl	9610 <printk>
    898c:	eb00044f 	bl	9ad0 <clean_reboot>
    8990:	0000a310 	.word	0x0000a310
    8994:	0000a388 	.word	0x0000a388
    8998:	0000a308 	.word	0x0000a308
    899c:	0000a0f0 	.word	0x0000a0f0

000089a0 <mmu_set_ctx>:
    89a0:	e52de004 	push	{lr}		; (str lr, [sp, #-4]!)
    89a4:	e24dd00c 	sub	sp, sp, #12, 0
    89a8:	e1a03001 	mov	r3, r1
    89ac:	e3530000 	cmp	r3, #0, 0
    89b0:	0a000006 	beq	89d0 <mmu_set_ctx+0x30>
    89b4:	e1a01002 	mov	r1, r2
    89b8:	e353003f 	cmp	r3, #63, 0	; 0x3f
    89bc:	8a00000b 	bhi	89f0 <mmu_set_ctx+0x50>
    89c0:	e1830400 	orr	r0, r3, r0, lsl #8
    89c4:	ebfffe4a 	bl	82f4 <cp15_set_procid_ttbr0>
    89c8:	e28dd00c 	add	sp, sp, #12, 0
    89cc:	e49df004 	pop	{pc}		; (ldr pc, [sp], #4)
    89d0:	e59f3038 	ldr	r3, [pc, #56]	; 8a10 <mmu_set_ctx+0x70>
    89d4:	e58d3000 	str	r3, [sp]
    89d8:	e3a0304b 	mov	r3, #75, 0	; 0x4b
    89dc:	e59f2030 	ldr	r2, [pc, #48]	; 8a14 <mmu_set_ctx+0x74>
    89e0:	e59f1030 	ldr	r1, [pc, #48]	; 8a18 <mmu_set_ctx+0x78>
    89e4:	e59f0030 	ldr	r0, [pc, #48]	; 8a1c <mmu_set_ctx+0x7c>
    89e8:	eb000308 	bl	9610 <printk>
    89ec:	eb000437 	bl	9ad0 <clean_reboot>
    89f0:	e59f3028 	ldr	r3, [pc, #40]	; 8a20 <mmu_set_ctx+0x80>
    89f4:	e58d3000 	str	r3, [sp]
    89f8:	e3a0304c 	mov	r3, #76, 0	; 0x4c
    89fc:	e59f2010 	ldr	r2, [pc, #16]	; 8a14 <mmu_set_ctx+0x74>
    8a00:	e59f1010 	ldr	r1, [pc, #16]	; 8a18 <mmu_set_ctx+0x78>
    8a04:	e59f0010 	ldr	r0, [pc, #16]	; 8a1c <mmu_set_ctx+0x7c>
    8a08:	eb000300 	bl	9610 <printk>
    8a0c:	eb00042f 	bl	9ad0 <clean_reboot>
    8a10:	0000a330 	.word	0x0000a330
    8a14:	0000a394 	.word	0x0000a394
    8a18:	0000a308 	.word	0x0000a308
    8a1c:	0000a0f0 	.word	0x0000a0f0
    8a20:	0000a338 	.word	0x0000a338

00008a24 <mmu_init>:
    8a24:	e52de004 	push	{lr}		; (str lr, [sp, #-4]!)
    8a28:	e24dd00c 	sub	sp, sp, #12, 0
    8a2c:	ebfffe16 	bl	828c <mmu_reset>
    8a30:	ebffff73 	bl	8804 <cp15_ctrl_reg1_rd>
    8a34:	e3800502 	orr	r0, r0, #8388608	; 0x800000
    8a38:	ebfffe87 	bl	845c <cp15_ctrl_reg1_wr>
    8a3c:	ebffff70 	bl	8804 <cp15_ctrl_reg1_rd>
    8a40:	e3100502 	tst	r0, #8388608	; 0x800000
    8a44:	0a000003 	beq	8a58 <mmu_init+0x34>
    8a48:	e3100001 	tst	r0, #1, 0
    8a4c:	1a000009 	bne	8a78 <mmu_init+0x54>
    8a50:	e28dd00c 	add	sp, sp, #12, 0
    8a54:	e49df004 	pop	{pc}		; (ldr pc, [sp], #4)
    8a58:	e59f3038 	ldr	r3, [pc, #56]	; 8a98 <mmu_init+0x74>
    8a5c:	e58d3000 	str	r3, [sp]
    8a60:	e3a03067 	mov	r3, #103, 0	; 0x67
    8a64:	e59f2030 	ldr	r2, [pc, #48]	; 8a9c <mmu_init+0x78>
    8a68:	e59f1030 	ldr	r1, [pc, #48]	; 8aa0 <mmu_init+0x7c>
    8a6c:	e59f0030 	ldr	r0, [pc, #48]	; 8aa4 <mmu_init+0x80>
    8a70:	eb0002e6 	bl	9610 <printk>
    8a74:	eb000415 	bl	9ad0 <clean_reboot>
    8a78:	e59f3028 	ldr	r3, [pc, #40]	; 8aa8 <mmu_init+0x84>
    8a7c:	e58d3000 	str	r3, [sp]
    8a80:	e3a03068 	mov	r3, #104, 0	; 0x68
    8a84:	e59f2010 	ldr	r2, [pc, #16]	; 8a9c <mmu_init+0x78>
    8a88:	e59f1010 	ldr	r1, [pc, #16]	; 8aa0 <mmu_init+0x7c>
    8a8c:	e59f0010 	ldr	r0, [pc, #16]	; 8aa4 <mmu_init+0x80>
    8a90:	eb0002de 	bl	9610 <printk>
    8a94:	eb00040d 	bl	9ad0 <clean_reboot>
    8a98:	0000a340 	.word	0x0000a340
    8a9c:	0000a3a0 	.word	0x0000a3a0
    8aa0:	0000a308 	.word	0x0000a308
    8aa4:	0000a0f0 	.word	0x0000a0f0
    8aa8:	0000a34c 	.word	0x0000a34c

00008aac <domain_access_ctrl_get>:
    8aac:	ee130f10 	mrc	15, 0, r0, cr3, cr0, {0}
    8ab0:	e12fff1e 	bx	lr

00008ab4 <domain_access_ctrl_set>:
    8ab4:	e92d4010 	push	{r4, lr}
    8ab8:	ebfffe09 	bl	82e4 <cp15_domain_ctrl_wr>
    8abc:	e8bd8010 	pop	{r4, pc}

00008ac0 <bits_mask>:
    8ac0:	e3500020 	cmp	r0, #32, 0
    8ac4:	0a00000f 	beq	8b08 <bits_mask+0x48>
    8ac8:	e350001f 	cmp	r0, #31, 0
    8acc:	8a000003 	bhi	8ae0 <bits_mask+0x20>
    8ad0:	e3a03001 	mov	r3, #1, 0
    8ad4:	e1a00013 	lsl	r0, r3, r0
    8ad8:	e2400001 	sub	r0, r0, #1, 0
    8adc:	e12fff1e 	bx	lr
    8ae0:	e52de004 	push	{lr}		; (str lr, [sp, #-4]!)
    8ae4:	e24dd00c 	sub	sp, sp, #12, 0
    8ae8:	e59f3020 	ldr	r3, [pc, #32]	; 8b10 <bits_mask+0x50>
    8aec:	e58d3000 	str	r3, [sp]
    8af0:	e3a03033 	mov	r3, #51, 0	; 0x33
    8af4:	e59f2018 	ldr	r2, [pc, #24]	; 8b14 <bits_mask+0x54>
    8af8:	e59f1018 	ldr	r1, [pc, #24]	; 8b18 <bits_mask+0x58>
    8afc:	e59f0018 	ldr	r0, [pc, #24]	; 8b1c <bits_mask+0x5c>
    8b00:	eb0002c2 	bl	9610 <printk>
    8b04:	eb0003f1 	bl	9ad0 <clean_reboot>
    8b08:	e3e00000 	mvn	r0, #0, 0
    8b0c:	e12fff1e 	bx	lr
    8b10:	0000a3e8 	.word	0x0000a3e8
    8b14:	0000a6c4 	.word	0x0000a6c4
    8b18:	0000a3ac 	.word	0x0000a3ac
    8b1c:	0000a0f0 	.word	0x0000a0f0

00008b20 <mode_get>:
    8b20:	e92d4010 	push	{r4, lr}
    8b24:	e24dd008 	sub	sp, sp, #8, 0
    8b28:	e1a04000 	mov	r4, r0
    8b2c:	e3a00005 	mov	r0, #5, 0
    8b30:	ebffffe2 	bl	8ac0 <bits_mask>
    8b34:	e0000004 	and	r0, r0, r4
    8b38:	e3500012 	cmp	r0, #18, 0
    8b3c:	13500010 	cmpne	r0, #16, 0
    8b40:	0a000005 	beq	8b5c <mode_get+0x3c>
    8b44:	e3500017 	cmp	r0, #23, 0
    8b48:	13500013 	cmpne	r0, #19, 0
    8b4c:	0a000002 	beq	8b5c <mode_get+0x3c>
    8b50:	e350001f 	cmp	r0, #31, 0
    8b54:	1350001b 	cmpne	r0, #27, 0
    8b58:	1a000001 	bne	8b64 <mode_get+0x44>
    8b5c:	e28dd008 	add	sp, sp, #8, 0
    8b60:	e8bd8010 	pop	{r4, pc}
    8b64:	e58d0004 	str	r0, [sp, #4]
    8b68:	e58d0000 	str	r0, [sp]
    8b6c:	e3a03013 	mov	r3, #19, 0
    8b70:	e59f200c 	ldr	r2, [pc, #12]	; 8b84 <mode_get+0x64>
    8b74:	e59f100c 	ldr	r1, [pc, #12]	; 8b88 <mode_get+0x68>
    8b78:	e59f000c 	ldr	r0, [pc, #12]	; 8b8c <mode_get+0x6c>
    8b7c:	eb0002a3 	bl	9610 <printk>
    8b80:	eb0003d2 	bl	9ad0 <clean_reboot>
    8b84:	0000a6d0 	.word	0x0000a6d0
    8b88:	0000a400 	.word	0x0000a400
    8b8c:	0000a43c 	.word	0x0000a43c

00008b90 <fixup_regs>:
    8b90:	e92d4070 	push	{r4, r5, r6, lr}
    8b94:	e1a05000 	mov	r5, r0
    8b98:	e1a04001 	mov	r4, r1
    8b9c:	e1a00001 	mov	r0, r1
    8ba0:	ebffffde 	bl	8b20 <mode_get>
    8ba4:	e3500010 	cmp	r0, #16, 0
    8ba8:	08bd8070 	popeq	{r4, r5, r6, pc}
    8bac:	e2852038 	add	r2, r5, #56, 0	; 0x38
    8bb0:	e2851034 	add	r1, r5, #52, 0	; 0x34
    8bb4:	e1a00004 	mov	r0, r4
    8bb8:	eb00095b 	bl	b12c <priv_get_sp_lr_asm>
    8bbc:	e8bd8070 	pop	{r4, r5, r6, pc}

00008bc0 <switchto>:
    8bc0:	e92d4010 	push	{r4, lr}
    8bc4:	e1a04000 	mov	r4, r0
    8bc8:	e5900040 	ldr	r0, [r0, #64]	; 0x40
    8bcc:	ebffffd3 	bl	8b20 <mode_get>
    8bd0:	e3500010 	cmp	r0, #16, 0
    8bd4:	0a000001 	beq	8be0 <switchto+0x20>
    8bd8:	e1a00004 	mov	r0, r4
    8bdc:	eb00093f 	bl	b0e0 <switchto_priv_asm>
    8be0:	e1a00004 	mov	r0, r4
    8be4:	eb00092b 	bl	b098 <switchto_user_asm>

00008be8 <prefetch_abort_full_except>:
    8be8:	e52de004 	push	{lr}		; (str lr, [sp, #-4]!)
    8bec:	e24dd00c 	sub	sp, sp, #12, 0
    8bf0:	e5903040 	ldr	r3, [r0, #64]	; 0x40
    8bf4:	e1530001 	cmp	r3, r1
    8bf8:	1a00000e 	bne	8c38 <prefetch_abort_full_except+0x50>
    8bfc:	e1a04000 	mov	r4, r0
    8c00:	e590303c 	ldr	r3, [r0, #60]	; 0x3c
    8c04:	e1530002 	cmp	r3, r2
    8c08:	1a000012 	bne	8c58 <prefetch_abort_full_except+0x70>
    8c0c:	e59f3080 	ldr	r3, [pc, #128]	; 8c94 <prefetch_abort_full_except+0xac>
    8c10:	e5933000 	ldr	r3, [r3]
    8c14:	e3530000 	cmp	r3, #0, 0
    8c18:	0a000016 	beq	8c78 <prefetch_abort_full_except+0x90>
    8c1c:	ebffffdb 	bl	8b90 <fixup_regs>
    8c20:	e59f306c 	ldr	r3, [pc, #108]	; 8c94 <prefetch_abort_full_except+0xac>
    8c24:	e5933000 	ldr	r3, [r3]
    8c28:	e1a00004 	mov	r0, r4
    8c2c:	e12fff33 	blx	r3
    8c30:	e1a00004 	mov	r0, r4
    8c34:	ebffffe1 	bl	8bc0 <switchto>
    8c38:	e59f3058 	ldr	r3, [pc, #88]	; 8c98 <prefetch_abort_full_except+0xb0>
    8c3c:	e58d3000 	str	r3, [sp]
    8c40:	e3a03031 	mov	r3, #49, 0	; 0x31
    8c44:	e59f2050 	ldr	r2, [pc, #80]	; 8c9c <prefetch_abort_full_except+0xb4>
    8c48:	e59f1050 	ldr	r1, [pc, #80]	; 8ca0 <prefetch_abort_full_except+0xb8>
    8c4c:	e59f0050 	ldr	r0, [pc, #80]	; 8ca4 <prefetch_abort_full_except+0xbc>
    8c50:	eb00026e 	bl	9610 <printk>
    8c54:	eb00039d 	bl	9ad0 <clean_reboot>
    8c58:	e59f3048 	ldr	r3, [pc, #72]	; 8ca8 <prefetch_abort_full_except+0xc0>
    8c5c:	e58d3000 	str	r3, [sp]
    8c60:	e3a03032 	mov	r3, #50, 0	; 0x32
    8c64:	e59f2030 	ldr	r2, [pc, #48]	; 8c9c <prefetch_abort_full_except+0xb4>
    8c68:	e59f1030 	ldr	r1, [pc, #48]	; 8ca0 <prefetch_abort_full_except+0xb8>
    8c6c:	e59f0030 	ldr	r0, [pc, #48]	; 8ca4 <prefetch_abort_full_except+0xbc>
    8c70:	eb000266 	bl	9610 <printk>
    8c74:	eb000395 	bl	9ad0 <clean_reboot>
    8c78:	e58d2000 	str	r2, [sp]
    8c7c:	e3a03035 	mov	r3, #53, 0	; 0x35
    8c80:	e59f2014 	ldr	r2, [pc, #20]	; 8c9c <prefetch_abort_full_except+0xb4>
    8c84:	e59f1014 	ldr	r1, [pc, #20]	; 8ca0 <prefetch_abort_full_except+0xb8>
    8c88:	e59f001c 	ldr	r0, [pc, #28]	; 8cac <prefetch_abort_full_except+0xc4>
    8c8c:	eb00025f 	bl	9610 <printk>
    8c90:	eb00038e 	bl	9ad0 <clean_reboot>
    8c94:	0000b320 	.word	0x0000b320
    8c98:	0000a47c 	.word	0x0000a47c
    8c9c:	0000a6dc 	.word	0x0000a6dc
    8ca0:	0000a468 	.word	0x0000a468
    8ca4:	0000a0f0 	.word	0x0000a0f0
    8ca8:	0000a498 	.word	0x0000a498
    8cac:	0000a4b0 	.word	0x0000a4b0

00008cb0 <data_abort_full_except>:
    8cb0:	e52de004 	push	{lr}		; (str lr, [sp, #-4]!)
    8cb4:	e24dd00c 	sub	sp, sp, #12, 0
    8cb8:	e5903040 	ldr	r3, [r0, #64]	; 0x40
    8cbc:	e1530001 	cmp	r3, r1
    8cc0:	1a00000e 	bne	8d00 <data_abort_full_except+0x50>
    8cc4:	e1a04000 	mov	r4, r0
    8cc8:	e590303c 	ldr	r3, [r0, #60]	; 0x3c
    8ccc:	e1530002 	cmp	r3, r2
    8cd0:	1a000012 	bne	8d20 <data_abort_full_except+0x70>
    8cd4:	e59f3080 	ldr	r3, [pc, #128]	; 8d5c <data_abort_full_except+0xac>
    8cd8:	e5933004 	ldr	r3, [r3, #4]
    8cdc:	e3530000 	cmp	r3, #0, 0
    8ce0:	0a000016 	beq	8d40 <data_abort_full_except+0x90>
    8ce4:	ebffffa9 	bl	8b90 <fixup_regs>
    8ce8:	e59f306c 	ldr	r3, [pc, #108]	; 8d5c <data_abort_full_except+0xac>
    8cec:	e5933004 	ldr	r3, [r3, #4]
    8cf0:	e1a00004 	mov	r0, r4
    8cf4:	e12fff33 	blx	r3
    8cf8:	e1a00004 	mov	r0, r4
    8cfc:	ebffffaf 	bl	8bc0 <switchto>
    8d00:	e59f3058 	ldr	r3, [pc, #88]	; 8d60 <data_abort_full_except+0xb0>
    8d04:	e58d3000 	str	r3, [sp]
    8d08:	e3a0303e 	mov	r3, #62, 0	; 0x3e
    8d0c:	e59f2050 	ldr	r2, [pc, #80]	; 8d64 <data_abort_full_except+0xb4>
    8d10:	e59f1050 	ldr	r1, [pc, #80]	; 8d68 <data_abort_full_except+0xb8>
    8d14:	e59f0050 	ldr	r0, [pc, #80]	; 8d6c <data_abort_full_except+0xbc>
    8d18:	eb00023c 	bl	9610 <printk>
    8d1c:	eb00036b 	bl	9ad0 <clean_reboot>
    8d20:	e59f3048 	ldr	r3, [pc, #72]	; 8d70 <data_abort_full_except+0xc0>
    8d24:	e58d3000 	str	r3, [sp]
    8d28:	e3a0303f 	mov	r3, #63, 0	; 0x3f
    8d2c:	e59f2030 	ldr	r2, [pc, #48]	; 8d64 <data_abort_full_except+0xb4>
    8d30:	e59f1030 	ldr	r1, [pc, #48]	; 8d68 <data_abort_full_except+0xb8>
    8d34:	e59f0030 	ldr	r0, [pc, #48]	; 8d6c <data_abort_full_except+0xbc>
    8d38:	eb000234 	bl	9610 <printk>
    8d3c:	eb000363 	bl	9ad0 <clean_reboot>
    8d40:	e58d2000 	str	r2, [sp]
    8d44:	e3a03042 	mov	r3, #66, 0	; 0x42
    8d48:	e59f2014 	ldr	r2, [pc, #20]	; 8d64 <data_abort_full_except+0xb4>
    8d4c:	e59f1014 	ldr	r1, [pc, #20]	; 8d68 <data_abort_full_except+0xb8>
    8d50:	e59f001c 	ldr	r0, [pc, #28]	; 8d74 <data_abort_full_except+0xc4>
    8d54:	eb00022d 	bl	9610 <printk>
    8d58:	eb00035c 	bl	9ad0 <clean_reboot>
    8d5c:	0000b320 	.word	0x0000b320
    8d60:	0000a47c 	.word	0x0000a47c
    8d64:	0000a6f8 	.word	0x0000a6f8
    8d68:	0000a468 	.word	0x0000a468
    8d6c:	0000a0f0 	.word	0x0000a0f0
    8d70:	0000a498 	.word	0x0000a498
    8d74:	0000a4e8 	.word	0x0000a4e8

00008d78 <syscall_full_except>:
    8d78:	e52de004 	push	{lr}		; (str lr, [sp, #-4]!)
    8d7c:	e24dd014 	sub	sp, sp, #20, 0
    8d80:	e5903040 	ldr	r3, [r0, #64]	; 0x40
    8d84:	e1530001 	cmp	r3, r1
    8d88:	1a00000c 	bne	8dc0 <syscall_full_except+0x48>
    8d8c:	e1a04000 	mov	r4, r0
    8d90:	e1a05002 	mov	r5, r2
    8d94:	e590303c 	ldr	r3, [r0, #60]	; 0x3c
    8d98:	e1530002 	cmp	r3, r2
    8d9c:	0a00000f 	beq	8de0 <syscall_full_except+0x68>
    8da0:	e59f30d0 	ldr	r3, [pc, #208]	; 8e78 <syscall_full_except+0x100>
    8da4:	e58d3000 	str	r3, [sp]
    8da8:	e3a0304d 	mov	r3, #77, 0	; 0x4d
    8dac:	e59f20c8 	ldr	r2, [pc, #200]	; 8e7c <syscall_full_except+0x104>
    8db0:	e59f10c8 	ldr	r1, [pc, #200]	; 8e80 <syscall_full_except+0x108>
    8db4:	e59f00c8 	ldr	r0, [pc, #200]	; 8e84 <syscall_full_except+0x10c>
    8db8:	eb000214 	bl	9610 <printk>
    8dbc:	eb000343 	bl	9ad0 <clean_reboot>
    8dc0:	e59f30c0 	ldr	r3, [pc, #192]	; 8e88 <syscall_full_except+0x110>
    8dc4:	e58d3000 	str	r3, [sp]
    8dc8:	e3a0304c 	mov	r3, #76, 0	; 0x4c
    8dcc:	e59f20a8 	ldr	r2, [pc, #168]	; 8e7c <syscall_full_except+0x104>
    8dd0:	e59f10a8 	ldr	r1, [pc, #168]	; 8e80 <syscall_full_except+0x108>
    8dd4:	e59f00a8 	ldr	r0, [pc, #168]	; 8e84 <syscall_full_except+0x10c>
    8dd8:	eb00020c 	bl	9610 <printk>
    8ddc:	eb00033b 	bl	9ad0 <clean_reboot>
    8de0:	e1a00001 	mov	r0, r1
    8de4:	ebffff4d 	bl	8b20 <mode_get>
    8de8:	e3500010 	cmp	r0, #16, 0
    8dec:	1a00000c 	bne	8e24 <syscall_full_except+0xac>
    8df0:	e28d200c 	add	r2, sp, #12, 0
    8df4:	e59f3090 	ldr	r3, [pc, #144]	; 8e8c <syscall_full_except+0x114>
    8df8:	e1520003 	cmp	r2, r3
    8dfc:	9a00000e 	bls	8e3c <syscall_full_except+0xc4>
    8e00:	e59f3088 	ldr	r3, [pc, #136]	; 8e90 <syscall_full_except+0x118>
    8e04:	e5933008 	ldr	r3, [r3, #8]
    8e08:	e3530000 	cmp	r3, #0, 0
    8e0c:	0a000012 	beq	8e5c <syscall_full_except+0xe4>
    8e10:	e1a00004 	mov	r0, r4
    8e14:	e12fff33 	blx	r3
    8e18:	e5840000 	str	r0, [r4]
    8e1c:	e1a00004 	mov	r0, r4
    8e20:	ebffff66 	bl	8bc0 <switchto>
    8e24:	e3a03050 	mov	r3, #80, 0	; 0x50
    8e28:	e59f204c 	ldr	r2, [pc, #76]	; 8e7c <syscall_full_except+0x104>
    8e2c:	e59f104c 	ldr	r1, [pc, #76]	; 8e80 <syscall_full_except+0x108>
    8e30:	e59f005c 	ldr	r0, [pc, #92]	; 8e94 <syscall_full_except+0x11c>
    8e34:	eb0001f5 	bl	9610 <printk>
    8e38:	eb000324 	bl	9ad0 <clean_reboot>
    8e3c:	e59f3054 	ldr	r3, [pc, #84]	; 8e98 <syscall_full_except+0x120>
    8e40:	e58d3000 	str	r3, [sp]
    8e44:	e3a03055 	mov	r3, #85, 0	; 0x55
    8e48:	e59f202c 	ldr	r2, [pc, #44]	; 8e7c <syscall_full_except+0x104>
    8e4c:	e59f102c 	ldr	r1, [pc, #44]	; 8e80 <syscall_full_except+0x108>
    8e50:	e59f0044 	ldr	r0, [pc, #68]	; 8e9c <syscall_full_except+0x124>
    8e54:	eb0001ed 	bl	9610 <printk>
    8e58:	eb00031c 	bl	9ad0 <clean_reboot>
    8e5c:	e58d5000 	str	r5, [sp]
    8e60:	e3a0305a 	mov	r3, #90, 0	; 0x5a
    8e64:	e59f2010 	ldr	r2, [pc, #16]	; 8e7c <syscall_full_except+0x104>
    8e68:	e59f1010 	ldr	r1, [pc, #16]	; 8e80 <syscall_full_except+0x108>
    8e6c:	e59f002c 	ldr	r0, [pc, #44]	; 8ea0 <syscall_full_except+0x128>
    8e70:	eb0001e6 	bl	9610 <printk>
    8e74:	eb000315 	bl	9ad0 <clean_reboot>
    8e78:	0000a498 	.word	0x0000a498
    8e7c:	0000a710 	.word	0x0000a710
    8e80:	0000a468 	.word	0x0000a468
    8e84:	0000a0f0 	.word	0x0000a0f0
    8e88:	0000a47c 	.word	0x0000a47c
    8e8c:	000186a0 	.word	0x000186a0
    8e90:	0000b320 	.word	0x0000b320
    8e94:	0000a51c 	.word	0x0000a51c
    8e98:	0000a59c 	.word	0x0000a59c
    8e9c:	0000a558 	.word	0x0000a558
    8ea0:	0000a5b4 	.word	0x0000a5b4

00008ea4 <full_except_set_prefetch>:
    8ea4:	e59f300c 	ldr	r3, [pc, #12]	; 8eb8 <full_except_set_prefetch+0x14>
    8ea8:	e5932000 	ldr	r2, [r3]
    8eac:	e5830000 	str	r0, [r3]
    8eb0:	e1a00002 	mov	r0, r2
    8eb4:	e12fff1e 	bx	lr
    8eb8:	0000b320 	.word	0x0000b320

00008ebc <full_except_set_data_abort>:
    8ebc:	e59f300c 	ldr	r3, [pc, #12]	; 8ed0 <full_except_set_data_abort+0x14>
    8ec0:	e5932004 	ldr	r2, [r3, #4]
    8ec4:	e5830004 	str	r0, [r3, #4]
    8ec8:	e1a00002 	mov	r0, r2
    8ecc:	e12fff1e 	bx	lr
    8ed0:	0000b320 	.word	0x0000b320

00008ed4 <full_except_set_syscall>:
    8ed4:	e59f300c 	ldr	r3, [pc, #12]	; 8ee8 <full_except_set_syscall+0x14>
    8ed8:	e5932008 	ldr	r2, [r3, #8]
    8edc:	e5830008 	str	r0, [r3, #8]
    8ee0:	e1a00002 	mov	r0, r2
    8ee4:	e12fff1e 	bx	lr
    8ee8:	0000b320 	.word	0x0000b320

00008eec <full_except_install>:
    8eec:	e52de004 	push	{lr}		; (str lr, [sp, #-4]!)
    8ef0:	e24dd00c 	sub	sp, sp, #12, 0
    8ef4:	e3500000 	cmp	r0, #0, 0
    8ef8:	1a000007 	bne	8f1c <full_except_install+0x30>
    8efc:	ee1c3f10 	mrc	15, 0, r3, cr12, cr0, {0}
    8f00:	e3530000 	cmp	r3, #0, 0
    8f04:	0a000030 	beq	8fcc <full_except_install+0xe0>
    8f08:	e59f217c 	ldr	r2, [pc, #380]	; 908c <full_except_install+0x1a0>
    8f0c:	e1530002 	cmp	r3, r2
    8f10:	1a000056 	bne	9070 <full_except_install+0x184>
    8f14:	e28dd00c 	add	sp, sp, #12, 0
    8f18:	e49df004 	pop	{pc}		; (ldr pc, [sp], #4)
    8f1c:	e59f3168 	ldr	r3, [pc, #360]	; 908c <full_except_install+0x1a0>
    8f20:	e313001f 	tst	r3, #31, 0
    8f24:	1a000017 	bne	8f88 <full_except_install+0x9c>
    8f28:	e3a03001 	mov	r3, #1, 0
    8f2c:	e3530000 	cmp	r3, #0, 0
    8f30:	0a000016 	beq	8f90 <full_except_install+0xa4>
    8f34:	ee1c3f10 	mrc	15, 0, r3, cr12, cr0, {0}
    8f38:	e59f214c 	ldr	r2, [pc, #332]	; 908c <full_except_install+0x1a0>
    8f3c:	e1530002 	cmp	r3, r2
    8f40:	0afffff3 	beq	8f14 <full_except_install+0x28>
    8f44:	e3530000 	cmp	r3, #0, 0
    8f48:	1a000018 	bne	8fb0 <full_except_install+0xc4>
    8f4c:	e59f3138 	ldr	r3, [pc, #312]	; 908c <full_except_install+0x1a0>
    8f50:	ee0c3f10 	mcr	15, 0, r3, cr12, cr0, {0}
    8f54:	e3a02000 	mov	r2, #0, 0
    8f58:	ee072f95 	mcr	15, 0, r2, cr7, cr5, {4}
    8f5c:	ee1c2f10 	mrc	15, 0, r2, cr12, cr0, {0}
    8f60:	e1520003 	cmp	r2, r3
    8f64:	0affffea 	beq	8f14 <full_except_install+0x28>
    8f68:	e58d2004 	str	r2, [sp, #4]
    8f6c:	e58d3000 	str	r3, [sp]
    8f70:	e3a03036 	mov	r3, #54, 0	; 0x36
    8f74:	e59f2114 	ldr	r2, [pc, #276]	; 9090 <full_except_install+0x1a4>
    8f78:	e59f1114 	ldr	r1, [pc, #276]	; 9094 <full_except_install+0x1a8>
    8f7c:	e59f0114 	ldr	r0, [pc, #276]	; 9098 <full_except_install+0x1ac>
    8f80:	eb0001a2 	bl	9610 <printk>
    8f84:	eb0002d1 	bl	9ad0 <clean_reboot>
    8f88:	e3a03000 	mov	r3, #0, 0
    8f8c:	eaffffe6 	b	8f2c <full_except_install+0x40>
    8f90:	e59f30f4 	ldr	r3, [pc, #244]	; 908c <full_except_install+0x1a0>
    8f94:	e58d3000 	str	r3, [sp]
    8f98:	e3a03028 	mov	r3, #40, 0	; 0x28
    8f9c:	e59f20ec 	ldr	r2, [pc, #236]	; 9090 <full_except_install+0x1a4>
    8fa0:	e59f10ec 	ldr	r1, [pc, #236]	; 9094 <full_except_install+0x1a8>
    8fa4:	e59f00f0 	ldr	r0, [pc, #240]	; 909c <full_except_install+0x1b0>
    8fa8:	eb000198 	bl	9610 <printk>
    8fac:	eb0002c7 	bl	9ad0 <clean_reboot>
    8fb0:	e58d3000 	str	r3, [sp]
    8fb4:	e3a03031 	mov	r3, #49, 0	; 0x31
    8fb8:	e59f20d0 	ldr	r2, [pc, #208]	; 9090 <full_except_install+0x1a4>
    8fbc:	e59f10d0 	ldr	r1, [pc, #208]	; 9094 <full_except_install+0x1a8>
    8fc0:	e59f00d8 	ldr	r0, [pc, #216]	; 90a0 <full_except_install+0x1b4>
    8fc4:	eb000191 	bl	9610 <printk>
    8fc8:	eb0002c0 	bl	9ad0 <clean_reboot>
    8fcc:	e59f30b8 	ldr	r3, [pc, #184]	; 908c <full_except_install+0x1a0>
    8fd0:	e313001f 	tst	r3, #31, 0
    8fd4:	03a00001 	moveq	r0, #1, 0
    8fd8:	e3500000 	cmp	r0, #0, 0
    8fdc:	0a000014 	beq	9034 <full_except_install+0x148>
    8fe0:	ee1c3f10 	mrc	15, 0, r3, cr12, cr0, {0}
    8fe4:	e59f20a0 	ldr	r2, [pc, #160]	; 908c <full_except_install+0x1a0>
    8fe8:	e1530002 	cmp	r3, r2
    8fec:	0affffc8 	beq	8f14 <full_except_install+0x28>
    8ff0:	e3530000 	cmp	r3, #0, 0
    8ff4:	1a000016 	bne	9054 <full_except_install+0x168>
    8ff8:	e59f308c 	ldr	r3, [pc, #140]	; 908c <full_except_install+0x1a0>
    8ffc:	ee0c3f10 	mcr	15, 0, r3, cr12, cr0, {0}
    9000:	e3a02000 	mov	r2, #0, 0
    9004:	ee072f95 	mcr	15, 0, r2, cr7, cr5, {4}
    9008:	ee1c2f10 	mrc	15, 0, r2, cr12, cr0, {0}
    900c:	e1520003 	cmp	r2, r3
    9010:	0affffbf 	beq	8f14 <full_except_install+0x28>
    9014:	e58d2004 	str	r2, [sp, #4]
    9018:	e58d3000 	str	r3, [sp]
    901c:	e3a03036 	mov	r3, #54, 0	; 0x36
    9020:	e59f2068 	ldr	r2, [pc, #104]	; 9090 <full_except_install+0x1a4>
    9024:	e59f1068 	ldr	r1, [pc, #104]	; 9094 <full_except_install+0x1a8>
    9028:	e59f0068 	ldr	r0, [pc, #104]	; 9098 <full_except_install+0x1ac>
    902c:	eb000177 	bl	9610 <printk>
    9030:	eb0002a6 	bl	9ad0 <clean_reboot>
    9034:	e59f3050 	ldr	r3, [pc, #80]	; 908c <full_except_install+0x1a0>
    9038:	e58d3000 	str	r3, [sp]
    903c:	e3a03028 	mov	r3, #40, 0	; 0x28
    9040:	e59f2048 	ldr	r2, [pc, #72]	; 9090 <full_except_install+0x1a4>
    9044:	e59f1048 	ldr	r1, [pc, #72]	; 9094 <full_except_install+0x1a8>
    9048:	e59f004c 	ldr	r0, [pc, #76]	; 909c <full_except_install+0x1b0>
    904c:	eb00016f 	bl	9610 <printk>
    9050:	eb00029e 	bl	9ad0 <clean_reboot>
    9054:	e58d3000 	str	r3, [sp]
    9058:	e3a03031 	mov	r3, #49, 0	; 0x31
    905c:	e59f202c 	ldr	r2, [pc, #44]	; 9090 <full_except_install+0x1a4>
    9060:	e59f102c 	ldr	r1, [pc, #44]	; 9094 <full_except_install+0x1a8>
    9064:	e59f0034 	ldr	r0, [pc, #52]	; 90a0 <full_except_install+0x1b4>
    9068:	eb000168 	bl	9610 <printk>
    906c:	eb000297 	bl	9ad0 <clean_reboot>
    9070:	e58d3000 	str	r3, [sp]
    9074:	e3a03089 	mov	r3, #137, 0	; 0x89
    9078:	e59f2024 	ldr	r2, [pc, #36]	; 90a4 <full_except_install+0x1b8>
    907c:	e59f1024 	ldr	r1, [pc, #36]	; 90a8 <full_except_install+0x1bc>
    9080:	e59f0024 	ldr	r0, [pc, #36]	; 90ac <full_except_install+0x1c0>
    9084:	eb000161 	bl	9610 <printk>
    9088:	eb000290 	bl	9ad0 <clean_reboot>
    908c:	0000b020 	.word	0x0000b020
    9090:	0000a724 	.word	0x0000a724
    9094:	0000a5e4 	.word	0x0000a5e4
    9098:	0000a654 	.word	0x0000a654
    909c:	0000a5f4 	.word	0x0000a5f4
    90a0:	0000a61c 	.word	0x0000a61c
    90a4:	0000a734 	.word	0x0000a734
    90a8:	0000a468 	.word	0x0000a468
    90ac:	0000a680 	.word	0x0000a680

000090b0 <kmalloc_heap_end>:
    90b0:	e59f3004 	ldr	r3, [pc, #4]	; 90bc <kmalloc_heap_end+0xc>
    90b4:	e5930000 	ldr	r0, [r3]
    90b8:	e12fff1e 	bx	lr
    90bc:	0000b32c 	.word	0x0000b32c

000090c0 <kmalloc_heap_start>:
    90c0:	e59f3004 	ldr	r3, [pc, #4]	; 90cc <kmalloc_heap_start+0xc>
    90c4:	e5930004 	ldr	r0, [r3, #4]
    90c8:	e12fff1e 	bx	lr
    90cc:	0000b32c 	.word	0x0000b32c

000090d0 <kmalloc_heap_ptr>:
    90d0:	e59f3004 	ldr	r3, [pc, #4]	; 90dc <kmalloc_heap_ptr+0xc>
    90d4:	e5930008 	ldr	r0, [r3, #8]
    90d8:	e12fff1e 	bx	lr
    90dc:	0000b32c 	.word	0x0000b32c

000090e0 <kmalloc_init_set_start>:
    90e0:	e92d4030 	push	{r4, r5, lr}
    90e4:	e24dd00c 	sub	sp, sp, #12, 0
    90e8:	e1a04000 	mov	r4, r0
    90ec:	e1a05001 	mov	r5, r1
    90f0:	eb00027e 	bl	9af0 <program_end>
    90f4:	e1540000 	cmp	r4, r0
    90f8:	3a000010 	bcc	9140 <kmalloc_init_set_start+0x60>
    90fc:	e3550000 	cmp	r5, #0, 0
    9100:	0a000014 	beq	9158 <kmalloc_init_set_start+0x78>
    9104:	e59f30ac 	ldr	r3, [pc, #172]	; 91b8 <kmalloc_init_set_start+0xd8>
    9108:	e5933004 	ldr	r3, [r3, #4]
    910c:	e1530004 	cmp	r3, r4
    9110:	8a000018 	bhi	9178 <kmalloc_init_set_start+0x98>
    9114:	e59f309c 	ldr	r3, [pc, #156]	; 91b8 <kmalloc_init_set_start+0xd8>
    9118:	e5933008 	ldr	r3, [r3, #8]
    911c:	e1530004 	cmp	r3, r4
    9120:	8a00001a 	bhi	9190 <kmalloc_init_set_start+0xb0>
    9124:	e59f308c 	ldr	r3, [pc, #140]	; 91b8 <kmalloc_init_set_start+0xd8>
    9128:	e5834008 	str	r4, [r3, #8]
    912c:	e5834004 	str	r4, [r3, #4]
    9130:	e0844005 	add	r4, r4, r5
    9134:	e5834000 	str	r4, [r3]
    9138:	e28dd00c 	add	sp, sp, #12, 0
    913c:	e8bd8030 	pop	{r4, r5, pc}
    9140:	e3a03030 	mov	r3, #48, 0	; 0x30
    9144:	e59f2070 	ldr	r2, [pc, #112]	; 91bc <kmalloc_init_set_start+0xdc>
    9148:	e59f1070 	ldr	r1, [pc, #112]	; 91c0 <kmalloc_init_set_start+0xe0>
    914c:	e59f0070 	ldr	r0, [pc, #112]	; 91c4 <kmalloc_init_set_start+0xe4>
    9150:	eb00012e 	bl	9610 <printk>
    9154:	eb00025d 	bl	9ad0 <clean_reboot>
    9158:	e59f3068 	ldr	r3, [pc, #104]	; 91c8 <kmalloc_init_set_start+0xe8>
    915c:	e58d3000 	str	r3, [sp]
    9160:	e3a03032 	mov	r3, #50, 0	; 0x32
    9164:	e59f2050 	ldr	r2, [pc, #80]	; 91bc <kmalloc_init_set_start+0xdc>
    9168:	e59f1050 	ldr	r1, [pc, #80]	; 91c0 <kmalloc_init_set_start+0xe0>
    916c:	e59f0058 	ldr	r0, [pc, #88]	; 91cc <kmalloc_init_set_start+0xec>
    9170:	eb000126 	bl	9610 <printk>
    9174:	eb000255 	bl	9ad0 <clean_reboot>
    9178:	e3a03034 	mov	r3, #52, 0	; 0x34
    917c:	e59f2038 	ldr	r2, [pc, #56]	; 91bc <kmalloc_init_set_start+0xdc>
    9180:	e59f1038 	ldr	r1, [pc, #56]	; 91c0 <kmalloc_init_set_start+0xe0>
    9184:	e59f0044 	ldr	r0, [pc, #68]	; 91d0 <kmalloc_init_set_start+0xf0>
    9188:	eb000120 	bl	9610 <printk>
    918c:	eb00024f 	bl	9ad0 <clean_reboot>
    9190:	e59f3020 	ldr	r3, [pc, #32]	; 91b8 <kmalloc_init_set_start+0xd8>
    9194:	e5933000 	ldr	r3, [r3]
    9198:	e58d3004 	str	r3, [sp, #4]
    919c:	e58d4000 	str	r4, [sp]
    91a0:	e3a03038 	mov	r3, #56, 0	; 0x38
    91a4:	e59f2010 	ldr	r2, [pc, #16]	; 91bc <kmalloc_init_set_start+0xdc>
    91a8:	e59f1010 	ldr	r1, [pc, #16]	; 91c0 <kmalloc_init_set_start+0xe0>
    91ac:	e59f0020 	ldr	r0, [pc, #32]	; 91d4 <kmalloc_init_set_start+0xf4>
    91b0:	eb000116 	bl	9610 <printk>
    91b4:	eb000245 	bl	9ad0 <clean_reboot>
    91b8:	0000b32c 	.word	0x0000b32c
    91bc:	0000a958 	.word	0x0000a958
    91c0:	0000a748 	.word	0x0000a748
    91c4:	0000a754 	.word	0x0000a754
    91c8:	0000a77c 	.word	0x0000a77c
    91cc:	0000a0f0 	.word	0x0000a0f0
    91d0:	0000a788 	.word	0x0000a788
    91d4:	0000a7d4 	.word	0x0000a7d4

000091d8 <kmalloc_notzero>:
    91d8:	e52de004 	push	{lr}		; (str lr, [sp, #-4]!)
    91dc:	e24dd00c 	sub	sp, sp, #12, 0
    91e0:	e3500000 	cmp	r0, #0, 0
    91e4:	0a00000f 	beq	9228 <kmalloc_notzero+0x50>
    91e8:	e2800007 	add	r0, r0, #7, 0
    91ec:	e3c03007 	bic	r3, r0, #7, 0
    91f0:	e59f20ac 	ldr	r2, [pc, #172]	; 92a4 <kmalloc_notzero+0xcc>
    91f4:	e5920008 	ldr	r0, [r2, #8]
    91f8:	e3100007 	tst	r0, #7, 0
    91fc:	1a000011 	bne	9248 <kmalloc_notzero+0x70>
    9200:	e3500000 	cmp	r0, #0, 0
    9204:	0a000017 	beq	9268 <kmalloc_notzero+0x90>
    9208:	e0802003 	add	r2, r0, r3
    920c:	e59f1090 	ldr	r1, [pc, #144]	; 92a4 <kmalloc_notzero+0xcc>
    9210:	e5812008 	str	r2, [r1, #8]
    9214:	e5911000 	ldr	r1, [r1]
    9218:	e1520001 	cmp	r2, r1
    921c:	8a000017 	bhi	9280 <kmalloc_notzero+0xa8>
    9220:	e28dd00c 	add	sp, sp, #12, 0
    9224:	e49df004 	pop	{pc}		; (ldr pc, [sp], #4)
    9228:	e59f3078 	ldr	r3, [pc, #120]	; 92a8 <kmalloc_notzero+0xd0>
    922c:	e58d3000 	str	r3, [sp]
    9230:	e3a03041 	mov	r3, #65, 0	; 0x41
    9234:	e59f2070 	ldr	r2, [pc, #112]	; 92ac <kmalloc_notzero+0xd4>
    9238:	e59f1070 	ldr	r1, [pc, #112]	; 92b0 <kmalloc_notzero+0xd8>
    923c:	e59f0070 	ldr	r0, [pc, #112]	; 92b4 <kmalloc_notzero+0xdc>
    9240:	eb0000f2 	bl	9610 <printk>
    9244:	eb000221 	bl	9ad0 <clean_reboot>
    9248:	e59f3068 	ldr	r3, [pc, #104]	; 92b8 <kmalloc_notzero+0xe0>
    924c:	e58d3000 	str	r3, [sp]
    9250:	e3a03044 	mov	r3, #68, 0	; 0x44
    9254:	e59f2050 	ldr	r2, [pc, #80]	; 92ac <kmalloc_notzero+0xd4>
    9258:	e59f1050 	ldr	r1, [pc, #80]	; 92b0 <kmalloc_notzero+0xd8>
    925c:	e59f0050 	ldr	r0, [pc, #80]	; 92b4 <kmalloc_notzero+0xdc>
    9260:	eb0000ea 	bl	9610 <printk>
    9264:	eb000219 	bl	9ad0 <clean_reboot>
    9268:	e3a03048 	mov	r3, #72, 0	; 0x48
    926c:	e59f2038 	ldr	r2, [pc, #56]	; 92ac <kmalloc_notzero+0xd4>
    9270:	e59f1038 	ldr	r1, [pc, #56]	; 92b0 <kmalloc_notzero+0xd8>
    9274:	e59f0040 	ldr	r0, [pc, #64]	; 92bc <kmalloc_notzero+0xe4>
    9278:	eb0000e4 	bl	9610 <printk>
    927c:	eb000213 	bl	9ad0 <clean_reboot>
    9280:	e0422001 	sub	r2, r2, r1
    9284:	e58d2004 	str	r2, [sp, #4]
    9288:	e58d3000 	str	r3, [sp]
    928c:	e3a0304c 	mov	r3, #76, 0	; 0x4c
    9290:	e59f2014 	ldr	r2, [pc, #20]	; 92ac <kmalloc_notzero+0xd4>
    9294:	e59f1014 	ldr	r1, [pc, #20]	; 92b0 <kmalloc_notzero+0xd8>
    9298:	e59f0020 	ldr	r0, [pc, #32]	; 92c0 <kmalloc_notzero+0xe8>
    929c:	eb0000db 	bl	9610 <printk>
    92a0:	eb00020a 	bl	9ad0 <clean_reboot>
    92a4:	0000b32c 	.word	0x0000b32c
    92a8:	0000a780 	.word	0x0000a780
    92ac:	0000a970 	.word	0x0000a970
    92b0:	0000a748 	.word	0x0000a748
    92b4:	0000a0f0 	.word	0x0000a0f0
    92b8:	0000a818 	.word	0x0000a818
    92bc:	0000a830 	.word	0x0000a830
    92c0:	0000a85c 	.word	0x0000a85c

000092c4 <kmalloc>:
    92c4:	e92d4030 	push	{r4, r5, lr}
    92c8:	e24dd00c 	sub	sp, sp, #12, 0
    92cc:	e2504000 	subs	r4, r0, #0, 0
    92d0:	0a000008 	beq	92f8 <kmalloc+0x34>
    92d4:	e1a00004 	mov	r0, r4
    92d8:	ebffffbe 	bl	91d8 <kmalloc_notzero>
    92dc:	e1a05000 	mov	r5, r0
    92e0:	e1a02004 	mov	r2, r4
    92e4:	e3a01000 	mov	r1, #0, 0
    92e8:	eb0000a0 	bl	9570 <memset>
    92ec:	e1a00005 	mov	r0, r5
    92f0:	e28dd00c 	add	sp, sp, #12, 0
    92f4:	e8bd8030 	pop	{r4, r5, pc}
    92f8:	e59f3018 	ldr	r3, [pc, #24]	; 9318 <kmalloc+0x54>
    92fc:	e58d3000 	str	r3, [sp]
    9300:	e3a03054 	mov	r3, #84, 0	; 0x54
    9304:	e59f2010 	ldr	r2, [pc, #16]	; 931c <kmalloc+0x58>
    9308:	e59f1010 	ldr	r1, [pc, #16]	; 9320 <kmalloc+0x5c>
    930c:	e59f0010 	ldr	r0, [pc, #16]	; 9324 <kmalloc+0x60>
    9310:	eb0000be 	bl	9610 <printk>
    9314:	eb0001ed 	bl	9ad0 <clean_reboot>
    9318:	0000a780 	.word	0x0000a780
    931c:	0000a980 	.word	0x0000a980
    9320:	0000a748 	.word	0x0000a748
    9324:	0000a0f0 	.word	0x0000a0f0

00009328 <kmalloc_aligned>:
    9328:	e52de004 	push	{lr}		; (str lr, [sp, #-4]!)
    932c:	e24dd00c 	sub	sp, sp, #12, 0
    9330:	e3500000 	cmp	r0, #0, 0
    9334:	0a000014 	beq	938c <kmalloc_aligned+0x64>
    9338:	e2613000 	rsb	r3, r1, #0, 0
    933c:	e1d13003 	bics	r3, r1, r3
    9340:	1a000019 	bne	93ac <kmalloc_aligned+0x84>
    9344:	e3510008 	cmp	r1, #8, 0
    9348:	33a01008 	movcc	r1, #8, 0
    934c:	e59f30b8 	ldr	r3, [pc, #184]	; 940c <kmalloc_aligned+0xe4>
    9350:	e5932008 	ldr	r2, [r3, #8]
    9354:	e2613000 	rsb	r3, r1, #0, 0
    9358:	e1d1c003 	bics	ip, r1, r3
    935c:	1a00001a 	bne	93cc <kmalloc_aligned+0xa4>
    9360:	e0822001 	add	r2, r2, r1
    9364:	e2422001 	sub	r2, r2, #1, 0
    9368:	e0033002 	and	r3, r3, r2
    936c:	e2411001 	sub	r1, r1, #1, 0
    9370:	e1110003 	tst	r1, r3
    9374:	1a00001c 	bne	93ec <kmalloc_aligned+0xc4>
    9378:	e59f208c 	ldr	r2, [pc, #140]	; 940c <kmalloc_aligned+0xe4>
    937c:	e5823008 	str	r3, [r2, #8]
    9380:	ebffffcf 	bl	92c4 <kmalloc>
    9384:	e28dd00c 	add	sp, sp, #12, 0
    9388:	e49df004 	pop	{pc}		; (ldr pc, [sp], #4)
    938c:	e59f307c 	ldr	r3, [pc, #124]	; 9410 <kmalloc_aligned+0xe8>
    9390:	e58d3000 	str	r3, [sp]
    9394:	e3a0305e 	mov	r3, #94, 0	; 0x5e
    9398:	e59f2074 	ldr	r2, [pc, #116]	; 9414 <kmalloc_aligned+0xec>
    939c:	e59f1074 	ldr	r1, [pc, #116]	; 9418 <kmalloc_aligned+0xf0>
    93a0:	e59f0074 	ldr	r0, [pc, #116]	; 941c <kmalloc_aligned+0xf4>
    93a4:	eb000099 	bl	9610 <printk>
    93a8:	eb0001c8 	bl	9ad0 <clean_reboot>
    93ac:	e59f306c 	ldr	r3, [pc, #108]	; 9420 <kmalloc_aligned+0xf8>
    93b0:	e58d3000 	str	r3, [sp]
    93b4:	e3a0305f 	mov	r3, #95, 0	; 0x5f
    93b8:	e59f2054 	ldr	r2, [pc, #84]	; 9414 <kmalloc_aligned+0xec>
    93bc:	e59f1054 	ldr	r1, [pc, #84]	; 9418 <kmalloc_aligned+0xf0>
    93c0:	e59f005c 	ldr	r0, [pc, #92]	; 9424 <kmalloc_aligned+0xfc>
    93c4:	eb000091 	bl	9610 <printk>
    93c8:	eb0001c0 	bl	9ad0 <clean_reboot>
    93cc:	e59f3054 	ldr	r3, [pc, #84]	; 9428 <kmalloc_aligned+0x100>
    93d0:	e58d3000 	str	r3, [sp]
    93d4:	e3a03011 	mov	r3, #17, 0
    93d8:	e59f204c 	ldr	r2, [pc, #76]	; 942c <kmalloc_aligned+0x104>
    93dc:	e59f1034 	ldr	r1, [pc, #52]	; 9418 <kmalloc_aligned+0xf0>
    93e0:	e59f0034 	ldr	r0, [pc, #52]	; 941c <kmalloc_aligned+0xf4>
    93e4:	eb000089 	bl	9610 <printk>
    93e8:	eb0001b8 	bl	9ad0 <clean_reboot>
    93ec:	e59f303c 	ldr	r3, [pc, #60]	; 9430 <kmalloc_aligned+0x108>
    93f0:	e58d3000 	str	r3, [sp]
    93f4:	e3a03066 	mov	r3, #102, 0	; 0x66
    93f8:	e59f2014 	ldr	r2, [pc, #20]	; 9414 <kmalloc_aligned+0xec>
    93fc:	e59f1014 	ldr	r1, [pc, #20]	; 9418 <kmalloc_aligned+0xf0>
    9400:	e59f002c 	ldr	r0, [pc, #44]	; 9434 <kmalloc_aligned+0x10c>
    9404:	eb000081 	bl	9610 <printk>
    9408:	eb0001b0 	bl	9ad0 <clean_reboot>
    940c:	0000b32c 	.word	0x0000b32c
    9410:	0000a780 	.word	0x0000a780
    9414:	0000a988 	.word	0x0000a988
    9418:	0000a748 	.word	0x0000a748
    941c:	0000a0f0 	.word	0x0000a0f0
    9420:	0000a8e4 	.word	0x0000a8e4
    9424:	0000a8a4 	.word	0x0000a8a4
    9428:	0000a8f8 	.word	0x0000a8f8
    942c:	0000a998 	.word	0x0000a998
    9430:	0000a93c 	.word	0x0000a93c
    9434:	0000a904 	.word	0x0000a904

00009438 <kfree_all>:
    9438:	e59f3008 	ldr	r3, [pc, #8]	; 9448 <kfree_all+0x10>
    943c:	e5932004 	ldr	r2, [r3, #4]
    9440:	e5832008 	str	r2, [r3, #8]
    9444:	e12fff1e 	bx	lr
    9448:	0000b32c 	.word	0x0000b32c

0000944c <memcpy256>:
    944c:	e92d40f0 	push	{r4, r5, r6, r7, lr}
    9450:	e24dd00c 	sub	sp, sp, #12, 0
    9454:	e212401f 	ands	r4, r2, #31, 0
    9458:	01a06000 	moveq	r6, r0
    945c:	01a07001 	moveq	r7, r1
    9460:	01a052a2 	lsreq	r5, r2, #5
    9464:	0a00000f 	beq	94a8 <memcpy256+0x5c>
    9468:	e3a03020 	mov	r3, #32, 0
    946c:	e58d3004 	str	r3, [sp, #4]
    9470:	e58d2000 	str	r2, [sp]
    9474:	e3a0300f 	mov	r3, #15, 0
    9478:	e59f2038 	ldr	r2, [pc, #56]	; 94b8 <memcpy256+0x6c>
    947c:	e59f1038 	ldr	r1, [pc, #56]	; 94bc <memcpy256+0x70>
    9480:	e59f0038 	ldr	r0, [pc, #56]	; 94c0 <memcpy256+0x74>
    9484:	eb000061 	bl	9610 <printk>
    9488:	eb000190 	bl	9ad0 <clean_reboot>
    948c:	e086c284 	add	ip, r6, r4, lsl #5
    9490:	e087e284 	add	lr, r7, r4, lsl #5
    9494:	e8be000f 	ldm	lr!, {r0, r1, r2, r3}
    9498:	e8ac000f 	stmia	ip!, {r0, r1, r2, r3}
    949c:	e89e000f 	ldm	lr, {r0, r1, r2, r3}
    94a0:	e88c000f 	stm	ip, {r0, r1, r2, r3}
    94a4:	e2844001 	add	r4, r4, #1, 0
    94a8:	e1540005 	cmp	r4, r5
    94ac:	3afffff6 	bcc	948c <memcpy256+0x40>
    94b0:	e28dd00c 	add	sp, sp, #12, 0
    94b4:	e8bd80f0 	pop	{r4, r5, r6, r7, pc}
    94b8:	0000a9ec 	.word	0x0000a9ec
    94bc:	0000a9a0 	.word	0x0000a9a0
    94c0:	0000a9b0 	.word	0x0000a9b0

000094c4 <memcpy>:
    94c4:	e3100007 	tst	r0, #7, 0
    94c8:	1a00000f 	bne	950c <memcpy+0x48>
    94cc:	e3110007 	tst	r1, #7, 0
    94d0:	1a00000d 	bne	950c <memcpy+0x48>
    94d4:	e2123007 	ands	r3, r2, #7, 0
    94d8:	1a00000b 	bne	950c <memcpy+0x48>
    94dc:	e1a021a2 	lsr	r2, r2, #3
    94e0:	e1530002 	cmp	r3, r2
    94e4:	212fff1e 	bxcs	lr
    94e8:	e92d0030 	push	{r4, r5}
    94ec:	e1a0c183 	lsl	ip, r3, #3
    94f0:	e18140dc 	ldrd	r4, [r1, ip]
    94f4:	e18040fc 	strd	r4, [r0, ip]
    94f8:	e2833001 	add	r3, r3, #1, 0
    94fc:	e1530002 	cmp	r3, r2
    9500:	3afffff9 	bcc	94ec <memcpy+0x28>
    9504:	e8bd0030 	pop	{r4, r5}
    9508:	e12fff1e 	bx	lr
    950c:	e2103003 	ands	r3, r0, #3, 0
    9510:	1a000011 	bne	955c <memcpy+0x98>
    9514:	e211c003 	ands	ip, r1, #3, 0
    9518:	1a00000c 	bne	9550 <memcpy+0x8c>
    951c:	e2123003 	ands	r3, r2, #3, 0
    9520:	1a00000f 	bne	9564 <memcpy+0xa0>
    9524:	e1a02122 	lsr	r2, r2, #2
    9528:	ea000002 	b	9538 <memcpy+0x74>
    952c:	e791c103 	ldr	ip, [r1, r3, lsl #2]
    9530:	e780c103 	str	ip, [r0, r3, lsl #2]
    9534:	e2833001 	add	r3, r3, #1, 0
    9538:	e1530002 	cmp	r3, r2
    953c:	3afffffa 	bcc	952c <memcpy+0x68>
    9540:	e12fff1e 	bx	lr
    9544:	e7d1c003 	ldrb	ip, [r1, r3]
    9548:	e7c0c003 	strb	ip, [r0, r3]
    954c:	e2833001 	add	r3, r3, #1, 0
    9550:	e1530002 	cmp	r3, r2
    9554:	3afffffa 	bcc	9544 <memcpy+0x80>
    9558:	e12fff1e 	bx	lr
    955c:	e3a03000 	mov	r3, #0, 0
    9560:	eafffffa 	b	9550 <memcpy+0x8c>
    9564:	e1a0300c 	mov	r3, ip
    9568:	eafffff8 	b	9550 <memcpy+0x8c>

0000956c <memcpy_end>:
    956c:	e12fff1e 	bx	lr

00009570 <memset>:
    9570:	e3520000 	cmp	r2, #0, 0
    9574:	012fff1e 	bxeq	lr
    9578:	e3510000 	cmp	r1, #0, 0
    957c:	1a000007 	bne	95a0 <memset+0x30>
    9580:	e3100007 	tst	r0, #7, 0
    9584:	1a000001 	bne	9590 <memset+0x20>
    9588:	e3120007 	tst	r2, #7, 0
    958c:	0a000011 	beq	95d8 <memset+0x68>
    9590:	e3100003 	tst	r0, #3, 0
    9594:	1a000001 	bne	95a0 <memset+0x30>
    9598:	e3120003 	tst	r2, #3, 0
    959c:	0a000001 	beq	95a8 <memset+0x38>
    95a0:	e0802002 	add	r2, r0, r2
    95a4:	ea000008 	b	95cc <memset+0x5c>
    95a8:	e1a02122 	lsr	r2, r2, #2
    95ac:	ea000001 	b	95b8 <memset+0x48>
    95b0:	e4801004 	str	r1, [r0], #4
    95b4:	e1a02003 	mov	r2, r3
    95b8:	e2423001 	sub	r3, r2, #1, 0
    95bc:	e3520000 	cmp	r2, #0, 0
    95c0:	1afffffa 	bne	95b0 <memset+0x40>
    95c4:	e12fff1e 	bx	lr
    95c8:	e4c01001 	strb	r1, [r0], #1
    95cc:	e1500002 	cmp	r0, r2
    95d0:	3afffffc 	bcc	95c8 <memset+0x58>
    95d4:	e12fff1e 	bx	lr
    95d8:	e1a021a2 	lsr	r2, r2, #3
    95dc:	e2423001 	sub	r3, r2, #1, 0
    95e0:	e3520000 	cmp	r2, #0, 0
    95e4:	012fff1e 	bxeq	lr
    95e8:	e92d0030 	push	{r4, r5}
    95ec:	e1a04001 	mov	r4, r1
    95f0:	e1a05fc1 	asr	r5, r1, #31
    95f4:	e0c040f8 	strd	r4, [r0], #8
    95f8:	e1a02003 	mov	r2, r3
    95fc:	e2433001 	sub	r3, r3, #1, 0
    9600:	e3520000 	cmp	r2, #0, 0
    9604:	1afffff8 	bne	95ec <memset+0x7c>
    9608:	e8bd0030 	pop	{r4, r5}
    960c:	e12fff1e 	bx	lr

00009610 <printk>:
    9610:	e92d000f 	push	{r0, r1, r2, r3}
    9614:	e52de004 	push	{lr}		; (str lr, [sp, #-4]!)
    9618:	e24dd00c 	sub	sp, sp, #12, 0
    961c:	e28d1014 	add	r1, sp, #20, 0
    9620:	e58d1004 	str	r1, [sp, #4]
    9624:	e59d0010 	ldr	r0, [sp, #16]
    9628:	eb000047 	bl	974c <vprintk>
    962c:	e28dd00c 	add	sp, sp, #12, 0
    9630:	e49de004 	pop	{lr}		; (ldr lr, [sp], #4)
    9634:	e28dd010 	add	sp, sp, #16, 0
    9638:	e12fff1e 	bx	lr

0000963c <emit_val>:
    963c:	e92d4010 	push	{r4, lr}
    9640:	e24dd030 	sub	sp, sp, #48, 0	; 0x30
    9644:	e350000a 	cmp	r0, #10, 0
    9648:	0a000014 	beq	96a0 <emit_val+0x64>
    964c:	e3500010 	cmp	r0, #16, 0
    9650:	0a000022 	beq	96e0 <emit_val+0xa4>
    9654:	e3500002 	cmp	r0, #2, 0
    9658:	0a000006 	beq	9678 <emit_val+0x3c>
    965c:	e58d0000 	str	r0, [sp]
    9660:	e3a0301b 	mov	r3, #27, 0
    9664:	e59f20c0 	ldr	r2, [pc, #192]	; 972c <emit_val+0xf0>
    9668:	e59f10c0 	ldr	r1, [pc, #192]	; 9730 <emit_val+0xf4>
    966c:	e59f00c0 	ldr	r0, [pc, #192]	; 9734 <emit_val+0xf8>
    9670:	ebffffe6 	bl	9610 <printk>
    9674:	eb000115 	bl	9ad0 <clean_reboot>
    9678:	e28d400c 	add	r4, sp, #12, 0
    967c:	e2012001 	and	r2, r1, #1, 0
    9680:	e59f00b0 	ldr	r0, [pc, #176]	; 9738 <emit_val+0xfc>
    9684:	e7d02002 	ldrb	r2, [r0, r2]
    9688:	e5c42000 	strb	r2, [r4]
    968c:	e2844001 	add	r4, r4, #1, 0
    9690:	e3510001 	cmp	r1, #1, 0
    9694:	e1a010a1 	lsr	r1, r1, #1
    9698:	8afffff7 	bhi	967c <emit_val+0x40>
    969c:	ea00001d 	b	9718 <emit_val+0xdc>
    96a0:	e28d400c 	add	r4, sp, #12, 0
    96a4:	e59f3090 	ldr	r3, [pc, #144]	; 973c <emit_val+0x100>
    96a8:	e0832193 	umull	r2, r3, r3, r1
    96ac:	e1a031a3 	lsr	r3, r3, #3
    96b0:	e1a00003 	mov	r0, r3
    96b4:	e0833103 	add	r3, r3, r3, lsl #2
    96b8:	e0413083 	sub	r3, r1, r3, lsl #1
    96bc:	e59fc07c 	ldr	ip, [pc, #124]	; 9740 <emit_val+0x104>
    96c0:	e7dcc003 	ldrb	ip, [ip, r3]
    96c4:	e5c4c000 	strb	ip, [r4]
    96c8:	e2844001 	add	r4, r4, #1, 0
    96cc:	e1a03001 	mov	r3, r1
    96d0:	e1a01000 	mov	r1, r0
    96d4:	e3530009 	cmp	r3, #9, 0
    96d8:	8afffff1 	bhi	96a4 <emit_val+0x68>
    96dc:	ea00000d 	b	9718 <emit_val+0xdc>
    96e0:	e28d400c 	add	r4, sp, #12, 0
    96e4:	e201200f 	and	r2, r1, #15, 0
    96e8:	e59f0054 	ldr	r0, [pc, #84]	; 9744 <emit_val+0x108>
    96ec:	e7d02002 	ldrb	r2, [r0, r2]
    96f0:	e5c42000 	strb	r2, [r4]
    96f4:	e2844001 	add	r4, r4, #1, 0
    96f8:	e351000f 	cmp	r1, #15, 0
    96fc:	e1a01221 	lsr	r1, r1, #4
    9700:	8afffff7 	bhi	96e4 <emit_val+0xa8>
    9704:	ea000003 	b	9718 <emit_val+0xdc>
    9708:	e59f3038 	ldr	r3, [pc, #56]	; 9748 <emit_val+0x10c>
    970c:	e5933000 	ldr	r3, [r3]
    9710:	e5740001 	ldrb	r0, [r4, #-1]!
    9714:	e12fff33 	blx	r3
    9718:	e28d300c 	add	r3, sp, #12, 0
    971c:	e1540003 	cmp	r4, r3
    9720:	8afffff8 	bhi	9708 <emit_val+0xcc>
    9724:	e28dd030 	add	sp, sp, #48, 0	; 0x30
    9728:	e8bd8010 	pop	{r4, pc}
    972c:	0000aab0 	.word	0x0000aab0
    9730:	0000a9f8 	.word	0x0000a9f8
    9734:	0000aa08 	.word	0x0000aa08
    9738:	0000aa2c 	.word	0x0000aa2c
    973c:	cccccccd 	.word	0xcccccccd
    9740:	0000aa30 	.word	0x0000aa30
    9744:	0000aa3c 	.word	0x0000aa3c
    9748:	0000b31c 	.word	0x0000b31c

0000974c <vprintk>:
    974c:	e92d4030 	push	{r4, r5, lr}
    9750:	e24dd014 	sub	sp, sp, #20, 0
    9754:	e1a04000 	mov	r4, r0
    9758:	e58d100c 	str	r1, [sp, #12]
    975c:	ea000003 	b	9770 <vprintk+0x24>
    9760:	e59f3288 	ldr	r3, [pc, #648]	; 99f0 <vprintk+0x2a4>
    9764:	e5933000 	ldr	r3, [r3]
    9768:	e12fff33 	blx	r3
    976c:	e2844001 	add	r4, r4, #1, 0
    9770:	e5d40000 	ldrb	r0, [r4]
    9774:	e3500000 	cmp	r0, #0, 0
    9778:	0a00009a 	beq	99e8 <vprintk+0x29c>
    977c:	e3500025 	cmp	r0, #37, 0	; 0x25
    9780:	1afffff6 	bne	9760 <vprintk+0x14>
    9784:	e2845001 	add	r5, r4, #1, 0
    9788:	e5d42001 	ldrb	r2, [r4, #1]
    978c:	e2423062 	sub	r3, r2, #98, 0	; 0x62
    9790:	e3530016 	cmp	r3, #22, 0
    9794:	979ff103 	ldrls	pc, [pc, r3, lsl #2]
    9798:	ea00008b 	b	99cc <vprintk+0x280>
    979c:	000097f8 	.word	0x000097f8
    97a0:	00009838 	.word	0x00009838
    97a4:	00009950 	.word	0x00009950
    97a8:	000099cc 	.word	0x000099cc
    97ac:	000099cc 	.word	0x000099cc
    97b0:	000099cc 	.word	0x000099cc
    97b4:	000099cc 	.word	0x000099cc
    97b8:	000099cc 	.word	0x000099cc
    97bc:	000099cc 	.word	0x000099cc
    97c0:	000099cc 	.word	0x000099cc
    97c4:	0000985c 	.word	0x0000985c
    97c8:	000099cc 	.word	0x000099cc
    97cc:	000099cc 	.word	0x000099cc
    97d0:	000099cc 	.word	0x000099cc
    97d4:	00009914 	.word	0x00009914
    97d8:	000099cc 	.word	0x000099cc
    97dc:	000099cc 	.word	0x000099cc
    97e0:	00009994 	.word	0x00009994
    97e4:	000099cc 	.word	0x000099cc
    97e8:	00009818 	.word	0x00009818
    97ec:	000099cc 	.word	0x000099cc
    97f0:	000099cc 	.word	0x000099cc
    97f4:	00009914 	.word	0x00009914
    97f8:	e59d300c 	ldr	r3, [sp, #12]
    97fc:	e2832004 	add	r2, r3, #4, 0
    9800:	e58d200c 	str	r2, [sp, #12]
    9804:	e5931000 	ldr	r1, [r3]
    9808:	e3a00002 	mov	r0, #2, 0
    980c:	ebffff8a 	bl	963c <emit_val>
    9810:	e1a04005 	mov	r4, r5
    9814:	eaffffd4 	b	976c <vprintk+0x20>
    9818:	e59d300c 	ldr	r3, [sp, #12]
    981c:	e2832004 	add	r2, r3, #4, 0
    9820:	e58d200c 	str	r2, [sp, #12]
    9824:	e5931000 	ldr	r1, [r3]
    9828:	e3a0000a 	mov	r0, #10, 0
    982c:	ebffff82 	bl	963c <emit_val>
    9830:	e1a04005 	mov	r4, r5
    9834:	eaffffcc 	b	976c <vprintk+0x20>
    9838:	e59f31b0 	ldr	r3, [pc, #432]	; 99f0 <vprintk+0x2a4>
    983c:	e5932000 	ldr	r2, [r3]
    9840:	e59d300c 	ldr	r3, [sp, #12]
    9844:	e2831004 	add	r1, r3, #4, 0
    9848:	e58d100c 	str	r1, [sp, #12]
    984c:	e5930000 	ldr	r0, [r3]
    9850:	e12fff32 	blx	r2
    9854:	e1a04005 	mov	r4, r5
    9858:	eaffffc3 	b	976c <vprintk+0x20>
    985c:	e2842002 	add	r2, r4, #2, 0
    9860:	e5d43002 	ldrb	r3, [r4, #2]
    9864:	e353006c 	cmp	r3, #108, 0	; 0x6c
    9868:	1a000018 	bne	98d0 <vprintk+0x184>
    986c:	e2845003 	add	r5, r4, #3, 0
    9870:	e5d43003 	ldrb	r3, [r4, #3]
    9874:	e3530078 	cmp	r3, #120, 0	; 0x78
    9878:	1a00001b 	bne	98ec <vprintk+0x1a0>
    987c:	e59f416c 	ldr	r4, [pc, #364]	; 99f0 <vprintk+0x2a4>
    9880:	e5943000 	ldr	r3, [r4]
    9884:	e3a00030 	mov	r0, #48, 0	; 0x30
    9888:	e12fff33 	blx	r3
    988c:	e5943000 	ldr	r3, [r4]
    9890:	e3a00078 	mov	r0, #120, 0	; 0x78
    9894:	e12fff33 	blx	r3
    9898:	e59d300c 	ldr	r3, [sp, #12]
    989c:	e2833007 	add	r3, r3, #7, 0
    98a0:	e3c33007 	bic	r3, r3, #7, 0
    98a4:	e2832008 	add	r2, r3, #8, 0
    98a8:	e58d200c 	str	r2, [sp, #12]
    98ac:	e5934000 	ldr	r4, [r3]
    98b0:	e5931004 	ldr	r1, [r3, #4]
    98b4:	e3510000 	cmp	r1, #0, 0
    98b8:	1a000012 	bne	9908 <vprintk+0x1bc>
    98bc:	e1a01004 	mov	r1, r4
    98c0:	e3a00010 	mov	r0, #16, 0
    98c4:	ebffff5c 	bl	963c <emit_val>
    98c8:	e1a04005 	mov	r4, r5
    98cc:	eaffffa6 	b	976c <vprintk+0x20>
    98d0:	e58d2000 	str	r2, [sp]
    98d4:	e3a0303b 	mov	r3, #59, 0	; 0x3b
    98d8:	e59f2114 	ldr	r2, [pc, #276]	; 99f4 <vprintk+0x2a8>
    98dc:	e59f1114 	ldr	r1, [pc, #276]	; 99f8 <vprintk+0x2ac>
    98e0:	e59f0114 	ldr	r0, [pc, #276]	; 99fc <vprintk+0x2b0>
    98e4:	ebffff49 	bl	9610 <printk>
    98e8:	eb000078 	bl	9ad0 <clean_reboot>
    98ec:	e58d5000 	str	r5, [sp]
    98f0:	e3a0303e 	mov	r3, #62, 0	; 0x3e
    98f4:	e59f20f8 	ldr	r2, [pc, #248]	; 99f4 <vprintk+0x2a8>
    98f8:	e59f10f8 	ldr	r1, [pc, #248]	; 99f8 <vprintk+0x2ac>
    98fc:	e59f00f8 	ldr	r0, [pc, #248]	; 99fc <vprintk+0x2b0>
    9900:	ebffff42 	bl	9610 <printk>
    9904:	eb000071 	bl	9ad0 <clean_reboot>
    9908:	e3a00010 	mov	r0, #16, 0
    990c:	ebffff4a 	bl	963c <emit_val>
    9910:	eaffffe9 	b	98bc <vprintk+0x170>
    9914:	e59f40d4 	ldr	r4, [pc, #212]	; 99f0 <vprintk+0x2a4>
    9918:	e5943000 	ldr	r3, [r4]
    991c:	e3a00030 	mov	r0, #48, 0	; 0x30
    9920:	e12fff33 	blx	r3
    9924:	e5943000 	ldr	r3, [r4]
    9928:	e3a00078 	mov	r0, #120, 0	; 0x78
    992c:	e12fff33 	blx	r3
    9930:	e59d300c 	ldr	r3, [sp, #12]
    9934:	e2832004 	add	r2, r3, #4, 0
    9938:	e58d200c 	str	r2, [sp, #12]
    993c:	e5931000 	ldr	r1, [r3]
    9940:	e3a00010 	mov	r0, #16, 0
    9944:	ebffff3c 	bl	963c <emit_val>
    9948:	e1a04005 	mov	r4, r5
    994c:	eaffff86 	b	976c <vprintk+0x20>
    9950:	e59d300c 	ldr	r3, [sp, #12]
    9954:	e2832004 	add	r2, r3, #4, 0
    9958:	e58d200c 	str	r2, [sp, #12]
    995c:	e5934000 	ldr	r4, [r3]
    9960:	e3540000 	cmp	r4, #0, 0
    9964:	ba000004 	blt	997c <vprintk+0x230>
    9968:	e1a01004 	mov	r1, r4
    996c:	e3a0000a 	mov	r0, #10, 0
    9970:	ebffff31 	bl	963c <emit_val>
    9974:	e1a04005 	mov	r4, r5
    9978:	eaffff7b 	b	976c <vprintk+0x20>
    997c:	e59f306c 	ldr	r3, [pc, #108]	; 99f0 <vprintk+0x2a4>
    9980:	e5933000 	ldr	r3, [r3]
    9984:	e3a0002d 	mov	r0, #45, 0	; 0x2d
    9988:	e12fff33 	blx	r3
    998c:	e2644000 	rsb	r4, r4, #0, 0
    9990:	eafffff4 	b	9968 <vprintk+0x21c>
    9994:	e59d300c 	ldr	r3, [sp, #12]
    9998:	e2832004 	add	r2, r3, #4, 0
    999c:	e58d200c 	str	r2, [sp, #12]
    99a0:	e5934000 	ldr	r4, [r3]
    99a4:	e5d40000 	ldrb	r0, [r4]
    99a8:	e3500000 	cmp	r0, #0, 0
    99ac:	0a000004 	beq	99c4 <vprintk+0x278>
    99b0:	e59f3038 	ldr	r3, [pc, #56]	; 99f0 <vprintk+0x2a4>
    99b4:	e5933000 	ldr	r3, [r3]
    99b8:	e12fff33 	blx	r3
    99bc:	e2844001 	add	r4, r4, #1, 0
    99c0:	eafffff7 	b	99a4 <vprintk+0x258>
    99c4:	e1a04005 	mov	r4, r5
    99c8:	eaffff67 	b	976c <vprintk+0x20>
    99cc:	e58d2000 	str	r2, [sp]
    99d0:	e3a03062 	mov	r3, #98, 0	; 0x62
    99d4:	e59f2018 	ldr	r2, [pc, #24]	; 99f4 <vprintk+0x2a8>
    99d8:	e59f1018 	ldr	r1, [pc, #24]	; 99f8 <vprintk+0x2ac>
    99dc:	e59f001c 	ldr	r0, [pc, #28]	; 9a00 <vprintk+0x2b4>
    99e0:	ebffff0a 	bl	9610 <printk>
    99e4:	eb000039 	bl	9ad0 <clean_reboot>
    99e8:	e28dd014 	add	sp, sp, #20, 0
    99ec:	e8bd8030 	pop	{r4, r5, pc}
    99f0:	0000b31c 	.word	0x0000b31c
    99f4:	0000aabc 	.word	0x0000aabc
    99f8:	0000a9f8 	.word	0x0000a9f8
    99fc:	0000aa50 	.word	0x0000aa50
    9a00:	0000aa88 	.word	0x0000aa88

00009a04 <default_putchar>:
    9a04:	e92d4010 	push	{r4, lr}
    9a08:	e1a04000 	mov	r4, r0
    9a0c:	e6ef0070 	uxtb	r0, r0
    9a10:	eb000101 	bl	9e1c <uart_put8>
    9a14:	e1a00004 	mov	r0, r4
    9a18:	e8bd8010 	pop	{r4, pc}

00009a1c <rpi_putchar_set>:
    9a1c:	e59f300c 	ldr	r3, [pc, #12]	; 9a30 <rpi_putchar_set+0x14>
    9a20:	e5932000 	ldr	r2, [r3]
    9a24:	e5830000 	str	r0, [r3]
    9a28:	e1a00002 	mov	r0, r2
    9a2c:	e12fff1e 	bx	lr
    9a30:	0000b31c 	.word	0x0000b31c

00009a34 <asm_not_reached_helper>:
    9a34:	e92d4010 	push	{r4, lr}
    9a38:	e1a04000 	mov	r4, r0
    9a3c:	e59f0010 	ldr	r0, [pc, #16]	; 9a54 <asm_not_reached_helper+0x20>
    9a40:	ebfffef2 	bl	9610 <printk>
    9a44:	e1a01004 	mov	r1, r4
    9a48:	e59f0008 	ldr	r0, [pc, #8]	; 9a58 <asm_not_reached_helper+0x24>
    9a4c:	ebfffeef 	bl	9610 <printk>
    9a50:	eb00001e 	bl	9ad0 <clean_reboot>
    9a54:	0000aac4 	.word	0x0000aac4
    9a58:	0000aaf8 	.word	0x0000aaf8

00009a5c <asm_not_implemented_helper>:
    9a5c:	e92d4010 	push	{r4, lr}
    9a60:	e1a04000 	mov	r4, r0
    9a64:	e59f0010 	ldr	r0, [pc, #16]	; 9a7c <asm_not_implemented_helper+0x20>
    9a68:	ebfffee8 	bl	9610 <printk>
    9a6c:	e1a01004 	mov	r1, r4
    9a70:	e59f0008 	ldr	r0, [pc, #8]	; 9a80 <asm_not_implemented_helper+0x24>
    9a74:	ebfffee5 	bl	9610 <printk>
    9a78:	eb000014 	bl	9ad0 <clean_reboot>
    9a7c:	0000ab2c 	.word	0x0000ab2c
    9a80:	0000aaf8 	.word	0x0000aaf8

00009a84 <asm_todo_helper>:
    9a84:	e92d4010 	push	{r4, lr}
    9a88:	e1a04001 	mov	r4, r1
    9a8c:	e59f0018 	ldr	r0, [pc, #24]	; 9aac <asm_todo_helper+0x28>
    9a90:	ebfffede 	bl	9610 <printk>
    9a94:	e59f0014 	ldr	r0, [pc, #20]	; 9ab0 <asm_todo_helper+0x2c>
    9a98:	ebfffedc 	bl	9610 <printk>
    9a9c:	e1a01004 	mov	r1, r4
    9aa0:	e59f000c 	ldr	r0, [pc, #12]	; 9ab4 <asm_todo_helper+0x30>
    9aa4:	ebfffed9 	bl	9610 <printk>
    9aa8:	eb000008 	bl	9ad0 <clean_reboot>
    9aac:	0000ab58 	.word	0x0000ab58
    9ab0:	0000ab90 	.word	0x0000ab90
    9ab4:	0000abc4 	.word	0x0000abc4

00009ab8 <asm_bad_exception_helper>:
    9ab8:	e92d4010 	push	{r4, lr}
    9abc:	e1a02000 	mov	r2, r0
    9ac0:	e59f0004 	ldr	r0, [pc, #4]	; 9acc <asm_bad_exception_helper+0x14>
    9ac4:	ebfffed1 	bl	9610 <printk>
    9ac8:	eb000000 	bl	9ad0 <clean_reboot>
    9acc:	0000abcc 	.word	0x0000abcc

00009ad0 <clean_reboot>:
    9ad0:	e92d4010 	push	{r4, lr}
    9ad4:	e59f0010 	ldr	r0, [pc, #16]	; 9aec <clean_reboot+0x1c>
    9ad8:	eb000118 	bl	9f40 <putk>
    9adc:	eb000101 	bl	9ee8 <uart_flush_tx>
    9ae0:	e3a0000a 	mov	r0, #10, 0
    9ae4:	eb000087 	bl	9d08 <delay_ms>
    9ae8:	eb000063 	bl	9c7c <rpi_reboot>
    9aec:	0000abec 	.word	0x0000abec

00009af0 <program_end>:
    9af0:	e59f0000 	ldr	r0, [pc]	; 9af8 <program_end+0x8>
    9af4:	e12fff1e 	bx	lr
    9af8:	0000b338 	.word	0x0000b338

00009afc <_cstart>:
    9afc:	e92d4030 	push	{r4, r5, lr}
    9b00:	e24dd00c 	sub	sp, sp, #12, 0
    9b04:	e59f3098 	ldr	r3, [pc, #152]	; 9ba4 <_cstart+0xa8>
    9b08:	e59f2098 	ldr	r2, [pc, #152]	; 9ba8 <_cstart+0xac>
    9b0c:	e1530002 	cmp	r3, r2
    9b10:	33a02000 	movcc	r2, #0, 0
    9b14:	34c32001 	strbcc	r2, [r3], #1
    9b18:	3afffffa 	bcc	9b08 <_cstart+0xc>
    9b1c:	eb000085 	bl	9d38 <uart_init>
    9b20:	e3a03001 	mov	r3, #1, 0
    9b24:	ee0f3f1c 	mcr	15, 0, r3, cr15, cr12, {0}
    9b28:	e3a02a01 	mov	r2, #4096	; 0x1000
    9b2c:	e3a01000 	mov	r1, #0, 0
    9b30:	e1a00001 	mov	r0, r1
    9b34:	ebfffe8d 	bl	9570 <memset>
    9b38:	e3a04000 	mov	r4, #0, 0
    9b3c:	e1a05004 	mov	r5, r4
    9b40:	ea000005 	b	9b5c <_cstart+0x60>
    9b44:	e2855001 	add	r5, r5, #1, 0
    9b48:	e5912000 	ldr	r2, [r1]
    9b4c:	e1a03005 	mov	r3, r5
    9b50:	e59f0054 	ldr	r0, [pc, #84]	; 9bac <_cstart+0xb0>
    9b54:	ebfffead 	bl	9610 <printk>
    9b58:	e2844001 	add	r4, r4, #1, 0
    9b5c:	e3540b01 	cmp	r4, #1024	; 0x400
    9b60:	2a000004 	bcs	9b78 <_cstart+0x7c>
    9b64:	e1a01104 	lsl	r1, r4, #2
    9b68:	e5913000 	ldr	r3, [r1]
    9b6c:	e3530000 	cmp	r3, #0, 0
    9b70:	0afffff8 	beq	9b58 <_cstart+0x5c>
    9b74:	eafffff2 	b	9b44 <_cstart+0x48>
    9b78:	e3550000 	cmp	r5, #0, 0
    9b7c:	1a000001 	bne	9b88 <_cstart+0x8c>
    9b80:	ebfff92c 	bl	8038 <notmain>
    9b84:	ebffffd1 	bl	9ad0 <clean_reboot>
    9b88:	e58d5000 	str	r5, [sp]
    9b8c:	e3a0301b 	mov	r3, #27, 0
    9b90:	e59f2018 	ldr	r2, [pc, #24]	; 9bb0 <_cstart+0xb4>
    9b94:	e59f1018 	ldr	r1, [pc, #24]	; 9bb4 <_cstart+0xb8>
    9b98:	e59f0018 	ldr	r0, [pc, #24]	; 9bb8 <_cstart+0xbc>
    9b9c:	ebfffe9b 	bl	9610 <printk>
    9ba0:	ebffffca 	bl	9ad0 <clean_reboot>
    9ba4:	0000b320 	.word	0x0000b320
    9ba8:	0000b338 	.word	0x0000b338
    9bac:	0000abf8 	.word	0x0000abf8
    9bb0:	0000ac94 	.word	0x0000ac94
    9bb4:	0000ac24 	.word	0x0000ac24
    9bb8:	0000ac64 	.word	0x0000ac64

00009bbc <int_vector>:
    9bbc:	e52de004 	push	{lr}		; (str lr, [sp, #-4]!)
    9bc0:	e24dd00c 	sub	sp, sp, #12, 0
    9bc4:	e58d0000 	str	r0, [sp]
    9bc8:	e3a03003 	mov	r3, #3, 0
    9bcc:	e59f200c 	ldr	r2, [pc, #12]	; 9be0 <int_vector+0x24>
    9bd0:	e59f100c 	ldr	r1, [pc, #12]	; 9be4 <int_vector+0x28>
    9bd4:	e59f000c 	ldr	r0, [pc, #12]	; 9be8 <int_vector+0x2c>
    9bd8:	ebfffe8c 	bl	9610 <printk>
    9bdc:	ebffffbb 	bl	9ad0 <clean_reboot>
    9be0:	0000acf4 	.word	0x0000acf4
    9be4:	0000aca4 	.word	0x0000aca4
    9be8:	0000acc8 	.word	0x0000acc8

00009bec <prefetch_abort_vector>:
    9bec:	e52de004 	push	{lr}		; (str lr, [sp, #-4]!)
    9bf0:	e24dd00c 	sub	sp, sp, #12, 0
    9bf4:	e58d0000 	str	r0, [sp]
    9bf8:	e3a03003 	mov	r3, #3, 0
    9bfc:	e59f200c 	ldr	r2, [pc, #12]	; 9c10 <prefetch_abort_vector+0x24>
    9c00:	e59f100c 	ldr	r1, [pc, #12]	; 9c14 <prefetch_abort_vector+0x28>
    9c04:	e59f000c 	ldr	r0, [pc, #12]	; 9c18 <prefetch_abort_vector+0x2c>
    9c08:	ebfffe80 	bl	9610 <printk>
    9c0c:	ebffffaf 	bl	9ad0 <clean_reboot>
    9c10:	0000ad58 	.word	0x0000ad58
    9c14:	0000ad00 	.word	0x0000ad00
    9c18:	0000ad28 	.word	0x0000ad28

00009c1c <reset_vector>:
    9c1c:	e52de004 	push	{lr}		; (str lr, [sp, #-4]!)
    9c20:	e24dd00c 	sub	sp, sp, #12, 0
    9c24:	e58d0000 	str	r0, [sp]
    9c28:	e3a03003 	mov	r3, #3, 0
    9c2c:	e59f200c 	ldr	r2, [pc, #12]	; 9c40 <reset_vector+0x24>
    9c30:	e59f100c 	ldr	r1, [pc, #12]	; 9c44 <reset_vector+0x28>
    9c34:	e59f000c 	ldr	r0, [pc, #12]	; 9c48 <reset_vector+0x2c>
    9c38:	ebfffe74 	bl	9610 <printk>
    9c3c:	ebffffa3 	bl	9ad0 <clean_reboot>
    9c40:	0000adc8 	.word	0x0000adc8
    9c44:	0000ad70 	.word	0x0000ad70
    9c48:	0000ad94 	.word	0x0000ad94

00009c4c <undefined_instruction_vector>:
    9c4c:	e52de004 	push	{lr}		; (str lr, [sp, #-4]!)
    9c50:	e24dd00c 	sub	sp, sp, #12, 0
    9c54:	e58d0000 	str	r0, [sp]
    9c58:	e3a03003 	mov	r3, #3, 0
    9c5c:	e59f200c 	ldr	r2, [pc, #12]	; 9c70 <undefined_instruction_vector+0x24>
    9c60:	e59f100c 	ldr	r1, [pc, #12]	; 9c74 <undefined_instruction_vector+0x28>
    9c64:	e59f000c 	ldr	r0, [pc, #12]	; 9c78 <undefined_instruction_vector+0x2c>
    9c68:	ebfffe68 	bl	9610 <printk>
    9c6c:	ebffff97 	bl	9ad0 <clean_reboot>
    9c70:	0000ae44 	.word	0x0000ae44
    9c74:	0000add8 	.word	0x0000add8
    9c78:	0000ae08 	.word	0x0000ae08

00009c7c <rpi_reboot>:
    9c7c:	e92d4010 	push	{r4, lr}
    9c80:	e3a0000a 	mov	r0, #10, 0
    9c84:	eb00001f 	bl	9d08 <delay_ms>
    9c88:	e59f1014 	ldr	r1, [pc, #20]	; 9ca4 <rpi_reboot+0x28>
    9c8c:	e59f0014 	ldr	r0, [pc, #20]	; 9ca8 <rpi_reboot+0x2c>
    9c90:	ebfff8e3 	bl	8024 <PUT32>
    9c94:	e59f1010 	ldr	r1, [pc, #16]	; 9cac <rpi_reboot+0x30>
    9c98:	e59f0010 	ldr	r0, [pc, #16]	; 9cb0 <rpi_reboot+0x34>
    9c9c:	ebfff8e0 	bl	8024 <PUT32>
    9ca0:	eafffffe 	b	9ca0 <rpi_reboot+0x24>
    9ca4:	5a000001 	.word	0x5a000001
    9ca8:	20100024 	.word	0x20100024
    9cac:	5a000020 	.word	0x5a000020
    9cb0:	2010001c 	.word	0x2010001c

00009cb4 <timer_get_usec_raw>:
    9cb4:	e92d4010 	push	{r4, lr}
    9cb8:	e59f0004 	ldr	r0, [pc, #4]	; 9cc4 <timer_get_usec_raw+0x10>
    9cbc:	ebfff8da 	bl	802c <GET32>
    9cc0:	e8bd8010 	pop	{r4, pc}
    9cc4:	20003004 	.word	0x20003004

00009cc8 <timer_get_usec>:
    9cc8:	e92d4010 	push	{r4, lr}
    9ccc:	eb0000a8 	bl	9f74 <dev_barrier>
    9cd0:	ebfffff7 	bl	9cb4 <timer_get_usec_raw>
    9cd4:	e1a04000 	mov	r4, r0
    9cd8:	eb0000a5 	bl	9f74 <dev_barrier>
    9cdc:	e1a00004 	mov	r0, r4
    9ce0:	e8bd8010 	pop	{r4, pc}

00009ce4 <delay_us>:
    9ce4:	e92d4070 	push	{r4, r5, r6, lr}
    9ce8:	e1a05000 	mov	r5, r0
    9cec:	ebfffff5 	bl	9cc8 <timer_get_usec>
    9cf0:	e1a04000 	mov	r4, r0
    9cf4:	ebfffff3 	bl	9cc8 <timer_get_usec>
    9cf8:	e0400004 	sub	r0, r0, r4
    9cfc:	e1500005 	cmp	r0, r5
    9d00:	3afffffb 	bcc	9cf4 <delay_us+0x10>
    9d04:	e8bd8070 	pop	{r4, r5, r6, pc}

00009d08 <delay_ms>:
    9d08:	e92d4010 	push	{r4, lr}
    9d0c:	e0603280 	rsb	r3, r0, r0, lsl #5
    9d10:	e0800103 	add	r0, r0, r3, lsl #2
    9d14:	e1a00180 	lsl	r0, r0, #3
    9d18:	ebfffff1 	bl	9ce4 <delay_us>
    9d1c:	e8bd8010 	pop	{r4, pc}

00009d20 <delay_sec>:
    9d20:	e92d4010 	push	{r4, lr}
    9d24:	e0603280 	rsb	r3, r0, r0, lsl #5
    9d28:	e0800103 	add	r0, r0, r3, lsl #2
    9d2c:	e1a00180 	lsl	r0, r0, #3
    9d30:	ebfffff4 	bl	9d08 <delay_ms>
    9d34:	e8bd8010 	pop	{r4, pc}

00009d38 <uart_init>:
    9d38:	e92d4010 	push	{r4, lr}
    9d3c:	e24dd008 	sub	sp, sp, #8, 0
    9d40:	eb00008b 	bl	9f74 <dev_barrier>
    9d44:	e3a01002 	mov	r1, #2, 0
    9d48:	e3a0000e 	mov	r0, #14, 0
    9d4c:	eb0000be 	bl	a04c <gpio_set_function>
    9d50:	e3a01002 	mov	r1, #2, 0
    9d54:	e3a0000f 	mov	r0, #15, 0
    9d58:	eb0000bb 	bl	a04c <gpio_set_function>
    9d5c:	eb000084 	bl	9f74 <dev_barrier>
    9d60:	e59f4080 	ldr	r4, [pc, #128]	; 9de8 <uart_init+0xb0>
    9d64:	e1a00004 	mov	r0, r4
    9d68:	ebfff8af 	bl	802c <GET32>
    9d6c:	e58d0004 	str	r0, [sp, #4]
    9d70:	e59d1004 	ldr	r1, [sp, #4]
    9d74:	e3811001 	orr	r1, r1, #1, 0
    9d78:	e1a00004 	mov	r0, r4
    9d7c:	ebfff8a8 	bl	8024 <PUT32>
    9d80:	eb00007b 	bl	9f74 <dev_barrier>
    9d84:	e284405c 	add	r4, r4, #92, 0	; 0x5c
    9d88:	e3a01000 	mov	r1, #0, 0
    9d8c:	e1a00004 	mov	r0, r4
    9d90:	ebfff8a3 	bl	8024 <PUT32>
    9d94:	e3a01000 	mov	r1, #0, 0
    9d98:	e59f004c 	ldr	r0, [pc, #76]	; 9dec <uart_init+0xb4>
    9d9c:	ebfff8a0 	bl	8024 <PUT32>
    9da0:	e3a01006 	mov	r1, #6, 0
    9da4:	e59f0044 	ldr	r0, [pc, #68]	; 9df0 <uart_init+0xb8>
    9da8:	ebfff89d 	bl	8024 <PUT32>
    9dac:	e3a01003 	mov	r1, #3, 0
    9db0:	e59f003c 	ldr	r0, [pc, #60]	; 9df4 <uart_init+0xbc>
    9db4:	ebfff89a 	bl	8024 <PUT32>
    9db8:	e3a01000 	mov	r1, #0, 0
    9dbc:	e59f0034 	ldr	r0, [pc, #52]	; 9df8 <uart_init+0xc0>
    9dc0:	ebfff897 	bl	8024 <PUT32>
    9dc4:	e59f1030 	ldr	r1, [pc, #48]	; 9dfc <uart_init+0xc4>
    9dc8:	e59f0030 	ldr	r0, [pc, #48]	; 9e00 <uart_init+0xc8>
    9dcc:	ebfff894 	bl	8024 <PUT32>
    9dd0:	e3a01003 	mov	r1, #3, 0
    9dd4:	e1a00004 	mov	r0, r4
    9dd8:	ebfff891 	bl	8024 <PUT32>
    9ddc:	eb000064 	bl	9f74 <dev_barrier>
    9de0:	e28dd008 	add	sp, sp, #8, 0
    9de4:	e8bd8010 	pop	{r4, pc}
    9de8:	20215004 	.word	0x20215004
    9dec:	20215044 	.word	0x20215044
    9df0:	20215048 	.word	0x20215048
    9df4:	2021504c 	.word	0x2021504c
    9df8:	20215050 	.word	0x20215050
    9dfc:	0000010e 	.word	0x0000010e
    9e00:	20215068 	.word	0x20215068

00009e04 <uart_can_put8>:
    9e04:	e92d4010 	push	{r4, lr}
    9e08:	e59f0008 	ldr	r0, [pc, #8]	; 9e18 <uart_can_put8+0x14>
    9e0c:	ebfff886 	bl	802c <GET32>
    9e10:	e2000002 	and	r0, r0, #2, 0
    9e14:	e8bd8010 	pop	{r4, pc}
    9e18:	20215064 	.word	0x20215064

00009e1c <uart_put8>:
    9e1c:	e92d4010 	push	{r4, lr}
    9e20:	e1a04000 	mov	r4, r0
    9e24:	eb000052 	bl	9f74 <dev_barrier>
    9e28:	ebfffff5 	bl	9e04 <uart_can_put8>
    9e2c:	e3500000 	cmp	r0, #0, 0
    9e30:	1a000001 	bne	9e3c <uart_put8+0x20>
    9e34:	eb000054 	bl	9f8c <rpi_wait>
    9e38:	eafffffa 	b	9e28 <uart_put8+0xc>
    9e3c:	e1a01004 	mov	r1, r4
    9e40:	e59f000c 	ldr	r0, [pc, #12]	; 9e54 <uart_put8+0x38>
    9e44:	ebfff876 	bl	8024 <PUT32>
    9e48:	eb000049 	bl	9f74 <dev_barrier>
    9e4c:	e3a00001 	mov	r0, #1, 0
    9e50:	e8bd8010 	pop	{r4, pc}
    9e54:	20215040 	.word	0x20215040

00009e58 <uart_has_data>:
    9e58:	e92d4010 	push	{r4, lr}
    9e5c:	e59f0008 	ldr	r0, [pc, #8]	; 9e6c <uart_has_data+0x14>
    9e60:	ebfff871 	bl	802c <GET32>
    9e64:	e2000001 	and	r0, r0, #1, 0
    9e68:	e8bd8010 	pop	{r4, pc}
    9e6c:	20215064 	.word	0x20215064

00009e70 <uart_get8>:
    9e70:	e92d4010 	push	{r4, lr}
    9e74:	eb00003e 	bl	9f74 <dev_barrier>
    9e78:	ebfffff6 	bl	9e58 <uart_has_data>
    9e7c:	e3500000 	cmp	r0, #0, 0
    9e80:	1a000001 	bne	9e8c <uart_get8+0x1c>
    9e84:	eb000040 	bl	9f8c <rpi_wait>
    9e88:	eafffffa 	b	9e78 <uart_get8+0x8>
    9e8c:	e59f0010 	ldr	r0, [pc, #16]	; 9ea4 <uart_get8+0x34>
    9e90:	ebfff865 	bl	802c <GET32>
    9e94:	e6ef4070 	uxtb	r4, r0
    9e98:	eb000035 	bl	9f74 <dev_barrier>
    9e9c:	e1a00004 	mov	r0, r4
    9ea0:	e8bd8010 	pop	{r4, pc}
    9ea4:	20215040 	.word	0x20215040

00009ea8 <uart_get8_async>:
    9ea8:	e92d4010 	push	{r4, lr}
    9eac:	eb000030 	bl	9f74 <dev_barrier>
    9eb0:	ebffffe8 	bl	9e58 <uart_has_data>
    9eb4:	e3500000 	cmp	r0, #0, 0
    9eb8:	0a000001 	beq	9ec4 <uart_get8_async+0x1c>
    9ebc:	ebffffeb 	bl	9e70 <uart_get8>
    9ec0:	e8bd8010 	pop	{r4, pc}
    9ec4:	e3e00000 	mvn	r0, #0, 0
    9ec8:	e8bd8010 	pop	{r4, pc}

00009ecc <uart_tx_is_empty>:
    9ecc:	e92d4010 	push	{r4, lr}
    9ed0:	e59f000c 	ldr	r0, [pc, #12]	; 9ee4 <uart_tx_is_empty+0x18>
    9ed4:	ebfff854 	bl	802c <GET32>
    9ed8:	e1a004a0 	lsr	r0, r0, #9
    9edc:	e2000001 	and	r0, r0, #1, 0
    9ee0:	e8bd8010 	pop	{r4, pc}
    9ee4:	20215064 	.word	0x20215064

00009ee8 <uart_flush_tx>:
    9ee8:	e92d4010 	push	{r4, lr}
    9eec:	ebfffff6 	bl	9ecc <uart_tx_is_empty>
    9ef0:	e3500000 	cmp	r0, #0, 0
    9ef4:	18bd8010 	popne	{r4, pc}
    9ef8:	eb000023 	bl	9f8c <rpi_wait>
    9efc:	eafffffa 	b	9eec <uart_flush_tx+0x4>

00009f00 <uart_disable>:
    9f00:	e92d4010 	push	{r4, lr}
    9f04:	e24dd008 	sub	sp, sp, #8, 0
    9f08:	eb000019 	bl	9f74 <dev_barrier>
    9f0c:	ebfffff5 	bl	9ee8 <uart_flush_tx>
    9f10:	e59f4024 	ldr	r4, [pc, #36]	; 9f3c <uart_disable+0x3c>
    9f14:	e1a00004 	mov	r0, r4
    9f18:	ebfff843 	bl	802c <GET32>
    9f1c:	e58d0004 	str	r0, [sp, #4]
    9f20:	e59d1004 	ldr	r1, [sp, #4]
    9f24:	e2011006 	and	r1, r1, #6, 0
    9f28:	e1a00004 	mov	r0, r4
    9f2c:	ebfff83c 	bl	8024 <PUT32>
    9f30:	eb00000f 	bl	9f74 <dev_barrier>
    9f34:	e28dd008 	add	sp, sp, #8, 0
    9f38:	e8bd8010 	pop	{r4, pc}
    9f3c:	20215004 	.word	0x20215004

00009f40 <putk>:
    9f40:	e92d4010 	push	{r4, lr}
    9f44:	e1a04000 	mov	r4, r0
    9f48:	e5d40000 	ldrb	r0, [r4]
    9f4c:	e3500000 	cmp	r0, #0, 0
    9f50:	0a000004 	beq	9f68 <putk+0x28>
    9f54:	e59f3014 	ldr	r3, [pc, #20]	; 9f70 <putk+0x30>
    9f58:	e5933000 	ldr	r3, [r3]
    9f5c:	e12fff33 	blx	r3
    9f60:	e2844001 	add	r4, r4, #1, 0
    9f64:	eafffff7 	b	9f48 <putk+0x8>
    9f68:	e3a00001 	mov	r0, #1, 0
    9f6c:	e8bd8010 	pop	{r4, pc}
    9f70:	0000b31c 	.word	0x0000b31c

00009f74 <dev_barrier>:
    9f74:	ea000002 	b	9f84 <dsb>

00009f78 <dmb>:
    9f78:	e3a00000 	mov	r0, #0, 0
    9f7c:	ee070fba 	mcr	15, 0, r0, cr7, cr10, {5}
    9f80:	e12fff1e 	bx	lr

00009f84 <dsb>:
    9f84:	ee070f9a 	mcr	15, 0, r0, cr7, cr10, {4}
    9f88:	e12fff1e 	bx	lr

00009f8c <rpi_wait>:
    9f8c:	e12fff1e 	bx	lr

00009f90 <gpio_set_on>:
    9f90:	e350002f 	cmp	r0, #47, 0	; 0x2f
    9f94:	1350001f 	cmpne	r0, #31, 0
    9f98:	812fff1e 	bxhi	lr
    9f9c:	e92d4010 	push	{r4, lr}
    9fa0:	e59f3018 	ldr	r3, [pc, #24]	; 9fc0 <gpio_set_on+0x30>
    9fa4:	e08332a0 	add	r3, r3, r0, lsr #5
    9fa8:	e200001f 	and	r0, r0, #31, 0
    9fac:	e3a01001 	mov	r1, #1, 0
    9fb0:	e1a01011 	lsl	r1, r1, r0
    9fb4:	e1a00103 	lsl	r0, r3, #2
    9fb8:	ebfff819 	bl	8024 <PUT32>
    9fbc:	e8bd8010 	pop	{r4, pc}
    9fc0:	08080007 	.word	0x08080007

00009fc4 <gpio_set_off>:
    9fc4:	e350002f 	cmp	r0, #47, 0	; 0x2f
    9fc8:	1350001f 	cmpne	r0, #31, 0
    9fcc:	812fff1e 	bxhi	lr
    9fd0:	e92d4010 	push	{r4, lr}
    9fd4:	e59f3018 	ldr	r3, [pc, #24]	; 9ff4 <gpio_set_off+0x30>
    9fd8:	e08332a0 	add	r3, r3, r0, lsr #5
    9fdc:	e200001f 	and	r0, r0, #31, 0
    9fe0:	e3a01001 	mov	r1, #1, 0
    9fe4:	e1a01011 	lsl	r1, r1, r0
    9fe8:	e1a00103 	lsl	r0, r3, #2
    9fec:	ebfff80c 	bl	8024 <PUT32>
    9ff0:	e8bd8010 	pop	{r4, pc}
    9ff4:	0808000a 	.word	0x0808000a

00009ff8 <gpio_write>:
    9ff8:	e92d4010 	push	{r4, lr}
    9ffc:	e3510000 	cmp	r1, #0, 0
    a000:	0a000001 	beq	a00c <gpio_write+0x14>
    a004:	ebffffe1 	bl	9f90 <gpio_set_on>
    a008:	e8bd8010 	pop	{r4, pc}
    a00c:	ebffffec 	bl	9fc4 <gpio_set_off>
    a010:	e8bd8010 	pop	{r4, pc}

0000a014 <gpio_read>:
    a014:	e350001f 	cmp	r0, #31, 0
    a018:	8a000008 	bhi	a040 <gpio_read+0x2c>
    a01c:	e92d4010 	push	{r4, lr}
    a020:	e1a04000 	mov	r4, r0
    a024:	e59f001c 	ldr	r0, [pc, #28]	; a048 <gpio_read+0x34>
    a028:	e08002a4 	add	r0, r0, r4, lsr #5
    a02c:	e1a00100 	lsl	r0, r0, #2
    a030:	ebfff7fd 	bl	802c <GET32>
    a034:	e1a00430 	lsr	r0, r0, r4
    a038:	e2000001 	and	r0, r0, #1, 0
    a03c:	e8bd8010 	pop	{r4, pc}
    a040:	e3e00000 	mvn	r0, #0, 0
    a044:	e12fff1e 	bx	lr
    a048:	0808000d 	.word	0x0808000d

0000a04c <gpio_set_function>:
    a04c:	e350002f 	cmp	r0, #47, 0	; 0x2f
    a050:	1350001f 	cmpne	r0, #31, 0
    a054:	812fff1e 	bxhi	lr
    a058:	e92d40f0 	push	{r4, r5, r6, r7, lr}
    a05c:	e24dd00c 	sub	sp, sp, #12, 0
    a060:	e1a04000 	mov	r4, r0
    a064:	e1a06001 	mov	r6, r1
    a068:	e3510007 	cmp	r1, #7, 0
    a06c:	9a000001 	bls	a078 <gpio_set_function+0x2c>
    a070:	e28dd00c 	add	sp, sp, #12, 0
    a074:	e8bd80f0 	pop	{r4, r5, r6, r7, pc}
    a078:	e59f5044 	ldr	r5, [pc, #68]	; a0c4 <gpio_set_function+0x78>
    a07c:	e0853095 	umull	r3, r5, r5, r0
    a080:	e1a051a5 	lsr	r5, r5, #3
    a084:	e2857302 	add	r7, r5, #134217728	; 0x8000000
    a088:	e2877702 	add	r7, r7, #524288	; 0x80000
    a08c:	e1a07107 	lsl	r7, r7, #2
    a090:	e1a00007 	mov	r0, r7
    a094:	ebfff7e4 	bl	802c <GET32>
    a098:	e58d0004 	str	r0, [sp, #4]
    a09c:	e0855105 	add	r5, r5, r5, lsl #2
    a0a0:	e0444085 	sub	r4, r4, r5, lsl #1
    a0a4:	e0844084 	add	r4, r4, r4, lsl #1
    a0a8:	e59d1004 	ldr	r1, [sp, #4]
    a0ac:	e3a03007 	mov	r3, #7, 0
    a0b0:	e1c11413 	bic	r1, r1, r3, lsl r4
    a0b4:	e1811416 	orr	r1, r1, r6, lsl r4
    a0b8:	e1a00007 	mov	r0, r7
    a0bc:	ebfff7d8 	bl	8024 <PUT32>
    a0c0:	eaffffea 	b	a070 <gpio_set_function+0x24>
    a0c4:	cccccccd 	.word	0xcccccccd

0000a0c8 <gpio_set_output>:
    a0c8:	e92d4010 	push	{r4, lr}
    a0cc:	e3a01001 	mov	r1, #1, 0
    a0d0:	ebffffdd 	bl	a04c <gpio_set_function>
    a0d4:	e8bd8010 	pop	{r4, pc}

0000a0d8 <gpio_set_input>:
    a0d8:	e92d4010 	push	{r4, lr}
    a0dc:	e3a01000 	mov	r1, #0, 0
    a0e0:	ebffffd9 	bl	a04c <gpio_set_function>
    a0e4:	e8bd8010 	pop	{r4, pc}
